(dp1
S'output'
p2
S''
sS'layer'
p3
S'/home/alumno/web2py/applications/datos/models/db.py'
p4
sS'code'
p5
S"# -*- coding: utf-8 -*-\n\ndb = DAL('sqlite://datos.db');\n# definimos la base de datos \ndb.define_table('alumno',Field('codigo'),\n\t\t\t\t\t\tField('nombres'),\n\t\t\t\t\t\tField('apellidos'),\n\t\t\t\t\t\tField('fnacimiento','date'),\n\t\t\t\t\t\tField('email'),\n\t\t\t\t\t\tField('hobby'))\ndb.alumno.codigo.requires = IS_NOT_EMPTY(error =mesage'no puede estar vacio')\ndb.alumno.nombres.requires = IS_LENGTH(100)\ndb.alumno.apellidos.requires = IS_ALPHANUMERIC()\ndb.alumno.fnacimiento.requires = IS_DATE('%Y-%m-%d')\ndb.alumno.email.requires = IS_EMAIL()\ndb.alumno.hobby.default = 'Estudiar :P'\n"
p6
sS'snapshot'
p7
(dp8
S'exception'
p9
(dp10
S'__getslice__'
p11
S"<method-wrapper '__getslice__' of exceptions.SyntaxError object>"
p12
sS'text'
p13
S'"db.alumno.codigo.requires = IS_NOT_EMPTY(error =mesage\'no puede estar vacio\')\\n"'
p14
sS'__str__'
p15
S"<method-wrapper '__str__' of exceptions.SyntaxError object>"
p16
sS'__reduce__'
p17
S'<built-in method __reduce__ of exceptions.SyntaxError object>'
p18
sS'__dict__'
p19
S'{}'
p20
sS'__sizeof__'
p21
S'<built-in method __sizeof__ of exceptions.SyntaxError object>'
p22
sS'__init__'
p23
S"<method-wrapper '__init__' of exceptions.SyntaxError object>"
p24
sS'__setattr__'
p25
S"<method-wrapper '__setattr__' of exceptions.SyntaxError object>"
p26
sS'__reduce_ex__'
p27
S'<built-in method __reduce_ex__ of exceptions.SyntaxError object>'
p28
sS'__new__'
p29
S'<built-in method __new__ of type object>'
p30
sS'__format__'
p31
S'<built-in method __format__ of exceptions.SyntaxError object>'
p32
sS'__class__'
p33
S"<type 'exceptions.SyntaxError'>"
p34
sS'filename'
p35
S"'/home/alumno/web2py/applications/datos/models/db.py'"
p36
sS'lineno'
p37
S'11'
p38
sS'msg'
p39
S"'invalid syntax'"
p40
sS'__doc__'
p41
S"'Invalid syntax.'"
p42
sS'__getitem__'
p43
S"<method-wrapper '__getitem__' of exceptions.SyntaxError object>"
p44
sS'__setstate__'
p45
S'<built-in method __setstate__ of exceptions.SyntaxError object>'
p46
sS'__getattribute__'
p47
S"<method-wrapper '__getattribute__' of exceptions.SyntaxError object>"
p48
sS'print_file_and_line'
p49
S'None'
p50
sS'args'
p51
S'(\'invalid syntax\', (\'/home/alumno/web2py/applications/datos/models/db.py\', 11, 76, "db.alumno.codigo.requires = IS_NOT_EMPTY(error =mesage\'no puede estar vacio\')\\n"))'
p52
sS'__subclasshook__'
p53
S'<built-in method __subclasshook__ of type object>'
p54
sS'offset'
p55
S'76'
p56
sS'__unicode__'
p57
S'<built-in method __unicode__ of exceptions.SyntaxError object>'
p58
sS'__delattr__'
p59
S"<method-wrapper '__delattr__' of exceptions.SyntaxError object>"
p60
sS'__repr__'
p61
S"<method-wrapper '__repr__' of exceptions.SyntaxError object>"
p62
sS'__hash__'
p63
S"<method-wrapper '__hash__' of exceptions.SyntaxError object>"
p64
ssS'evalue'
p65
S'invalid syntax (db.py, line 11)'
p66
sS'request'
p67
ccopy_reg
_reconstructor
p68
(cgluon.html
BEAUTIFY
p69
c__builtin__
object
p70
NtRp71
(dp72
S'attributes'
p73
(dp74
sS'components'
p75
(lp76
g68
(cgluon.html
TABLE
p77
g70
NtRp78
(dp79
g73
(dp80
S'level'
p81
I5
ssS'parent'
p82
Nsg75
(lp83
g68
(cgluon.html
TR
p84
g70
NtRp85
(dp86
g73
(dp87
sg82
g78
sg75
(lp88
g68
(cgluon.html
TD
p89
g70
NtRp90
(dp91
g73
(dp92
S'_style'
p93
S'font-weight:bold;'
p94
ssg82
g85
sg75
(lp95
S'ajax'
p96
asbag68
(g89
g70
NtRp97
(dp98
g73
(dp99
S'_valign'
p100
S'top'
p101
ssg82
g85
sg75
(lp102
S':'
asbag68
(g89
g70
NtRp103
(dp104
g73
(dp105
sg82
g85
sg75
(lp106
g68
(g69
g70
NtRp107
(dp108
g73
(dp109
g81
I5
ssg82
g103
sg75
(lp110
S'False'
p111
asbasbasbag68
(g84
g70
NtRp112
(dp113
g73
(dp114
sg82
g78
sg75
(lp115
g68
(g89
g70
NtRp116
(dp117
g73
(dp118
g93
g94
ssg82
g112
sg75
(lp119
S'application'
p120
asbag68
(g89
g70
NtRp121
(dp122
g73
(dp123
g100
g101
ssg82
g112
sg75
(lp124
S':'
asbag68
(g89
g70
NtRp125
(dp126
g73
(dp127
sg82
g112
sg75
(lp128
g68
(g69
g70
NtRp129
(dp130
g73
(dp131
g81
I5
ssg82
g125
sg75
(lp132
S'datos'
p133
asbasbasbag68
(g84
g70
NtRp134
(dp135
g73
(dp136
sg82
g78
sg75
(lp137
g68
(g89
g70
NtRp138
(dp139
g73
(dp140
g93
g94
ssg82
g134
sg75
(lp141
g51
asbag68
(g89
g70
NtRp142
(dp143
g73
(dp144
g100
g101
ssg82
g134
sg75
(lp145
S':'
asbag68
(g89
g70
NtRp146
(dp147
g73
(dp148
sg82
g134
sg75
(lp149
g68
(g69
g70
NtRp150
(dp151
g73
(dp152
g81
I5
ssg82
g146
sg75
(lp153
g68
(g77
g70
NtRp154
(dp155
g73
(dp156
g81
I4
ssg82
Nsg75
(lp157
g68
(g84
g70
NtRp158
(dp159
g73
(dp160
sg82
g154
sg75
(lp161
g68
(g89
g70
NtRp162
(dp163
g73
(dp164
sg82
g158
sg75
(lp165
g68
(g69
g70
NtRp166
(dp167
g73
(dp168
g81
I4
ssg82
g162
sg75
(lp169
S'db'
p170
asbasbasbag68
(g84
g70
NtRp171
(dp172
g73
(dp173
sg82
g154
sg75
(lp174
g68
(g89
g70
NtRp175
(dp176
g73
(dp177
sg82
g171
sg75
(lp178
g68
(g69
g70
NtRp179
(dp180
g73
(dp181
g81
I4
ssg82
g175
sg75
(lp182
S'alumno'
p183
asbasbasbasbasbasbasbag68
(g84
g70
NtRp184
(dp185
g73
(dp186
sg82
g78
sg75
(lp187
g68
(g89
g70
NtRp188
(dp189
g73
(dp190
g93
g94
ssg82
g184
sg75
(lp191
S'body'
p192
asbag68
(g89
g70
NtRp193
(dp194
g73
(dp195
g100
g101
ssg82
g184
sg75
(lp196
S':'
asbag68
(g89
g70
NtRp197
(dp198
g73
(dp199
sg82
g184
sg75
(lp200
g68
(g69
g70
NtRp201
(dp202
g73
(dp203
g81
I5
ssg82
g197
sg75
(lp204
S'<cStringIO.StringO object at 0x9e1e1e0>'
p205
asbasbasbag68
(g84
g70
NtRp206
(dp207
g73
(dp208
sg82
g78
sg75
(lp209
g68
(g89
g70
NtRp210
(dp211
g73
(dp212
g93
g94
ssg82
g206
sg75
(lp213
S'client'
p214
asbag68
(g89
g70
NtRp215
(dp216
g73
(dp217
g100
g101
ssg82
g206
sg75
(lp218
S':'
asbag68
(g89
g70
NtRp219
(dp220
g73
(dp221
sg82
g206
sg75
(lp222
g68
(g69
g70
NtRp223
(dp224
g73
(dp225
g81
I5
ssg82
g219
sg75
(lp226
S'127.0.0.1'
p227
asbasbasbag68
(g84
g70
NtRp228
(dp229
g73
(dp230
sg82
g78
sg75
(lp231
g68
(g89
g70
NtRp232
(dp233
g73
(dp234
g93
g94
ssg82
g228
sg75
(lp235
S'controller'
p236
asbag68
(g89
g70
NtRp237
(dp238
g73
(dp239
g100
g101
ssg82
g228
sg75
(lp240
S':'
asbag68
(g89
g70
NtRp241
(dp242
g73
(dp243
sg82
g228
sg75
(lp244
g68
(g69
g70
NtRp245
(dp246
g73
(dp247
g81
I5
ssg82
g241
sg75
(lp248
S'appadmin'
p249
asbasbasbag68
(g84
g70
NtRp250
(dp251
g73
(dp252
sg82
g78
sg75
(lp253
g68
(g89
g70
NtRp254
(dp255
g73
(dp256
g93
g94
ssg82
g250
sg75
(lp257
S'cookies'
p258
asbag68
(g89
g70
NtRp259
(dp260
g73
(dp261
g100
g101
ssg82
g250
sg75
(lp262
S':'
asbag68
(g89
g70
NtRp263
(dp264
g73
(dp265
sg82
g250
sg75
(lp266
g68
(g69
g70
NtRp267
(dp268
g73
(dp269
g81
I5
ssg82
g263
sg75
(lp270
g68
(g77
g70
NtRp271
(dp272
g73
(dp273
g81
I4
ssg82
Nsg75
(lp274
g68
(g84
g70
NtRp275
(dp276
g73
(dp277
sg82
g271
sg75
(lp278
g68
(g89
g70
NtRp279
(dp280
g73
(dp281
g93
g94
ssg82
g275
sg75
(lp282
S'adminLanguage'
p283
asbag68
(g89
g70
NtRp284
(dp285
g73
(dp286
g100
g101
ssg82
g275
sg75
(lp287
S':'
asbag68
(g89
g70
NtRp288
(dp289
g73
(dp290
sg82
g275
sg75
(lp291
g68
(g69
g70
NtRp292
(dp293
g73
(dp294
g81
I4
ssg82
g288
sg75
(lp295
g68
(g77
g70
NtRp296
(dp297
g73
(dp298
g81
I3
ssg82
Nsg75
(lp299
g68
(g84
g70
NtRp300
(dp301
g73
(dp302
sg82
g296
sg75
(lp303
g68
(g89
g70
NtRp304
(dp305
g73
(dp306
g93
g94
ssg82
g300
sg75
(lp307
S'comment'
p308
asbag68
(g89
g70
NtRp309
(dp310
g73
(dp311
g100
g101
ssg82
g300
sg75
(lp312
S':'
asbag68
(g89
g70
NtRp313
(dp314
g73
(dp315
sg82
g300
sg75
(lp316
g68
(g69
g70
NtRp317
(dp318
g73
(dp319
g81
I3
ssg82
g313
sg75
(lp320
S''
asbasbasbag68
(g84
g70
NtRp321
(dp322
g73
(dp323
sg82
g296
sg75
(lp324
g68
(g89
g70
NtRp325
(dp326
g73
(dp327
g93
g94
ssg82
g321
sg75
(lp328
S'domain'
p329
asbag68
(g89
g70
NtRp330
(dp331
g73
(dp332
g100
g101
ssg82
g321
sg75
(lp333
S':'
asbag68
(g89
g70
NtRp334
(dp335
g73
(dp336
sg82
g321
sg75
(lp337
g68
(g69
g70
NtRp338
(dp339
g73
(dp340
g81
I3
ssg82
g334
sg75
(lp341
S''
asbasbasbag68
(g84
g70
NtRp342
(dp343
g73
(dp344
sg82
g296
sg75
(lp345
g68
(g89
g70
NtRp346
(dp347
g73
(dp348
g93
g94
ssg82
g342
sg75
(lp349
S'expires'
p350
asbag68
(g89
g70
NtRp351
(dp352
g73
(dp353
g100
g101
ssg82
g342
sg75
(lp354
S':'
asbag68
(g89
g70
NtRp355
(dp356
g73
(dp357
sg82
g342
sg75
(lp358
g68
(g69
g70
NtRp359
(dp360
g73
(dp361
g81
I3
ssg82
g355
sg75
(lp362
S''
asbasbasbag68
(g84
g70
NtRp363
(dp364
g73
(dp365
sg82
g296
sg75
(lp366
g68
(g89
g70
NtRp367
(dp368
g73
(dp369
g93
g94
ssg82
g363
sg75
(lp370
S'httponly'
p371
asbag68
(g89
g70
NtRp372
(dp373
g73
(dp374
g100
g101
ssg82
g363
sg75
(lp375
S':'
asbag68
(g89
g70
NtRp376
(dp377
g73
(dp378
sg82
g363
sg75
(lp379
g68
(g69
g70
NtRp380
(dp381
g73
(dp382
g81
I3
ssg82
g376
sg75
(lp383
S''
asbasbasbag68
(g84
g70
NtRp384
(dp385
g73
(dp386
sg82
g296
sg75
(lp387
g68
(g89
g70
NtRp388
(dp389
g73
(dp390
g93
g94
ssg82
g384
sg75
(lp391
S'max-age'
p392
asbag68
(g89
g70
NtRp393
(dp394
g73
(dp395
g100
g101
ssg82
g384
sg75
(lp396
S':'
asbag68
(g89
g70
NtRp397
(dp398
g73
(dp399
sg82
g384
sg75
(lp400
g68
(g69
g70
NtRp401
(dp402
g73
(dp403
g81
I3
ssg82
g397
sg75
(lp404
S''
asbasbasbag68
(g84
g70
NtRp405
(dp406
g73
(dp407
sg82
g296
sg75
(lp408
g68
(g89
g70
NtRp409
(dp410
g73
(dp411
g93
g94
ssg82
g405
sg75
(lp412
S'path'
p413
asbag68
(g89
g70
NtRp414
(dp415
g73
(dp416
g100
g101
ssg82
g405
sg75
(lp417
S':'
asbag68
(g89
g70
NtRp418
(dp419
g73
(dp420
sg82
g405
sg75
(lp421
g68
(g69
g70
NtRp422
(dp423
g73
(dp424
g81
I3
ssg82
g418
sg75
(lp425
S''
asbasbasbag68
(g84
g70
NtRp426
(dp427
g73
(dp428
sg82
g296
sg75
(lp429
g68
(g89
g70
NtRp430
(dp431
g73
(dp432
g93
g94
ssg82
g426
sg75
(lp433
S'secure'
p434
asbag68
(g89
g70
NtRp435
(dp436
g73
(dp437
g100
g101
ssg82
g426
sg75
(lp438
S':'
asbag68
(g89
g70
NtRp439
(dp440
g73
(dp441
sg82
g426
sg75
(lp442
g68
(g69
g70
NtRp443
(dp444
g73
(dp445
g81
I3
ssg82
g439
sg75
(lp446
S''
asbasbasbag68
(g84
g70
NtRp447
(dp448
g73
(dp449
sg82
g296
sg75
(lp450
g68
(g89
g70
NtRp451
(dp452
g73
(dp453
g93
g94
ssg82
g447
sg75
(lp454
S'version'
p455
asbag68
(g89
g70
NtRp456
(dp457
g73
(dp458
g100
g101
ssg82
g447
sg75
(lp459
S':'
asbag68
(g89
g70
NtRp460
(dp461
g73
(dp462
sg82
g447
sg75
(lp463
g68
(g69
g70
NtRp464
(dp465
g73
(dp466
g81
I3
ssg82
g460
sg75
(lp467
S''
asbasbasbasbasbasbasbag68
(g84
g70
NtRp468
(dp469
g73
(dp470
sg82
g271
sg75
(lp471
g68
(g89
g70
NtRp472
(dp473
g73
(dp474
g93
g94
ssg82
g468
sg75
(lp475
S'session_id_admin'
p476
asbag68
(g89
g70
NtRp477
(dp478
g73
(dp479
g100
g101
ssg82
g468
sg75
(lp480
S':'
asbag68
(g89
g70
NtRp481
(dp482
g73
(dp483
sg82
g468
sg75
(lp484
g68
(g69
g70
NtRp485
(dp486
g73
(dp487
g81
I4
ssg82
g481
sg75
(lp488
g68
(g77
g70
NtRp489
(dp490
g73
(dp491
g81
I3
ssg82
Nsg75
(lp492
g68
(g84
g70
NtRp493
(dp494
g73
(dp495
sg82
g489
sg75
(lp496
g68
(g89
g70
NtRp497
(dp498
g73
(dp499
g93
g94
ssg82
g493
sg75
(lp500
g308
asbag68
(g89
g70
NtRp501
(dp502
g73
(dp503
g100
g101
ssg82
g493
sg75
(lp504
S':'
asbag68
(g89
g70
NtRp505
(dp506
g73
(dp507
sg82
g493
sg75
(lp508
g68
(g69
g70
NtRp509
(dp510
g73
(dp511
g81
I3
ssg82
g505
sg75
(lp512
S''
asbasbasbag68
(g84
g70
NtRp513
(dp514
g73
(dp515
sg82
g489
sg75
(lp516
g68
(g89
g70
NtRp517
(dp518
g73
(dp519
g93
g94
ssg82
g513
sg75
(lp520
g329
asbag68
(g89
g70
NtRp521
(dp522
g73
(dp523
g100
g101
ssg82
g513
sg75
(lp524
S':'
asbag68
(g89
g70
NtRp525
(dp526
g73
(dp527
sg82
g513
sg75
(lp528
g68
(g69
g70
NtRp529
(dp530
g73
(dp531
g81
I3
ssg82
g525
sg75
(lp532
S''
asbasbasbag68
(g84
g70
NtRp533
(dp534
g73
(dp535
sg82
g489
sg75
(lp536
g68
(g89
g70
NtRp537
(dp538
g73
(dp539
g93
g94
ssg82
g533
sg75
(lp540
g350
asbag68
(g89
g70
NtRp541
(dp542
g73
(dp543
g100
g101
ssg82
g533
sg75
(lp544
S':'
asbag68
(g89
g70
NtRp545
(dp546
g73
(dp547
sg82
g533
sg75
(lp548
g68
(g69
g70
NtRp549
(dp550
g73
(dp551
g81
I3
ssg82
g545
sg75
(lp552
S''
asbasbasbag68
(g84
g70
NtRp553
(dp554
g73
(dp555
sg82
g489
sg75
(lp556
g68
(g89
g70
NtRp557
(dp558
g73
(dp559
g93
g94
ssg82
g553
sg75
(lp560
g371
asbag68
(g89
g70
NtRp561
(dp562
g73
(dp563
g100
g101
ssg82
g553
sg75
(lp564
S':'
asbag68
(g89
g70
NtRp565
(dp566
g73
(dp567
sg82
g553
sg75
(lp568
g68
(g69
g70
NtRp569
(dp570
g73
(dp571
g81
I3
ssg82
g565
sg75
(lp572
S''
asbasbasbag68
(g84
g70
NtRp573
(dp574
g73
(dp575
sg82
g489
sg75
(lp576
g68
(g89
g70
NtRp577
(dp578
g73
(dp579
g93
g94
ssg82
g573
sg75
(lp580
g392
asbag68
(g89
g70
NtRp581
(dp582
g73
(dp583
g100
g101
ssg82
g573
sg75
(lp584
S':'
asbag68
(g89
g70
NtRp585
(dp586
g73
(dp587
sg82
g573
sg75
(lp588
g68
(g69
g70
NtRp589
(dp590
g73
(dp591
g81
I3
ssg82
g585
sg75
(lp592
S''
asbasbasbag68
(g84
g70
NtRp593
(dp594
g73
(dp595
sg82
g489
sg75
(lp596
g68
(g89
g70
NtRp597
(dp598
g73
(dp599
g93
g94
ssg82
g593
sg75
(lp600
g413
asbag68
(g89
g70
NtRp601
(dp602
g73
(dp603
g100
g101
ssg82
g593
sg75
(lp604
S':'
asbag68
(g89
g70
NtRp605
(dp606
g73
(dp607
sg82
g593
sg75
(lp608
g68
(g69
g70
NtRp609
(dp610
g73
(dp611
g81
I3
ssg82
g605
sg75
(lp612
S''
asbasbasbag68
(g84
g70
NtRp613
(dp614
g73
(dp615
sg82
g489
sg75
(lp616
g68
(g89
g70
NtRp617
(dp618
g73
(dp619
g93
g94
ssg82
g613
sg75
(lp620
g434
asbag68
(g89
g70
NtRp621
(dp622
g73
(dp623
g100
g101
ssg82
g613
sg75
(lp624
S':'
asbag68
(g89
g70
NtRp625
(dp626
g73
(dp627
sg82
g613
sg75
(lp628
g68
(g69
g70
NtRp629
(dp630
g73
(dp631
g81
I3
ssg82
g625
sg75
(lp632
S''
asbasbasbag68
(g84
g70
NtRp633
(dp634
g73
(dp635
sg82
g489
sg75
(lp636
g68
(g89
g70
NtRp637
(dp638
g73
(dp639
g93
g94
ssg82
g633
sg75
(lp640
g455
asbag68
(g89
g70
NtRp641
(dp642
g73
(dp643
g100
g101
ssg82
g633
sg75
(lp644
S':'
asbag68
(g89
g70
NtRp645
(dp646
g73
(dp647
sg82
g633
sg75
(lp648
g68
(g69
g70
NtRp649
(dp650
g73
(dp651
g81
I3
ssg82
g645
sg75
(lp652
S''
asbasbasbasbasbasbasbag68
(g84
g70
NtRp653
(dp654
g73
(dp655
sg82
g271
sg75
(lp656
g68
(g89
g70
NtRp657
(dp658
g73
(dp659
g93
g94
ssg82
g653
sg75
(lp660
S'session_id_datos'
p661
asbag68
(g89
g70
NtRp662
(dp663
g73
(dp664
g100
g101
ssg82
g653
sg75
(lp665
S':'
asbag68
(g89
g70
NtRp666
(dp667
g73
(dp668
sg82
g653
sg75
(lp669
g68
(g69
g70
NtRp670
(dp671
g73
(dp672
g81
I4
ssg82
g666
sg75
(lp673
g68
(g77
g70
NtRp674
(dp675
g73
(dp676
g81
I3
ssg82
Nsg75
(lp677
g68
(g84
g70
NtRp678
(dp679
g73
(dp680
sg82
g674
sg75
(lp681
g68
(g89
g70
NtRp682
(dp683
g73
(dp684
g93
g94
ssg82
g678
sg75
(lp685
g308
asbag68
(g89
g70
NtRp686
(dp687
g73
(dp688
g100
g101
ssg82
g678
sg75
(lp689
S':'
asbag68
(g89
g70
NtRp690
(dp691
g73
(dp692
sg82
g678
sg75
(lp693
g68
(g69
g70
NtRp694
(dp695
g73
(dp696
g81
I3
ssg82
g690
sg75
(lp697
S''
asbasbasbag68
(g84
g70
NtRp698
(dp699
g73
(dp700
sg82
g674
sg75
(lp701
g68
(g89
g70
NtRp702
(dp703
g73
(dp704
g93
g94
ssg82
g698
sg75
(lp705
g329
asbag68
(g89
g70
NtRp706
(dp707
g73
(dp708
g100
g101
ssg82
g698
sg75
(lp709
S':'
asbag68
(g89
g70
NtRp710
(dp711
g73
(dp712
sg82
g698
sg75
(lp713
g68
(g69
g70
NtRp714
(dp715
g73
(dp716
g81
I3
ssg82
g710
sg75
(lp717
S''
asbasbasbag68
(g84
g70
NtRp718
(dp719
g73
(dp720
sg82
g674
sg75
(lp721
g68
(g89
g70
NtRp722
(dp723
g73
(dp724
g93
g94
ssg82
g718
sg75
(lp725
g350
asbag68
(g89
g70
NtRp726
(dp727
g73
(dp728
g100
g101
ssg82
g718
sg75
(lp729
S':'
asbag68
(g89
g70
NtRp730
(dp731
g73
(dp732
sg82
g718
sg75
(lp733
g68
(g69
g70
NtRp734
(dp735
g73
(dp736
g81
I3
ssg82
g730
sg75
(lp737
S''
asbasbasbag68
(g84
g70
NtRp738
(dp739
g73
(dp740
sg82
g674
sg75
(lp741
g68
(g89
g70
NtRp742
(dp743
g73
(dp744
g93
g94
ssg82
g738
sg75
(lp745
g371
asbag68
(g89
g70
NtRp746
(dp747
g73
(dp748
g100
g101
ssg82
g738
sg75
(lp749
S':'
asbag68
(g89
g70
NtRp750
(dp751
g73
(dp752
sg82
g738
sg75
(lp753
g68
(g69
g70
NtRp754
(dp755
g73
(dp756
g81
I3
ssg82
g750
sg75
(lp757
S''
asbasbasbag68
(g84
g70
NtRp758
(dp759
g73
(dp760
sg82
g674
sg75
(lp761
g68
(g89
g70
NtRp762
(dp763
g73
(dp764
g93
g94
ssg82
g758
sg75
(lp765
g392
asbag68
(g89
g70
NtRp766
(dp767
g73
(dp768
g100
g101
ssg82
g758
sg75
(lp769
S':'
asbag68
(g89
g70
NtRp770
(dp771
g73
(dp772
sg82
g758
sg75
(lp773
g68
(g69
g70
NtRp774
(dp775
g73
(dp776
g81
I3
ssg82
g770
sg75
(lp777
S''
asbasbasbag68
(g84
g70
NtRp778
(dp779
g73
(dp780
sg82
g674
sg75
(lp781
g68
(g89
g70
NtRp782
(dp783
g73
(dp784
g93
g94
ssg82
g778
sg75
(lp785
g413
asbag68
(g89
g70
NtRp786
(dp787
g73
(dp788
g100
g101
ssg82
g778
sg75
(lp789
S':'
asbag68
(g89
g70
NtRp790
(dp791
g73
(dp792
sg82
g778
sg75
(lp793
g68
(g69
g70
NtRp794
(dp795
g73
(dp796
g81
I3
ssg82
g790
sg75
(lp797
S''
asbasbasbag68
(g84
g70
NtRp798
(dp799
g73
(dp800
sg82
g674
sg75
(lp801
g68
(g89
g70
NtRp802
(dp803
g73
(dp804
g93
g94
ssg82
g798
sg75
(lp805
g434
asbag68
(g89
g70
NtRp806
(dp807
g73
(dp808
g100
g101
ssg82
g798
sg75
(lp809
S':'
asbag68
(g89
g70
NtRp810
(dp811
g73
(dp812
sg82
g798
sg75
(lp813
g68
(g69
g70
NtRp814
(dp815
g73
(dp816
g81
I3
ssg82
g810
sg75
(lp817
S''
asbasbasbag68
(g84
g70
NtRp818
(dp819
g73
(dp820
sg82
g674
sg75
(lp821
g68
(g89
g70
NtRp822
(dp823
g73
(dp824
g93
g94
ssg82
g818
sg75
(lp825
g455
asbag68
(g89
g70
NtRp826
(dp827
g73
(dp828
g100
g101
ssg82
g818
sg75
(lp829
S':'
asbag68
(g89
g70
NtRp830
(dp831
g73
(dp832
sg82
g818
sg75
(lp833
g68
(g69
g70
NtRp834
(dp835
g73
(dp836
g81
I3
ssg82
g830
sg75
(lp837
S''
asbasbasbasbasbasbasbag68
(g84
g70
NtRp838
(dp839
g73
(dp840
sg82
g271
sg75
(lp841
g68
(g89
g70
NtRp842
(dp843
g73
(dp844
g93
g94
ssg82
g838
sg75
(lp845
S'session_id_my_web'
p846
asbag68
(g89
g70
NtRp847
(dp848
g73
(dp849
g100
g101
ssg82
g838
sg75
(lp850
S':'
asbag68
(g89
g70
NtRp851
(dp852
g73
(dp853
sg82
g838
sg75
(lp854
g68
(g69
g70
NtRp855
(dp856
g73
(dp857
g81
I4
ssg82
g851
sg75
(lp858
g68
(g77
g70
NtRp859
(dp860
g73
(dp861
g81
I3
ssg82
Nsg75
(lp862
g68
(g84
g70
NtRp863
(dp864
g73
(dp865
sg82
g859
sg75
(lp866
g68
(g89
g70
NtRp867
(dp868
g73
(dp869
g93
g94
ssg82
g863
sg75
(lp870
g308
asbag68
(g89
g70
NtRp871
(dp872
g73
(dp873
g100
g101
ssg82
g863
sg75
(lp874
S':'
asbag68
(g89
g70
NtRp875
(dp876
g73
(dp877
sg82
g863
sg75
(lp878
g68
(g69
g70
NtRp879
(dp880
g73
(dp881
g81
I3
ssg82
g875
sg75
(lp882
S''
asbasbasbag68
(g84
g70
NtRp883
(dp884
g73
(dp885
sg82
g859
sg75
(lp886
g68
(g89
g70
NtRp887
(dp888
g73
(dp889
g93
g94
ssg82
g883
sg75
(lp890
g329
asbag68
(g89
g70
NtRp891
(dp892
g73
(dp893
g100
g101
ssg82
g883
sg75
(lp894
S':'
asbag68
(g89
g70
NtRp895
(dp896
g73
(dp897
sg82
g883
sg75
(lp898
g68
(g69
g70
NtRp899
(dp900
g73
(dp901
g81
I3
ssg82
g895
sg75
(lp902
S''
asbasbasbag68
(g84
g70
NtRp903
(dp904
g73
(dp905
sg82
g859
sg75
(lp906
g68
(g89
g70
NtRp907
(dp908
g73
(dp909
g93
g94
ssg82
g903
sg75
(lp910
g350
asbag68
(g89
g70
NtRp911
(dp912
g73
(dp913
g100
g101
ssg82
g903
sg75
(lp914
S':'
asbag68
(g89
g70
NtRp915
(dp916
g73
(dp917
sg82
g903
sg75
(lp918
g68
(g69
g70
NtRp919
(dp920
g73
(dp921
g81
I3
ssg82
g915
sg75
(lp922
S''
asbasbasbag68
(g84
g70
NtRp923
(dp924
g73
(dp925
sg82
g859
sg75
(lp926
g68
(g89
g70
NtRp927
(dp928
g73
(dp929
g93
g94
ssg82
g923
sg75
(lp930
g371
asbag68
(g89
g70
NtRp931
(dp932
g73
(dp933
g100
g101
ssg82
g923
sg75
(lp934
S':'
asbag68
(g89
g70
NtRp935
(dp936
g73
(dp937
sg82
g923
sg75
(lp938
g68
(g69
g70
NtRp939
(dp940
g73
(dp941
g81
I3
ssg82
g935
sg75
(lp942
S''
asbasbasbag68
(g84
g70
NtRp943
(dp944
g73
(dp945
sg82
g859
sg75
(lp946
g68
(g89
g70
NtRp947
(dp948
g73
(dp949
g93
g94
ssg82
g943
sg75
(lp950
g392
asbag68
(g89
g70
NtRp951
(dp952
g73
(dp953
g100
g101
ssg82
g943
sg75
(lp954
S':'
asbag68
(g89
g70
NtRp955
(dp956
g73
(dp957
sg82
g943
sg75
(lp958
g68
(g69
g70
NtRp959
(dp960
g73
(dp961
g81
I3
ssg82
g955
sg75
(lp962
S''
asbasbasbag68
(g84
g70
NtRp963
(dp964
g73
(dp965
sg82
g859
sg75
(lp966
g68
(g89
g70
NtRp967
(dp968
g73
(dp969
g93
g94
ssg82
g963
sg75
(lp970
g413
asbag68
(g89
g70
NtRp971
(dp972
g73
(dp973
g100
g101
ssg82
g963
sg75
(lp974
S':'
asbag68
(g89
g70
NtRp975
(dp976
g73
(dp977
sg82
g963
sg75
(lp978
g68
(g69
g70
NtRp979
(dp980
g73
(dp981
g81
I3
ssg82
g975
sg75
(lp982
S''
asbasbasbag68
(g84
g70
NtRp983
(dp984
g73
(dp985
sg82
g859
sg75
(lp986
g68
(g89
g70
NtRp987
(dp988
g73
(dp989
g93
g94
ssg82
g983
sg75
(lp990
g434
asbag68
(g89
g70
NtRp991
(dp992
g73
(dp993
g100
g101
ssg82
g983
sg75
(lp994
S':'
asbag68
(g89
g70
NtRp995
(dp996
g73
(dp997
sg82
g983
sg75
(lp998
g68
(g69
g70
NtRp999
(dp1000
g73
(dp1001
g81
I3
ssg82
g995
sg75
(lp1002
S''
asbasbasbag68
(g84
g70
NtRp1003
(dp1004
g73
(dp1005
sg82
g859
sg75
(lp1006
g68
(g89
g70
NtRp1007
(dp1008
g73
(dp1009
g93
g94
ssg82
g1003
sg75
(lp1010
g455
asbag68
(g89
g70
NtRp1011
(dp1012
g73
(dp1013
g100
g101
ssg82
g1003
sg75
(lp1014
S':'
asbag68
(g89
g70
NtRp1015
(dp1016
g73
(dp1017
sg82
g1003
sg75
(lp1018
g68
(g69
g70
NtRp1019
(dp1020
g73
(dp1021
g81
I3
ssg82
g1015
sg75
(lp1022
S''
asbasbasbasbasbasbasbag68
(g84
g70
NtRp1023
(dp1024
g73
(dp1025
sg82
g271
sg75
(lp1026
g68
(g89
g70
NtRp1027
(dp1028
g73
(dp1029
g93
g94
ssg82
g1023
sg75
(lp1030
S'session_id_welcome'
p1031
asbag68
(g89
g70
NtRp1032
(dp1033
g73
(dp1034
g100
g101
ssg82
g1023
sg75
(lp1035
S':'
asbag68
(g89
g70
NtRp1036
(dp1037
g73
(dp1038
sg82
g1023
sg75
(lp1039
g68
(g69
g70
NtRp1040
(dp1041
g73
(dp1042
g81
I4
ssg82
g1036
sg75
(lp1043
g68
(g77
g70
NtRp1044
(dp1045
g73
(dp1046
g81
I3
ssg82
Nsg75
(lp1047
g68
(g84
g70
NtRp1048
(dp1049
g73
(dp1050
sg82
g1044
sg75
(lp1051
g68
(g89
g70
NtRp1052
(dp1053
g73
(dp1054
g93
g94
ssg82
g1048
sg75
(lp1055
g308
asbag68
(g89
g70
NtRp1056
(dp1057
g73
(dp1058
g100
g101
ssg82
g1048
sg75
(lp1059
S':'
asbag68
(g89
g70
NtRp1060
(dp1061
g73
(dp1062
sg82
g1048
sg75
(lp1063
g68
(g69
g70
NtRp1064
(dp1065
g73
(dp1066
g81
I3
ssg82
g1060
sg75
(lp1067
S''
asbasbasbag68
(g84
g70
NtRp1068
(dp1069
g73
(dp1070
sg82
g1044
sg75
(lp1071
g68
(g89
g70
NtRp1072
(dp1073
g73
(dp1074
g93
g94
ssg82
g1068
sg75
(lp1075
g329
asbag68
(g89
g70
NtRp1076
(dp1077
g73
(dp1078
g100
g101
ssg82
g1068
sg75
(lp1079
S':'
asbag68
(g89
g70
NtRp1080
(dp1081
g73
(dp1082
sg82
g1068
sg75
(lp1083
g68
(g69
g70
NtRp1084
(dp1085
g73
(dp1086
g81
I3
ssg82
g1080
sg75
(lp1087
S''
asbasbasbag68
(g84
g70
NtRp1088
(dp1089
g73
(dp1090
sg82
g1044
sg75
(lp1091
g68
(g89
g70
NtRp1092
(dp1093
g73
(dp1094
g93
g94
ssg82
g1088
sg75
(lp1095
g350
asbag68
(g89
g70
NtRp1096
(dp1097
g73
(dp1098
g100
g101
ssg82
g1088
sg75
(lp1099
S':'
asbag68
(g89
g70
NtRp1100
(dp1101
g73
(dp1102
sg82
g1088
sg75
(lp1103
g68
(g69
g70
NtRp1104
(dp1105
g73
(dp1106
g81
I3
ssg82
g1100
sg75
(lp1107
S''
asbasbasbag68
(g84
g70
NtRp1108
(dp1109
g73
(dp1110
sg82
g1044
sg75
(lp1111
g68
(g89
g70
NtRp1112
(dp1113
g73
(dp1114
g93
g94
ssg82
g1108
sg75
(lp1115
g371
asbag68
(g89
g70
NtRp1116
(dp1117
g73
(dp1118
g100
g101
ssg82
g1108
sg75
(lp1119
S':'
asbag68
(g89
g70
NtRp1120
(dp1121
g73
(dp1122
sg82
g1108
sg75
(lp1123
g68
(g69
g70
NtRp1124
(dp1125
g73
(dp1126
g81
I3
ssg82
g1120
sg75
(lp1127
S''
asbasbasbag68
(g84
g70
NtRp1128
(dp1129
g73
(dp1130
sg82
g1044
sg75
(lp1131
g68
(g89
g70
NtRp1132
(dp1133
g73
(dp1134
g93
g94
ssg82
g1128
sg75
(lp1135
g392
asbag68
(g89
g70
NtRp1136
(dp1137
g73
(dp1138
g100
g101
ssg82
g1128
sg75
(lp1139
S':'
asbag68
(g89
g70
NtRp1140
(dp1141
g73
(dp1142
sg82
g1128
sg75
(lp1143
g68
(g69
g70
NtRp1144
(dp1145
g73
(dp1146
g81
I3
ssg82
g1140
sg75
(lp1147
S''
asbasbasbag68
(g84
g70
NtRp1148
(dp1149
g73
(dp1150
sg82
g1044
sg75
(lp1151
g68
(g89
g70
NtRp1152
(dp1153
g73
(dp1154
g93
g94
ssg82
g1148
sg75
(lp1155
g413
asbag68
(g89
g70
NtRp1156
(dp1157
g73
(dp1158
g100
g101
ssg82
g1148
sg75
(lp1159
S':'
asbag68
(g89
g70
NtRp1160
(dp1161
g73
(dp1162
sg82
g1148
sg75
(lp1163
g68
(g69
g70
NtRp1164
(dp1165
g73
(dp1166
g81
I3
ssg82
g1160
sg75
(lp1167
S''
asbasbasbag68
(g84
g70
NtRp1168
(dp1169
g73
(dp1170
sg82
g1044
sg75
(lp1171
g68
(g89
g70
NtRp1172
(dp1173
g73
(dp1174
g93
g94
ssg82
g1168
sg75
(lp1175
g434
asbag68
(g89
g70
NtRp1176
(dp1177
g73
(dp1178
g100
g101
ssg82
g1168
sg75
(lp1179
S':'
asbag68
(g89
g70
NtRp1180
(dp1181
g73
(dp1182
sg82
g1168
sg75
(lp1183
g68
(g69
g70
NtRp1184
(dp1185
g73
(dp1186
g81
I3
ssg82
g1180
sg75
(lp1187
S''
asbasbasbag68
(g84
g70
NtRp1188
(dp1189
g73
(dp1190
sg82
g1044
sg75
(lp1191
g68
(g89
g70
NtRp1192
(dp1193
g73
(dp1194
g93
g94
ssg82
g1188
sg75
(lp1195
g455
asbag68
(g89
g70
NtRp1196
(dp1197
g73
(dp1198
g100
g101
ssg82
g1188
sg75
(lp1199
S':'
asbag68
(g89
g70
NtRp1200
(dp1201
g73
(dp1202
sg82
g1188
sg75
(lp1203
g68
(g69
g70
NtRp1204
(dp1205
g73
(dp1206
g81
I3
ssg82
g1200
sg75
(lp1207
S''
asbasbasbasbasbasbasbasbasbasbasbag68
(g84
g70
NtRp1208
(dp1209
g73
(dp1210
sg82
g78
sg75
(lp1211
g68
(g89
g70
NtRp1212
(dp1213
g73
(dp1214
g93
g94
ssg82
g1208
sg75
(lp1215
S'env'
p1216
asbag68
(g89
g70
NtRp1217
(dp1218
g73
(dp1219
g100
g101
ssg82
g1208
sg75
(lp1220
S':'
asbag68
(g89
g70
NtRp1221
(dp1222
g73
(dp1223
sg82
g1208
sg75
(lp1224
g68
(g69
g70
NtRp1225
(dp1226
g73
(dp1227
g81
I5
ssg82
g1221
sg75
(lp1228
g68
(g77
g70
NtRp1229
(dp1230
g73
(dp1231
g81
I4
ssg82
Nsg75
(lp1232
g68
(g84
g70
NtRp1233
(dp1234
g73
(dp1235
sg82
g1229
sg75
(lp1236
g68
(g89
g70
NtRp1237
(dp1238
g73
(dp1239
g93
g94
ssg82
g1233
sg75
(lp1240
S'app_folders'
p1241
asbag68
(g89
g70
NtRp1242
(dp1243
g73
(dp1244
g100
g101
ssg82
g1233
sg75
(lp1245
S':'
asbag68
(g89
g70
NtRp1246
(dp1247
g73
(dp1248
sg82
g1233
sg75
(lp1249
g68
(g69
g70
NtRp1250
(dp1251
g73
(dp1252
g81
I4
ssg82
g1246
sg75
(lp1253
S"set(['/home/alumno/web2py/applications/admin/', '/home/alumno/web2py/applications/my_web/', '/home/alumno/web2py/applications/examples/', '/home/alumno/web2py/applications/welcome/', '/home/alumno/web2py/applications/datos/'])"
p1254
asbasbasbag68
(g84
g70
NtRp1255
(dp1256
g73
(dp1257
sg82
g1229
sg75
(lp1258
g68
(g89
g70
NtRp1259
(dp1260
g73
(dp1261
g93
g94
ssg82
g1255
sg75
(lp1262
S'applications_parent'
p1263
asbag68
(g89
g70
NtRp1264
(dp1265
g73
(dp1266
g100
g101
ssg82
g1255
sg75
(lp1267
S':'
asbag68
(g89
g70
NtRp1268
(dp1269
g73
(dp1270
sg82
g1255
sg75
(lp1271
g68
(g69
g70
NtRp1272
(dp1273
g73
(dp1274
g81
I4
ssg82
g1268
sg75
(lp1275
S'/home/alumno/web2py'
p1276
asbasbasbag68
(g84
g70
NtRp1277
(dp1278
g73
(dp1279
sg82
g1229
sg75
(lp1280
g68
(g89
g70
NtRp1281
(dp1282
g73
(dp1283
g93
g94
ssg82
g1277
sg75
(lp1284
S'cmd_args'
p1285
asbag68
(g89
g70
NtRp1286
(dp1287
g73
(dp1288
g100
g101
ssg82
g1277
sg75
(lp1289
S':'
asbag68
(g89
g70
NtRp1290
(dp1291
g73
(dp1292
sg82
g1277
sg75
(lp1293
g68
(g69
g70
NtRp1294
(dp1295
g73
(dp1296
g81
I4
ssg82
g1290
sg75
(lp1297
g68
(g77
g70
NtRp1298
(dp1299
g73
(dp1300
g81
I3
ssg82
Nsg75
(lp1301
sbasbasbasbag68
(g84
g70
NtRp1302
(dp1303
g73
(dp1304
sg82
g1229
sg75
(lp1305
g68
(g89
g70
NtRp1306
(dp1307
g73
(dp1308
g93
g94
ssg82
g1302
sg75
(lp1309
S'cmd_options'
p1310
asbag68
(g89
g70
NtRp1311
(dp1312
g73
(dp1313
g100
g101
ssg82
g1302
sg75
(lp1314
S':'
asbag68
(g89
g70
NtRp1315
(dp1316
g73
(dp1317
sg82
g1302
sg75
(lp1318
g68
(g69
g70
NtRp1319
(dp1320
g73
(dp1321
g81
I4
ssg82
g1315
sg75
(lp1322
S"<Values at 0x98648ac: {'verbose': False, 'ip': '127.0.0.1', 'shutdown_timeout': 5, 'taskbar': False, 'port': 8000, 'maxthreads': None, 'softcron': False, 'server_name': 'ubuntu-dev', 'bpython': False, 'nogui': False, 'nocron': False, 'extcron': False, 'debuglevel': 30, 'test': None, 'folder': '/home/alumno/web2py', 'config': '', 'import_models': False, 'winservice': '', 'shell': None, 'run': '', 'log_filename': 'httpserver.log', 'args': [''], 'profiler_filename': None, 'ssl_private_key': '', 'password': 'conti', 'request_queue_size': 5, 'ssl_certificate': '', 'cronjob': False, 'plain': False, 'quiet': False, 'interfaces': None, 'minthreads': None, 'timeout': 10, 'numthreads': None, 'nobanner': False, 'pid_filename': 'httpserver.pid'}>"
p1323
asbasbasbag68
(g84
g70
NtRp1324
(dp1325
g73
(dp1326
sg82
g1229
sg75
(lp1327
g68
(g89
g70
NtRp1328
(dp1329
g73
(dp1330
g93
g94
ssg82
g1324
sg75
(lp1331
S'db_sessions'
p1332
asbag68
(g89
g70
NtRp1333
(dp1334
g73
(dp1335
g100
g101
ssg82
g1324
sg75
(lp1336
S':'
asbag68
(g89
g70
NtRp1337
(dp1338
g73
(dp1339
sg82
g1324
sg75
(lp1340
g68
(g69
g70
NtRp1341
(dp1342
g73
(dp1343
g81
I4
ssg82
g1337
sg75
(lp1344
S'set([])'
p1345
asbasbasbag68
(g84
g70
NtRp1346
(dp1347
g73
(dp1348
sg82
g1229
sg75
(lp1349
g68
(g89
g70
NtRp1350
(dp1351
g73
(dp1352
g93
g94
ssg82
g1346
sg75
(lp1353
S'debugging'
p1354
asbag68
(g89
g70
NtRp1355
(dp1356
g73
(dp1357
g100
g101
ssg82
g1346
sg75
(lp1358
S':'
asbag68
(g89
g70
NtRp1359
(dp1360
g73
(dp1361
sg82
g1346
sg75
(lp1362
g68
(g69
g70
NtRp1363
(dp1364
g73
(dp1365
g81
I4
ssg82
g1359
sg75
(lp1366
g111
asbasbasbag68
(g84
g70
NtRp1367
(dp1368
g73
(dp1369
sg82
g1229
sg75
(lp1370
g68
(g89
g70
NtRp1371
(dp1372
g73
(dp1373
g93
g94
ssg82
g1367
sg75
(lp1374
S'gluon_parent'
p1375
asbag68
(g89
g70
NtRp1376
(dp1377
g73
(dp1378
g100
g101
ssg82
g1367
sg75
(lp1379
S':'
asbag68
(g89
g70
NtRp1380
(dp1381
g73
(dp1382
sg82
g1367
sg75
(lp1383
g68
(g69
g70
NtRp1384
(dp1385
g73
(dp1386
g81
I4
ssg82
g1380
sg75
(lp1387
S'/home/alumno/web2py'
p1388
asbasbasbag68
(g84
g70
NtRp1389
(dp1390
g73
(dp1391
sg82
g1229
sg75
(lp1392
g68
(g89
g70
NtRp1393
(dp1394
g73
(dp1395
g93
g94
ssg82
g1389
sg75
(lp1396
S'http_accept'
p1397
asbag68
(g89
g70
NtRp1398
(dp1399
g73
(dp1400
g100
g101
ssg82
g1389
sg75
(lp1401
S':'
asbag68
(g89
g70
NtRp1402
(dp1403
g73
(dp1404
sg82
g1389
sg75
(lp1405
g68
(g69
g70
NtRp1406
(dp1407
g73
(dp1408
g81
I4
ssg82
g1402
sg75
(lp1409
S'text/html,application/xhtml+xml,application/xml;q=0.9,*/*;q=0.8'
p1410
asbasbasbag68
(g84
g70
NtRp1411
(dp1412
g73
(dp1413
sg82
g1229
sg75
(lp1414
g68
(g89
g70
NtRp1415
(dp1416
g73
(dp1417
g93
g94
ssg82
g1411
sg75
(lp1418
S'http_accept_charset'
p1419
asbag68
(g89
g70
NtRp1420
(dp1421
g73
(dp1422
g100
g101
ssg82
g1411
sg75
(lp1423
S':'
asbag68
(g89
g70
NtRp1424
(dp1425
g73
(dp1426
sg82
g1411
sg75
(lp1427
g68
(g69
g70
NtRp1428
(dp1429
g73
(dp1430
g81
I4
ssg82
g1424
sg75
(lp1431
S'ISO-8859-1,utf-8;q=0.7,*;q=0.7'
p1432
asbasbasbag68
(g84
g70
NtRp1433
(dp1434
g73
(dp1435
sg82
g1229
sg75
(lp1436
g68
(g89
g70
NtRp1437
(dp1438
g73
(dp1439
g93
g94
ssg82
g1433
sg75
(lp1440
S'http_accept_encoding'
p1441
asbag68
(g89
g70
NtRp1442
(dp1443
g73
(dp1444
g100
g101
ssg82
g1433
sg75
(lp1445
S':'
asbag68
(g89
g70
NtRp1446
(dp1447
g73
(dp1448
sg82
g1433
sg75
(lp1449
g68
(g69
g70
NtRp1450
(dp1451
g73
(dp1452
g81
I4
ssg82
g1446
sg75
(lp1453
S'gzip, deflate'
p1454
asbasbasbag68
(g84
g70
NtRp1455
(dp1456
g73
(dp1457
sg82
g1229
sg75
(lp1458
g68
(g89
g70
NtRp1459
(dp1460
g73
(dp1461
g93
g94
ssg82
g1455
sg75
(lp1462
S'http_accept_language'
p1463
asbag68
(g89
g70
NtRp1464
(dp1465
g73
(dp1466
g100
g101
ssg82
g1455
sg75
(lp1467
S':'
asbag68
(g89
g70
NtRp1468
(dp1469
g73
(dp1470
sg82
g1455
sg75
(lp1471
g68
(g69
g70
NtRp1472
(dp1473
g73
(dp1474
g81
I4
ssg82
g1468
sg75
(lp1475
S'es-ar,es;q=0.8,en-us;q=0.5,en;q=0.3'
p1476
asbasbasbag68
(g84
g70
NtRp1477
(dp1478
g73
(dp1479
sg82
g1229
sg75
(lp1480
g68
(g89
g70
NtRp1481
(dp1482
g73
(dp1483
g93
g94
ssg82
g1477
sg75
(lp1484
S'http_cache_control'
p1485
asbag68
(g89
g70
NtRp1486
(dp1487
g73
(dp1488
g100
g101
ssg82
g1477
sg75
(lp1489
S':'
asbag68
(g89
g70
NtRp1490
(dp1491
g73
(dp1492
sg82
g1477
sg75
(lp1493
g68
(g69
g70
NtRp1494
(dp1495
g73
(dp1496
g81
I4
ssg82
g1490
sg75
(lp1497
S'max-age=0'
p1498
asbasbasbag68
(g84
g70
NtRp1499
(dp1500
g73
(dp1501
sg82
g1229
sg75
(lp1502
g68
(g89
g70
NtRp1503
(dp1504
g73
(dp1505
g93
g94
ssg82
g1499
sg75
(lp1506
S'http_connection'
p1507
asbag68
(g89
g70
NtRp1508
(dp1509
g73
(dp1510
g100
g101
ssg82
g1499
sg75
(lp1511
S':'
asbag68
(g89
g70
NtRp1512
(dp1513
g73
(dp1514
sg82
g1499
sg75
(lp1515
g68
(g69
g70
NtRp1516
(dp1517
g73
(dp1518
g81
I4
ssg82
g1512
sg75
(lp1519
S'keep-alive'
p1520
asbasbasbag68
(g84
g70
NtRp1521
(dp1522
g73
(dp1523
sg82
g1229
sg75
(lp1524
g68
(g89
g70
NtRp1525
(dp1526
g73
(dp1527
g93
g94
ssg82
g1521
sg75
(lp1528
S'http_cookie'
p1529
asbag68
(g89
g70
NtRp1530
(dp1531
g73
(dp1532
g100
g101
ssg82
g1521
sg75
(lp1533
S':'
asbag68
(g89
g70
NtRp1534
(dp1535
g73
(dp1536
sg82
g1521
sg75
(lp1537
g68
(g69
g70
NtRp1538
(dp1539
g73
(dp1540
g81
I4
ssg82
g1534
sg75
(lp1541
S'session_id_welcome=127.0.0.1-9d762582-aeab-478d-b2b3-d1c071f4ad01; session_id_admin=127.0.0.1-f292cc01-f792-44fe-abe4-b2667851a938; adminLanguage=es-es; session_id_my_web=127.0.0.1-47c190eb-acb3-4e98-b30b-5e2f6df99186; session_id_datos=127.0.0.1-db62c583-5264-4eba-ba24-7cb87b43795a'
p1542
asbasbasbag68
(g84
g70
NtRp1543
(dp1544
g73
(dp1545
sg82
g1229
sg75
(lp1546
g68
(g89
g70
NtRp1547
(dp1548
g73
(dp1549
g93
g94
ssg82
g1543
sg75
(lp1550
S'http_host'
p1551
asbag68
(g89
g70
NtRp1552
(dp1553
g73
(dp1554
g100
g101
ssg82
g1543
sg75
(lp1555
S':'
asbag68
(g89
g70
NtRp1556
(dp1557
g73
(dp1558
sg82
g1543
sg75
(lp1559
g68
(g69
g70
NtRp1560
(dp1561
g73
(dp1562
g81
I4
ssg82
g1556
sg75
(lp1563
S'127.0.0.1:8000'
p1564
asbasbasbag68
(g84
g70
NtRp1565
(dp1566
g73
(dp1567
sg82
g1229
sg75
(lp1568
g68
(g89
g70
NtRp1569
(dp1570
g73
(dp1571
g93
g94
ssg82
g1565
sg75
(lp1572
S'http_referer'
p1573
asbag68
(g89
g70
NtRp1574
(dp1575
g73
(dp1576
g100
g101
ssg82
g1565
sg75
(lp1577
S':'
asbag68
(g89
g70
NtRp1578
(dp1579
g73
(dp1580
sg82
g1565
sg75
(lp1581
g68
(g69
g70
NtRp1582
(dp1583
g73
(dp1584
g81
I4
ssg82
g1578
sg75
(lp1585
S'http://127.0.0.1:8000/datos/appadmin/index'
p1586
asbasbasbag68
(g84
g70
NtRp1587
(dp1588
g73
(dp1589
sg82
g1229
sg75
(lp1590
g68
(g89
g70
NtRp1591
(dp1592
g73
(dp1593
g93
g94
ssg82
g1587
sg75
(lp1594
S'http_user_agent'
p1595
asbag68
(g89
g70
NtRp1596
(dp1597
g73
(dp1598
g100
g101
ssg82
g1587
sg75
(lp1599
S':'
asbag68
(g89
g70
NtRp1600
(dp1601
g73
(dp1602
sg82
g1587
sg75
(lp1603
g68
(g69
g70
NtRp1604
(dp1605
g73
(dp1606
g81
I4
ssg82
g1600
sg75
(lp1607
S'Mozilla/5.0 (X11; Linux i686; rv:6.0) Gecko/20100101 Firefox/6.0'
p1608
asbasbasbag68
(g84
g70
NtRp1609
(dp1610
g73
(dp1611
sg82
g1229
sg75
(lp1612
g68
(g89
g70
NtRp1613
(dp1614
g73
(dp1615
g93
g94
ssg82
g1609
sg75
(lp1616
S'is_jython'
p1617
asbag68
(g89
g70
NtRp1618
(dp1619
g73
(dp1620
g100
g101
ssg82
g1609
sg75
(lp1621
S':'
asbag68
(g89
g70
NtRp1622
(dp1623
g73
(dp1624
sg82
g1609
sg75
(lp1625
g68
(g69
g70
NtRp1626
(dp1627
g73
(dp1628
g81
I4
ssg82
g1622
sg75
(lp1629
g111
asbasbasbag68
(g84
g70
NtRp1630
(dp1631
g73
(dp1632
sg82
g1229
sg75
(lp1633
g68
(g89
g70
NtRp1634
(dp1635
g73
(dp1636
g93
g94
ssg82
g1630
sg75
(lp1637
S'path_info'
p1638
asbag68
(g89
g70
NtRp1639
(dp1640
g73
(dp1641
g100
g101
ssg82
g1630
sg75
(lp1642
S':'
asbag68
(g89
g70
NtRp1643
(dp1644
g73
(dp1645
sg82
g1630
sg75
(lp1646
g68
(g69
g70
NtRp1647
(dp1648
g73
(dp1649
g81
I4
ssg82
g1643
sg75
(lp1650
S'/datos/appadmin/insert/db/alumno'
p1651
asbasbasbag68
(g84
g70
NtRp1652
(dp1653
g73
(dp1654
sg82
g1229
sg75
(lp1655
g68
(g89
g70
NtRp1656
(dp1657
g73
(dp1658
g93
g94
ssg82
g1652
sg75
(lp1659
S'query_string'
p1660
asbag68
(g89
g70
NtRp1661
(dp1662
g73
(dp1663
g100
g101
ssg82
g1652
sg75
(lp1664
S':'
asbag68
(g89
g70
NtRp1665
(dp1666
g73
(dp1667
sg82
g1652
sg75
(lp1668
g68
(g69
g70
NtRp1669
(dp1670
g73
(dp1671
g81
I4
ssg82
g1665
sg75
(lp1672
S''
asbasbasbag68
(g84
g70
NtRp1673
(dp1674
g73
(dp1675
sg82
g1229
sg75
(lp1676
g68
(g89
g70
NtRp1677
(dp1678
g73
(dp1679
g93
g94
ssg82
g1673
sg75
(lp1680
S'remote_addr'
p1681
asbag68
(g89
g70
NtRp1682
(dp1683
g73
(dp1684
g100
g101
ssg82
g1673
sg75
(lp1685
S':'
asbag68
(g89
g70
NtRp1686
(dp1687
g73
(dp1688
sg82
g1673
sg75
(lp1689
g68
(g69
g70
NtRp1690
(dp1691
g73
(dp1692
g81
I4
ssg82
g1686
sg75
(lp1693
g227
asbasbasbag68
(g84
g70
NtRp1694
(dp1695
g73
(dp1696
sg82
g1229
sg75
(lp1697
g68
(g89
g70
NtRp1698
(dp1699
g73
(dp1700
g93
g94
ssg82
g1694
sg75
(lp1701
S'remote_port'
p1702
asbag68
(g89
g70
NtRp1703
(dp1704
g73
(dp1705
g100
g101
ssg82
g1694
sg75
(lp1706
S':'
asbag68
(g89
g70
NtRp1707
(dp1708
g73
(dp1709
sg82
g1694
sg75
(lp1710
g68
(g69
g70
NtRp1711
(dp1712
g73
(dp1713
g81
I4
ssg82
g1707
sg75
(lp1714
S'41894'
p1715
asbasbasbag68
(g84
g70
NtRp1716
(dp1717
g73
(dp1718
sg82
g1229
sg75
(lp1719
g68
(g89
g70
NtRp1720
(dp1721
g73
(dp1722
g93
g94
ssg82
g1716
sg75
(lp1723
S'request_method'
p1724
asbag68
(g89
g70
NtRp1725
(dp1726
g73
(dp1727
g100
g101
ssg82
g1716
sg75
(lp1728
S':'
asbag68
(g89
g70
NtRp1729
(dp1730
g73
(dp1731
sg82
g1716
sg75
(lp1732
g68
(g69
g70
NtRp1733
(dp1734
g73
(dp1735
g81
I4
ssg82
g1729
sg75
(lp1736
S'GET'
p1737
asbasbasbag68
(g84
g70
NtRp1738
(dp1739
g73
(dp1740
sg82
g1229
sg75
(lp1741
g68
(g89
g70
NtRp1742
(dp1743
g73
(dp1744
g93
g94
ssg82
g1738
sg75
(lp1745
S'script_name'
p1746
asbag68
(g89
g70
NtRp1747
(dp1748
g73
(dp1749
g100
g101
ssg82
g1738
sg75
(lp1750
S':'
asbag68
(g89
g70
NtRp1751
(dp1752
g73
(dp1753
sg82
g1738
sg75
(lp1754
g68
(g69
g70
NtRp1755
(dp1756
g73
(dp1757
g81
I4
ssg82
g1751
sg75
(lp1758
S''
asbasbasbag68
(g84
g70
NtRp1759
(dp1760
g73
(dp1761
sg82
g1229
sg75
(lp1762
g68
(g89
g70
NtRp1763
(dp1764
g73
(dp1765
g93
g94
ssg82
g1759
sg75
(lp1766
S'server_name'
p1767
asbag68
(g89
g70
NtRp1768
(dp1769
g73
(dp1770
g100
g101
ssg82
g1759
sg75
(lp1771
S':'
asbag68
(g89
g70
NtRp1772
(dp1773
g73
(dp1774
sg82
g1759
sg75
(lp1775
g68
(g69
g70
NtRp1776
(dp1777
g73
(dp1778
g81
I4
ssg82
g1772
sg75
(lp1779
S'ubuntu-dev'
p1780
asbasbasbag68
(g84
g70
NtRp1781
(dp1782
g73
(dp1783
sg82
g1229
sg75
(lp1784
g68
(g89
g70
NtRp1785
(dp1786
g73
(dp1787
g93
g94
ssg82
g1781
sg75
(lp1788
S'server_port'
p1789
asbag68
(g89
g70
NtRp1790
(dp1791
g73
(dp1792
g100
g101
ssg82
g1781
sg75
(lp1793
S':'
asbag68
(g89
g70
NtRp1794
(dp1795
g73
(dp1796
sg82
g1781
sg75
(lp1797
g68
(g69
g70
NtRp1798
(dp1799
g73
(dp1800
g81
I4
ssg82
g1794
sg75
(lp1801
S'8000'
p1802
asbasbasbag68
(g84
g70
NtRp1803
(dp1804
g73
(dp1805
sg82
g1229
sg75
(lp1806
g68
(g89
g70
NtRp1807
(dp1808
g73
(dp1809
g93
g94
ssg82
g1803
sg75
(lp1810
S'server_protocol'
p1811
asbag68
(g89
g70
NtRp1812
(dp1813
g73
(dp1814
g100
g101
ssg82
g1803
sg75
(lp1815
S':'
asbag68
(g89
g70
NtRp1816
(dp1817
g73
(dp1818
sg82
g1803
sg75
(lp1819
g68
(g69
g70
NtRp1820
(dp1821
g73
(dp1822
g81
I4
ssg82
g1816
sg75
(lp1823
S'HTTP/1.1'
p1824
asbasbasbag68
(g84
g70
NtRp1825
(dp1826
g73
(dp1827
sg82
g1229
sg75
(lp1828
g68
(g89
g70
NtRp1829
(dp1830
g73
(dp1831
g93
g94
ssg82
g1825
sg75
(lp1832
S'server_software'
p1833
asbag68
(g89
g70
NtRp1834
(dp1835
g73
(dp1836
g100
g101
ssg82
g1825
sg75
(lp1837
S':'
asbag68
(g89
g70
NtRp1838
(dp1839
g73
(dp1840
sg82
g1825
sg75
(lp1841
g68
(g69
g70
NtRp1842
(dp1843
g73
(dp1844
g81
I4
ssg82
g1838
sg75
(lp1845
S'Rocket 1.2.2'
p1846
asbasbasbag68
(g84
g70
NtRp1847
(dp1848
g73
(dp1849
sg82
g1229
sg75
(lp1850
g68
(g89
g70
NtRp1851
(dp1852
g73
(dp1853
g93
g94
ssg82
g1847
sg75
(lp1854
S'web2py_crontype'
p1855
asbag68
(g89
g70
NtRp1856
(dp1857
g73
(dp1858
g100
g101
ssg82
g1847
sg75
(lp1859
S':'
asbag68
(g89
g70
NtRp1860
(dp1861
g73
(dp1862
sg82
g1847
sg75
(lp1863
g68
(g69
g70
NtRp1864
(dp1865
g73
(dp1866
g81
I4
ssg82
g1860
sg75
(lp1867
S'hard'
p1868
asbasbasbag68
(g84
g70
NtRp1869
(dp1870
g73
(dp1871
sg82
g1229
sg75
(lp1872
g68
(g89
g70
NtRp1873
(dp1874
g73
(dp1875
g93
g94
ssg82
g1869
sg75
(lp1876
S'web2py_path'
p1877
asbag68
(g89
g70
NtRp1878
(dp1879
g73
(dp1880
g100
g101
ssg82
g1869
sg75
(lp1881
S':'
asbag68
(g89
g70
NtRp1882
(dp1883
g73
(dp1884
sg82
g1869
sg75
(lp1885
g68
(g69
g70
NtRp1886
(dp1887
g73
(dp1888
g81
I4
ssg82
g1882
sg75
(lp1889
g1276
asbasbasbag68
(g84
g70
NtRp1890
(dp1891
g73
(dp1892
sg82
g1229
sg75
(lp1893
g68
(g89
g70
NtRp1894
(dp1895
g73
(dp1896
g93
g94
ssg82
g1890
sg75
(lp1897
S'web2py_version'
p1898
asbag68
(g89
g70
NtRp1899
(dp1900
g73
(dp1901
g100
g101
ssg82
g1890
sg75
(lp1902
S':'
asbag68
(g89
g70
NtRp1903
(dp1904
g73
(dp1905
sg82
g1890
sg75
(lp1906
g68
(g69
g70
NtRp1907
(dp1908
g73
(dp1909
g81
I4
ssg82
g1903
sg75
(lp1910
S'Version 1.98.2 (2011-08-04 00:47:09)\n'
p1911
asbasbasbag68
(g84
g70
NtRp1912
(dp1913
g73
(dp1914
sg82
g1229
sg75
(lp1915
g68
(g89
g70
NtRp1916
(dp1917
g73
(dp1918
g93
g94
ssg82
g1912
sg75
(lp1919
S'wsgi_errors'
p1920
asbag68
(g89
g70
NtRp1921
(dp1922
g73
(dp1923
g100
g101
ssg82
g1912
sg75
(lp1924
S':'
asbag68
(g89
g70
NtRp1925
(dp1926
g73
(dp1927
sg82
g1912
sg75
(lp1928
g68
(g69
g70
NtRp1929
(dp1930
g73
(dp1931
g81
I4
ssg82
g1925
sg75
(lp1932
S"<open file '<stderr>', mode 'w' at 0xb76e20d0>"
p1933
asbasbasbag68
(g84
g70
NtRp1934
(dp1935
g73
(dp1936
sg82
g1229
sg75
(lp1937
g68
(g89
g70
NtRp1938
(dp1939
g73
(dp1940
g93
g94
ssg82
g1934
sg75
(lp1941
S'wsgi_file_wrapper'
p1942
asbag68
(g89
g70
NtRp1943
(dp1944
g73
(dp1945
g100
g101
ssg82
g1934
sg75
(lp1946
S':'
asbag68
(g89
g70
NtRp1947
(dp1948
g73
(dp1949
sg82
g1934
sg75
(lp1950
g68
(g69
g70
NtRp1951
(dp1952
g73
(dp1953
g81
I4
ssg82
g1947
sg75
(lp1954
S'<class gluon.rocket.FileWrapper at 0x96a132c>'
p1955
asbasbasbag68
(g84
g70
NtRp1956
(dp1957
g73
(dp1958
sg82
g1229
sg75
(lp1959
g68
(g89
g70
NtRp1960
(dp1961
g73
(dp1962
g93
g94
ssg82
g1956
sg75
(lp1963
S'wsgi_input'
p1964
asbag68
(g89
g70
NtRp1965
(dp1966
g73
(dp1967
g100
g101
ssg82
g1956
sg75
(lp1968
S':'
asbag68
(g89
g70
NtRp1969
(dp1970
g73
(dp1971
sg82
g1956
sg75
(lp1972
g68
(g69
g70
NtRp1973
(dp1974
g73
(dp1975
g81
I4
ssg82
g1969
sg75
(lp1976
S'<socket._fileobject object at 0x9702cac>'
p1977
asbasbasbag68
(g84
g70
NtRp1978
(dp1979
g73
(dp1980
sg82
g1229
sg75
(lp1981
g68
(g89
g70
NtRp1982
(dp1983
g73
(dp1984
g93
g94
ssg82
g1978
sg75
(lp1985
S'wsgi_multiprocess'
p1986
asbag68
(g89
g70
NtRp1987
(dp1988
g73
(dp1989
g100
g101
ssg82
g1978
sg75
(lp1990
S':'
asbag68
(g89
g70
NtRp1991
(dp1992
g73
(dp1993
sg82
g1978
sg75
(lp1994
g68
(g69
g70
NtRp1995
(dp1996
g73
(dp1997
g81
I4
ssg82
g1991
sg75
(lp1998
g111
asbasbasbag68
(g84
g70
NtRp1999
(dp2000
g73
(dp2001
sg82
g1229
sg75
(lp2002
g68
(g89
g70
NtRp2003
(dp2004
g73
(dp2005
g93
g94
ssg82
g1999
sg75
(lp2006
S'wsgi_multithread'
p2007
asbag68
(g89
g70
NtRp2008
(dp2009
g73
(dp2010
g100
g101
ssg82
g1999
sg75
(lp2011
S':'
asbag68
(g89
g70
NtRp2012
(dp2013
g73
(dp2014
sg82
g1999
sg75
(lp2015
g68
(g69
g70
NtRp2016
(dp2017
g73
(dp2018
g81
I4
ssg82
g2012
sg75
(lp2019
S'True'
p2020
asbasbasbag68
(g84
g70
NtRp2021
(dp2022
g73
(dp2023
sg82
g1229
sg75
(lp2024
g68
(g89
g70
NtRp2025
(dp2026
g73
(dp2027
g93
g94
ssg82
g2021
sg75
(lp2028
S'wsgi_run_once'
p2029
asbag68
(g89
g70
NtRp2030
(dp2031
g73
(dp2032
g100
g101
ssg82
g2021
sg75
(lp2033
S':'
asbag68
(g89
g70
NtRp2034
(dp2035
g73
(dp2036
sg82
g2021
sg75
(lp2037
g68
(g69
g70
NtRp2038
(dp2039
g73
(dp2040
g81
I4
ssg82
g2034
sg75
(lp2041
g111
asbasbasbag68
(g84
g70
NtRp2042
(dp2043
g73
(dp2044
sg82
g1229
sg75
(lp2045
g68
(g89
g70
NtRp2046
(dp2047
g73
(dp2048
g93
g94
ssg82
g2042
sg75
(lp2049
S'wsgi_url_scheme'
p2050
asbag68
(g89
g70
NtRp2051
(dp2052
g73
(dp2053
g100
g101
ssg82
g2042
sg75
(lp2054
S':'
asbag68
(g89
g70
NtRp2055
(dp2056
g73
(dp2057
sg82
g2042
sg75
(lp2058
g68
(g69
g70
NtRp2059
(dp2060
g73
(dp2061
g81
I4
ssg82
g2055
sg75
(lp2062
S'http'
p2063
asbasbasbag68
(g84
g70
NtRp2064
(dp2065
g73
(dp2066
sg82
g1229
sg75
(lp2067
g68
(g89
g70
NtRp2068
(dp2069
g73
(dp2070
g93
g94
ssg82
g2064
sg75
(lp2071
S'wsgi_version'
p2072
asbag68
(g89
g70
NtRp2073
(dp2074
g73
(dp2075
g100
g101
ssg82
g2064
sg75
(lp2076
S':'
asbag68
(g89
g70
NtRp2077
(dp2078
g73
(dp2079
sg82
g2064
sg75
(lp2080
g68
(g69
g70
NtRp2081
(dp2082
g73
(dp2083
g81
I4
ssg82
g2077
sg75
(lp2084
g68
(g77
g70
NtRp2085
(dp2086
g73
(dp2087
g81
I3
ssg82
Nsg75
(lp2088
g68
(g84
g70
NtRp2089
(dp2090
g73
(dp2091
sg82
g2085
sg75
(lp2092
g68
(g89
g70
NtRp2093
(dp2094
g73
(dp2095
sg82
g2089
sg75
(lp2096
g68
(g69
g70
NtRp2097
(dp2098
g73
(dp2099
g81
I3
ssg82
g2093
sg75
(lp2100
S'1'
asbasbasbag68
(g84
g70
NtRp2101
(dp2102
g73
(dp2103
sg82
g2085
sg75
(lp2104
g68
(g89
g70
NtRp2105
(dp2106
g73
(dp2107
sg82
g2101
sg75
(lp2108
g68
(g69
g70
NtRp2109
(dp2110
g73
(dp2111
g81
I3
ssg82
g2105
sg75
(lp2112
S'0'
asbasbasbasbasbasbasbasbasbasbasbag68
(g84
g70
NtRp2113
(dp2114
g73
(dp2115
sg82
g78
sg75
(lp2116
g68
(g89
g70
NtRp2117
(dp2118
g73
(dp2119
g93
g94
ssg82
g2113
sg75
(lp2120
S'extension'
p2121
asbag68
(g89
g70
NtRp2122
(dp2123
g73
(dp2124
g100
g101
ssg82
g2113
sg75
(lp2125
S':'
asbag68
(g89
g70
NtRp2126
(dp2127
g73
(dp2128
sg82
g2113
sg75
(lp2129
g68
(g69
g70
NtRp2130
(dp2131
g73
(dp2132
g81
I5
ssg82
g2126
sg75
(lp2133
S'html'
p2134
asbasbasbag68
(g84
g70
NtRp2135
(dp2136
g73
(dp2137
sg82
g78
sg75
(lp2138
g68
(g89
g70
NtRp2139
(dp2140
g73
(dp2141
g93
g94
ssg82
g2135
sg75
(lp2142
S'folder'
p2143
asbag68
(g89
g70
NtRp2144
(dp2145
g73
(dp2146
g100
g101
ssg82
g2135
sg75
(lp2147
S':'
asbag68
(g89
g70
NtRp2148
(dp2149
g73
(dp2150
sg82
g2135
sg75
(lp2151
g68
(g69
g70
NtRp2152
(dp2153
g73
(dp2154
g81
I5
ssg82
g2148
sg75
(lp2155
S'/home/alumno/web2py/applications/datos/'
p2156
asbasbasbag68
(g84
g70
NtRp2157
(dp2158
g73
(dp2159
sg82
g78
sg75
(lp2160
g68
(g89
g70
NtRp2161
(dp2162
g73
(dp2163
g93
g94
ssg82
g2157
sg75
(lp2164
S'function'
p2165
asbag68
(g89
g70
NtRp2166
(dp2167
g73
(dp2168
g100
g101
ssg82
g2157
sg75
(lp2169
S':'
asbag68
(g89
g70
NtRp2170
(dp2171
g73
(dp2172
sg82
g2157
sg75
(lp2173
g68
(g69
g70
NtRp2174
(dp2175
g73
(dp2176
g81
I5
ssg82
g2170
sg75
(lp2177
S'insert'
p2178
asbasbasbag68
(g84
g70
NtRp2179
(dp2180
g73
(dp2181
sg82
g78
sg75
(lp2182
g68
(g89
g70
NtRp2183
(dp2184
g73
(dp2185
g93
g94
ssg82
g2179
sg75
(lp2186
S'get_vars'
p2187
asbag68
(g89
g70
NtRp2188
(dp2189
g73
(dp2190
g100
g101
ssg82
g2179
sg75
(lp2191
S':'
asbag68
(g89
g70
NtRp2192
(dp2193
g73
(dp2194
sg82
g2179
sg75
(lp2195
g68
(g69
g70
NtRp2196
(dp2197
g73
(dp2198
g81
I5
ssg82
g2192
sg75
(lp2199
g68
(g77
g70
NtRp2200
(dp2201
g73
(dp2202
g81
I4
ssg82
Nsg75
(lp2203
sbasbasbasbag68
(g84
g70
NtRp2204
(dp2205
g73
(dp2206
sg82
g78
sg75
(lp2207
g68
(g89
g70
NtRp2208
(dp2209
g73
(dp2210
g93
g94
ssg82
g2204
sg75
(lp2211
S'is_https'
p2212
asbag68
(g89
g70
NtRp2213
(dp2214
g73
(dp2215
g100
g101
ssg82
g2204
sg75
(lp2216
S':'
asbag68
(g89
g70
NtRp2217
(dp2218
g73
(dp2219
sg82
g2204
sg75
(lp2220
g68
(g69
g70
NtRp2221
(dp2222
g73
(dp2223
g81
I5
ssg82
g2217
sg75
(lp2224
g111
asbasbasbag68
(g84
g70
NtRp2225
(dp2226
g73
(dp2227
sg82
g78
sg75
(lp2228
g68
(g89
g70
NtRp2229
(dp2230
g73
(dp2231
g93
g94
ssg82
g2225
sg75
(lp2232
S'is_local'
p2233
asbag68
(g89
g70
NtRp2234
(dp2235
g73
(dp2236
g100
g101
ssg82
g2225
sg75
(lp2237
S':'
asbag68
(g89
g70
NtRp2238
(dp2239
g73
(dp2240
sg82
g2225
sg75
(lp2241
g68
(g69
g70
NtRp2242
(dp2243
g73
(dp2244
g81
I5
ssg82
g2238
sg75
(lp2245
g2020
asbasbasbag68
(g84
g70
NtRp2246
(dp2247
g73
(dp2248
sg82
g78
sg75
(lp2249
g68
(g89
g70
NtRp2250
(dp2251
g73
(dp2252
g93
g94
ssg82
g2246
sg75
(lp2253
S'is_restful'
p2254
asbag68
(g89
g70
NtRp2255
(dp2256
g73
(dp2257
g100
g101
ssg82
g2246
sg75
(lp2258
S':'
asbag68
(g89
g70
NtRp2259
(dp2260
g73
(dp2261
sg82
g2246
sg75
(lp2262
g68
(g69
g70
NtRp2263
(dp2264
g73
(dp2265
g81
I5
ssg82
g2259
sg75
(lp2266
g111
asbasbasbag68
(g84
g70
NtRp2267
(dp2268
g73
(dp2269
sg82
g78
sg75
(lp2270
g68
(g89
g70
NtRp2271
(dp2272
g73
(dp2273
g93
g94
ssg82
g2267
sg75
(lp2274
S'now'
p2275
asbag68
(g89
g70
NtRp2276
(dp2277
g73
(dp2278
g100
g101
ssg82
g2267
sg75
(lp2279
S':'
asbag68
(g89
g70
NtRp2280
(dp2281
g73
(dp2282
sg82
g2267
sg75
(lp2283
g68
(g69
g70
NtRp2284
(dp2285
g73
(dp2286
g81
I5
ssg82
g2280
sg75
(lp2287
S'datetime.datetime(2011, 9, 7, 19, 8, 16, 68364)'
p2288
asbasbasbag68
(g84
g70
NtRp2289
(dp2290
g73
(dp2291
sg82
g78
sg75
(lp2292
g68
(g89
g70
NtRp2293
(dp2294
g73
(dp2295
g93
g94
ssg82
g2289
sg75
(lp2296
S'post_vars'
p2297
asbag68
(g89
g70
NtRp2298
(dp2299
g73
(dp2300
g100
g101
ssg82
g2289
sg75
(lp2301
S':'
asbag68
(g89
g70
NtRp2302
(dp2303
g73
(dp2304
sg82
g2289
sg75
(lp2305
g68
(g69
g70
NtRp2306
(dp2307
g73
(dp2308
g81
I5
ssg82
g2302
sg75
(lp2309
g68
(g77
g70
NtRp2310
(dp2311
g73
(dp2312
g81
I4
ssg82
Nsg75
(lp2313
sbasbasbasbag68
(g84
g70
NtRp2314
(dp2315
g73
(dp2316
sg82
g78
sg75
(lp2317
g68
(g89
g70
NtRp2318
(dp2319
g73
(dp2320
g93
g94
ssg82
g2314
sg75
(lp2321
S'raw_args'
p2322
asbag68
(g89
g70
NtRp2323
(dp2324
g73
(dp2325
g100
g101
ssg82
g2314
sg75
(lp2326
S':'
asbag68
(g89
g70
NtRp2327
(dp2328
g73
(dp2329
sg82
g2314
sg75
(lp2330
g68
(g69
g70
NtRp2331
(dp2332
g73
(dp2333
g81
I5
ssg82
g2327
sg75
(lp2334
S'db/alumno'
p2335
asbasbasbag68
(g84
g70
NtRp2336
(dp2337
g73
(dp2338
sg82
g78
sg75
(lp2339
g68
(g89
g70
NtRp2340
(dp2341
g73
(dp2342
g93
g94
ssg82
g2336
sg75
(lp2343
S'url'
p2344
asbag68
(g89
g70
NtRp2345
(dp2346
g73
(dp2347
g100
g101
ssg82
g2336
sg75
(lp2348
S':'
asbag68
(g89
g70
NtRp2349
(dp2350
g73
(dp2351
sg82
g2336
sg75
(lp2352
g68
(g69
g70
NtRp2353
(dp2354
g73
(dp2355
g81
I5
ssg82
g2349
sg75
(lp2356
S'/datos/appadmin/insert/db/alumno'
p2357
asbasbasbag68
(g84
g70
NtRp2358
(dp2359
g73
(dp2360
sg82
g78
sg75
(lp2361
g68
(g89
g70
NtRp2362
(dp2363
g73
(dp2364
g93
g94
ssg82
g2358
sg75
(lp2365
S'uuid'
p2366
asbag68
(g89
g70
NtRp2367
(dp2368
g73
(dp2369
g100
g101
ssg82
g2358
sg75
(lp2370
S':'
asbag68
(g89
g70
NtRp2371
(dp2372
g73
(dp2373
sg82
g2358
sg75
(lp2374
g68
(g69
g70
NtRp2375
(dp2376
g73
(dp2377
g81
I5
ssg82
g2371
sg75
(lp2378
S'datos/127.0.0.1.2011-09-07.19-08-16.1d8837c4-ee07-4c9a-9a5c-b607d498068f'
p2379
asbasbasbag68
(g84
g70
NtRp2380
(dp2381
g73
(dp2382
sg82
g78
sg75
(lp2383
g68
(g89
g70
NtRp2384
(dp2385
g73
(dp2386
g93
g94
ssg82
g2380
sg75
(lp2387
S'vars'
p2388
asbag68
(g89
g70
NtRp2389
(dp2390
g73
(dp2391
g100
g101
ssg82
g2380
sg75
(lp2392
S':'
asbag68
(g89
g70
NtRp2393
(dp2394
g73
(dp2395
sg82
g2380
sg75
(lp2396
g68
(g69
g70
NtRp2397
(dp2398
g73
(dp2399
g81
I5
ssg82
g2393
sg75
(lp2400
g68
(g77
g70
NtRp2401
(dp2402
g73
(dp2403
g81
I4
ssg82
Nsg75
(lp2404
sbasbasbasbag68
(g84
g70
NtRp2405
(dp2406
g73
(dp2407
sg82
g78
sg75
(lp2408
g68
(g89
g70
NtRp2409
(dp2410
g73
(dp2411
g93
g94
ssg82
g2405
sg75
(lp2412
S'wsgi'
p2413
asbag68
(g89
g70
NtRp2414
(dp2415
g73
(dp2416
g100
g101
ssg82
g2405
sg75
(lp2417
S':'
asbag68
(g89
g70
NtRp2418
(dp2419
g73
(dp2420
sg82
g2405
sg75
(lp2421
g68
(g69
g70
NtRp2422
(dp2423
g73
(dp2424
g81
I5
ssg82
g2418
sg75
(lp2425
g68
(g77
g70
NtRp2426
(dp2427
g73
(dp2428
g81
I4
ssg82
Nsg75
(lp2429
g68
(g84
g70
NtRp2430
(dp2431
g73
(dp2432
sg82
g2426
sg75
(lp2433
g68
(g89
g70
NtRp2434
(dp2435
g73
(dp2436
g93
g94
ssg82
g2430
sg75
(lp2437
S'environ'
p2438
asbag68
(g89
g70
NtRp2439
(dp2440
g73
(dp2441
g100
g101
ssg82
g2430
sg75
(lp2442
S':'
asbag68
(g89
g70
NtRp2443
(dp2444
g73
(dp2445
sg82
g2430
sg75
(lp2446
g68
(g69
g70
NtRp2447
(dp2448
g73
(dp2449
g81
I4
ssg82
g2443
sg75
(lp2450
g68
(g77
g70
NtRp2451
(dp2452
g73
(dp2453
g81
I3
ssg82
Nsg75
(lp2454
g68
(g84
g70
NtRp2455
(dp2456
g73
(dp2457
sg82
g2451
sg75
(lp2458
g68
(g89
g70
NtRp2459
(dp2460
g73
(dp2461
g93
g94
ssg82
g2455
sg75
(lp2462
S'HTTP_ACCEPT'
p2463
asbag68
(g89
g70
NtRp2464
(dp2465
g73
(dp2466
g100
g101
ssg82
g2455
sg75
(lp2467
S':'
asbag68
(g89
g70
NtRp2468
(dp2469
g73
(dp2470
sg82
g2455
sg75
(lp2471
g68
(g69
g70
NtRp2472
(dp2473
g73
(dp2474
g81
I3
ssg82
g2468
sg75
(lp2475
g1410
asbasbasbag68
(g84
g70
NtRp2476
(dp2477
g73
(dp2478
sg82
g2451
sg75
(lp2479
g68
(g89
g70
NtRp2480
(dp2481
g73
(dp2482
g93
g94
ssg82
g2476
sg75
(lp2483
S'HTTP_ACCEPT_CHARSET'
p2484
asbag68
(g89
g70
NtRp2485
(dp2486
g73
(dp2487
g100
g101
ssg82
g2476
sg75
(lp2488
S':'
asbag68
(g89
g70
NtRp2489
(dp2490
g73
(dp2491
sg82
g2476
sg75
(lp2492
g68
(g69
g70
NtRp2493
(dp2494
g73
(dp2495
g81
I3
ssg82
g2489
sg75
(lp2496
g1432
asbasbasbag68
(g84
g70
NtRp2497
(dp2498
g73
(dp2499
sg82
g2451
sg75
(lp2500
g68
(g89
g70
NtRp2501
(dp2502
g73
(dp2503
g93
g94
ssg82
g2497
sg75
(lp2504
S'HTTP_ACCEPT_ENCODING'
p2505
asbag68
(g89
g70
NtRp2506
(dp2507
g73
(dp2508
g100
g101
ssg82
g2497
sg75
(lp2509
S':'
asbag68
(g89
g70
NtRp2510
(dp2511
g73
(dp2512
sg82
g2497
sg75
(lp2513
g68
(g69
g70
NtRp2514
(dp2515
g73
(dp2516
g81
I3
ssg82
g2510
sg75
(lp2517
g1454
asbasbasbag68
(g84
g70
NtRp2518
(dp2519
g73
(dp2520
sg82
g2451
sg75
(lp2521
g68
(g89
g70
NtRp2522
(dp2523
g73
(dp2524
g93
g94
ssg82
g2518
sg75
(lp2525
S'HTTP_ACCEPT_LANGUAGE'
p2526
asbag68
(g89
g70
NtRp2527
(dp2528
g73
(dp2529
g100
g101
ssg82
g2518
sg75
(lp2530
S':'
asbag68
(g89
g70
NtRp2531
(dp2532
g73
(dp2533
sg82
g2518
sg75
(lp2534
g68
(g69
g70
NtRp2535
(dp2536
g73
(dp2537
g81
I3
ssg82
g2531
sg75
(lp2538
g1476
asbasbasbag68
(g84
g70
NtRp2539
(dp2540
g73
(dp2541
sg82
g2451
sg75
(lp2542
g68
(g89
g70
NtRp2543
(dp2544
g73
(dp2545
g93
g94
ssg82
g2539
sg75
(lp2546
S'HTTP_CACHE_CONTROL'
p2547
asbag68
(g89
g70
NtRp2548
(dp2549
g73
(dp2550
g100
g101
ssg82
g2539
sg75
(lp2551
S':'
asbag68
(g89
g70
NtRp2552
(dp2553
g73
(dp2554
sg82
g2539
sg75
(lp2555
g68
(g69
g70
NtRp2556
(dp2557
g73
(dp2558
g81
I3
ssg82
g2552
sg75
(lp2559
g1498
asbasbasbag68
(g84
g70
NtRp2560
(dp2561
g73
(dp2562
sg82
g2451
sg75
(lp2563
g68
(g89
g70
NtRp2564
(dp2565
g73
(dp2566
g93
g94
ssg82
g2560
sg75
(lp2567
S'HTTP_CONNECTION'
p2568
asbag68
(g89
g70
NtRp2569
(dp2570
g73
(dp2571
g100
g101
ssg82
g2560
sg75
(lp2572
S':'
asbag68
(g89
g70
NtRp2573
(dp2574
g73
(dp2575
sg82
g2560
sg75
(lp2576
g68
(g69
g70
NtRp2577
(dp2578
g73
(dp2579
g81
I3
ssg82
g2573
sg75
(lp2580
g1520
asbasbasbag68
(g84
g70
NtRp2581
(dp2582
g73
(dp2583
sg82
g2451
sg75
(lp2584
g68
(g89
g70
NtRp2585
(dp2586
g73
(dp2587
g93
g94
ssg82
g2581
sg75
(lp2588
S'HTTP_COOKIE'
p2589
asbag68
(g89
g70
NtRp2590
(dp2591
g73
(dp2592
g100
g101
ssg82
g2581
sg75
(lp2593
S':'
asbag68
(g89
g70
NtRp2594
(dp2595
g73
(dp2596
sg82
g2581
sg75
(lp2597
g68
(g69
g70
NtRp2598
(dp2599
g73
(dp2600
g81
I3
ssg82
g2594
sg75
(lp2601
g1542
asbasbasbag68
(g84
g70
NtRp2602
(dp2603
g73
(dp2604
sg82
g2451
sg75
(lp2605
g68
(g89
g70
NtRp2606
(dp2607
g73
(dp2608
g93
g94
ssg82
g2602
sg75
(lp2609
S'HTTP_HOST'
p2610
asbag68
(g89
g70
NtRp2611
(dp2612
g73
(dp2613
g100
g101
ssg82
g2602
sg75
(lp2614
S':'
asbag68
(g89
g70
NtRp2615
(dp2616
g73
(dp2617
sg82
g2602
sg75
(lp2618
g68
(g69
g70
NtRp2619
(dp2620
g73
(dp2621
g81
I3
ssg82
g2615
sg75
(lp2622
g1564
asbasbasbag68
(g84
g70
NtRp2623
(dp2624
g73
(dp2625
sg82
g2451
sg75
(lp2626
g68
(g89
g70
NtRp2627
(dp2628
g73
(dp2629
g93
g94
ssg82
g2623
sg75
(lp2630
S'HTTP_REFERER'
p2631
asbag68
(g89
g70
NtRp2632
(dp2633
g73
(dp2634
g100
g101
ssg82
g2623
sg75
(lp2635
S':'
asbag68
(g89
g70
NtRp2636
(dp2637
g73
(dp2638
sg82
g2623
sg75
(lp2639
g68
(g69
g70
NtRp2640
(dp2641
g73
(dp2642
g81
I3
ssg82
g2636
sg75
(lp2643
g1586
asbasbasbag68
(g84
g70
NtRp2644
(dp2645
g73
(dp2646
sg82
g2451
sg75
(lp2647
g68
(g89
g70
NtRp2648
(dp2649
g73
(dp2650
g93
g94
ssg82
g2644
sg75
(lp2651
S'HTTP_USER_AGENT'
p2652
asbag68
(g89
g70
NtRp2653
(dp2654
g73
(dp2655
g100
g101
ssg82
g2644
sg75
(lp2656
S':'
asbag68
(g89
g70
NtRp2657
(dp2658
g73
(dp2659
sg82
g2644
sg75
(lp2660
g68
(g69
g70
NtRp2661
(dp2662
g73
(dp2663
g81
I3
ssg82
g2657
sg75
(lp2664
g1608
asbasbasbag68
(g84
g70
NtRp2665
(dp2666
g73
(dp2667
sg82
g2451
sg75
(lp2668
g68
(g89
g70
NtRp2669
(dp2670
g73
(dp2671
g93
g94
ssg82
g2665
sg75
(lp2672
S'PATH_INFO'
p2673
asbag68
(g89
g70
NtRp2674
(dp2675
g73
(dp2676
g100
g101
ssg82
g2665
sg75
(lp2677
S':'
asbag68
(g89
g70
NtRp2678
(dp2679
g73
(dp2680
sg82
g2665
sg75
(lp2681
g68
(g69
g70
NtRp2682
(dp2683
g73
(dp2684
g81
I3
ssg82
g2678
sg75
(lp2685
g1651
asbasbasbag68
(g84
g70
NtRp2686
(dp2687
g73
(dp2688
sg82
g2451
sg75
(lp2689
g68
(g89
g70
NtRp2690
(dp2691
g73
(dp2692
g93
g94
ssg82
g2686
sg75
(lp2693
S'QUERY_STRING'
p2694
asbag68
(g89
g70
NtRp2695
(dp2696
g73
(dp2697
g100
g101
ssg82
g2686
sg75
(lp2698
S':'
asbag68
(g89
g70
NtRp2699
(dp2700
g73
(dp2701
sg82
g2686
sg75
(lp2702
g68
(g69
g70
NtRp2703
(dp2704
g73
(dp2705
g81
I3
ssg82
g2699
sg75
(lp2706
S''
asbasbasbag68
(g84
g70
NtRp2707
(dp2708
g73
(dp2709
sg82
g2451
sg75
(lp2710
g68
(g89
g70
NtRp2711
(dp2712
g73
(dp2713
g93
g94
ssg82
g2707
sg75
(lp2714
S'REMOTE_ADDR'
p2715
asbag68
(g89
g70
NtRp2716
(dp2717
g73
(dp2718
g100
g101
ssg82
g2707
sg75
(lp2719
S':'
asbag68
(g89
g70
NtRp2720
(dp2721
g73
(dp2722
sg82
g2707
sg75
(lp2723
g68
(g69
g70
NtRp2724
(dp2725
g73
(dp2726
g81
I3
ssg82
g2720
sg75
(lp2727
g227
asbasbasbag68
(g84
g70
NtRp2728
(dp2729
g73
(dp2730
sg82
g2451
sg75
(lp2731
g68
(g89
g70
NtRp2732
(dp2733
g73
(dp2734
g93
g94
ssg82
g2728
sg75
(lp2735
S'REMOTE_PORT'
p2736
asbag68
(g89
g70
NtRp2737
(dp2738
g73
(dp2739
g100
g101
ssg82
g2728
sg75
(lp2740
S':'
asbag68
(g89
g70
NtRp2741
(dp2742
g73
(dp2743
sg82
g2728
sg75
(lp2744
g68
(g69
g70
NtRp2745
(dp2746
g73
(dp2747
g81
I3
ssg82
g2741
sg75
(lp2748
g1715
asbasbasbag68
(g84
g70
NtRp2749
(dp2750
g73
(dp2751
sg82
g2451
sg75
(lp2752
g68
(g89
g70
NtRp2753
(dp2754
g73
(dp2755
g93
g94
ssg82
g2749
sg75
(lp2756
S'REQUEST_METHOD'
p2757
asbag68
(g89
g70
NtRp2758
(dp2759
g73
(dp2760
g100
g101
ssg82
g2749
sg75
(lp2761
S':'
asbag68
(g89
g70
NtRp2762
(dp2763
g73
(dp2764
sg82
g2749
sg75
(lp2765
g68
(g69
g70
NtRp2766
(dp2767
g73
(dp2768
g81
I3
ssg82
g2762
sg75
(lp2769
g1737
asbasbasbag68
(g84
g70
NtRp2770
(dp2771
g73
(dp2772
sg82
g2451
sg75
(lp2773
g68
(g89
g70
NtRp2774
(dp2775
g73
(dp2776
g93
g94
ssg82
g2770
sg75
(lp2777
S'SCRIPT_NAME'
p2778
asbag68
(g89
g70
NtRp2779
(dp2780
g73
(dp2781
g100
g101
ssg82
g2770
sg75
(lp2782
S':'
asbag68
(g89
g70
NtRp2783
(dp2784
g73
(dp2785
sg82
g2770
sg75
(lp2786
g68
(g69
g70
NtRp2787
(dp2788
g73
(dp2789
g81
I3
ssg82
g2783
sg75
(lp2790
S''
asbasbasbag68
(g84
g70
NtRp2791
(dp2792
g73
(dp2793
sg82
g2451
sg75
(lp2794
g68
(g89
g70
NtRp2795
(dp2796
g73
(dp2797
g93
g94
ssg82
g2791
sg75
(lp2798
S'SERVER_NAME'
p2799
asbag68
(g89
g70
NtRp2800
(dp2801
g73
(dp2802
g100
g101
ssg82
g2791
sg75
(lp2803
S':'
asbag68
(g89
g70
NtRp2804
(dp2805
g73
(dp2806
sg82
g2791
sg75
(lp2807
g68
(g69
g70
NtRp2808
(dp2809
g73
(dp2810
g81
I3
ssg82
g2804
sg75
(lp2811
g1780
asbasbasbag68
(g84
g70
NtRp2812
(dp2813
g73
(dp2814
sg82
g2451
sg75
(lp2815
g68
(g89
g70
NtRp2816
(dp2817
g73
(dp2818
g93
g94
ssg82
g2812
sg75
(lp2819
S'SERVER_PORT'
p2820
asbag68
(g89
g70
NtRp2821
(dp2822
g73
(dp2823
g100
g101
ssg82
g2812
sg75
(lp2824
S':'
asbag68
(g89
g70
NtRp2825
(dp2826
g73
(dp2827
sg82
g2812
sg75
(lp2828
g68
(g69
g70
NtRp2829
(dp2830
g73
(dp2831
g81
I3
ssg82
g2825
sg75
(lp2832
g1802
asbasbasbag68
(g84
g70
NtRp2833
(dp2834
g73
(dp2835
sg82
g2451
sg75
(lp2836
g68
(g89
g70
NtRp2837
(dp2838
g73
(dp2839
g93
g94
ssg82
g2833
sg75
(lp2840
S'SERVER_PROTOCOL'
p2841
asbag68
(g89
g70
NtRp2842
(dp2843
g73
(dp2844
g100
g101
ssg82
g2833
sg75
(lp2845
S':'
asbag68
(g89
g70
NtRp2846
(dp2847
g73
(dp2848
sg82
g2833
sg75
(lp2849
g68
(g69
g70
NtRp2850
(dp2851
g73
(dp2852
g81
I3
ssg82
g2846
sg75
(lp2853
g1824
asbasbasbag68
(g84
g70
NtRp2854
(dp2855
g73
(dp2856
sg82
g2451
sg75
(lp2857
g68
(g89
g70
NtRp2858
(dp2859
g73
(dp2860
g93
g94
ssg82
g2854
sg75
(lp2861
S'SERVER_SOFTWARE'
p2862
asbag68
(g89
g70
NtRp2863
(dp2864
g73
(dp2865
g100
g101
ssg82
g2854
sg75
(lp2866
S':'
asbag68
(g89
g70
NtRp2867
(dp2868
g73
(dp2869
sg82
g2854
sg75
(lp2870
g68
(g69
g70
NtRp2871
(dp2872
g73
(dp2873
g81
I3
ssg82
g2867
sg75
(lp2874
g1846
asbasbasbag68
(g84
g70
NtRp2875
(dp2876
g73
(dp2877
sg82
g2451
sg75
(lp2878
g68
(g89
g70
NtRp2879
(dp2880
g73
(dp2881
g93
g94
ssg82
g2875
sg75
(lp2882
S'wsgi.errors'
p2883
asbag68
(g89
g70
NtRp2884
(dp2885
g73
(dp2886
g100
g101
ssg82
g2875
sg75
(lp2887
S':'
asbag68
(g89
g70
NtRp2888
(dp2889
g73
(dp2890
sg82
g2875
sg75
(lp2891
g68
(g69
g70
NtRp2892
(dp2893
g73
(dp2894
g81
I3
ssg82
g2888
sg75
(lp2895
S"<open file '<stderr>', mode 'w' at 0xb76e20d0>"
p2896
asbasbasbag68
(g84
g70
NtRp2897
(dp2898
g73
(dp2899
sg82
g2451
sg75
(lp2900
g68
(g89
g70
NtRp2901
(dp2902
g73
(dp2903
g93
g94
ssg82
g2897
sg75
(lp2904
S'wsgi.file_wrapper'
p2905
asbag68
(g89
g70
NtRp2906
(dp2907
g73
(dp2908
g100
g101
ssg82
g2897
sg75
(lp2909
S':'
asbag68
(g89
g70
NtRp2910
(dp2911
g73
(dp2912
sg82
g2897
sg75
(lp2913
g68
(g69
g70
NtRp2914
(dp2915
g73
(dp2916
g81
I3
ssg82
g2910
sg75
(lp2917
S'<class gluon.rocket.FileWrapper at 0x96a132c>'
p2918
asbasbasbag68
(g84
g70
NtRp2919
(dp2920
g73
(dp2921
sg82
g2451
sg75
(lp2922
g68
(g89
g70
NtRp2923
(dp2924
g73
(dp2925
g93
g94
ssg82
g2919
sg75
(lp2926
S'wsgi.input'
p2927
asbag68
(g89
g70
NtRp2928
(dp2929
g73
(dp2930
g100
g101
ssg82
g2919
sg75
(lp2931
S':'
asbag68
(g89
g70
NtRp2932
(dp2933
g73
(dp2934
sg82
g2919
sg75
(lp2935
g68
(g69
g70
NtRp2936
(dp2937
g73
(dp2938
g81
I3
ssg82
g2932
sg75
(lp2939
S'<cStringIO.StringO object at 0x9e1e1e0>'
p2940
asbasbasbag68
(g84
g70
NtRp2941
(dp2942
g73
(dp2943
sg82
g2451
sg75
(lp2944
g68
(g89
g70
NtRp2945
(dp2946
g73
(dp2947
g93
g94
ssg82
g2941
sg75
(lp2948
S'wsgi.multiprocess'
p2949
asbag68
(g89
g70
NtRp2950
(dp2951
g73
(dp2952
g100
g101
ssg82
g2941
sg75
(lp2953
S':'
asbag68
(g89
g70
NtRp2954
(dp2955
g73
(dp2956
sg82
g2941
sg75
(lp2957
g68
(g69
g70
NtRp2958
(dp2959
g73
(dp2960
g81
I3
ssg82
g2954
sg75
(lp2961
g111
asbasbasbag68
(g84
g70
NtRp2962
(dp2963
g73
(dp2964
sg82
g2451
sg75
(lp2965
g68
(g89
g70
NtRp2966
(dp2967
g73
(dp2968
g93
g94
ssg82
g2962
sg75
(lp2969
S'wsgi.multithread'
p2970
asbag68
(g89
g70
NtRp2971
(dp2972
g73
(dp2973
g100
g101
ssg82
g2962
sg75
(lp2974
S':'
asbag68
(g89
g70
NtRp2975
(dp2976
g73
(dp2977
sg82
g2962
sg75
(lp2978
g68
(g69
g70
NtRp2979
(dp2980
g73
(dp2981
g81
I3
ssg82
g2975
sg75
(lp2982
g2020
asbasbasbag68
(g84
g70
NtRp2983
(dp2984
g73
(dp2985
sg82
g2451
sg75
(lp2986
g68
(g89
g70
NtRp2987
(dp2988
g73
(dp2989
g93
g94
ssg82
g2983
sg75
(lp2990
S'wsgi.run_once'
p2991
asbag68
(g89
g70
NtRp2992
(dp2993
g73
(dp2994
g100
g101
ssg82
g2983
sg75
(lp2995
S':'
asbag68
(g89
g70
NtRp2996
(dp2997
g73
(dp2998
sg82
g2983
sg75
(lp2999
g68
(g69
g70
NtRp3000
(dp3001
g73
(dp3002
g81
I3
ssg82
g2996
sg75
(lp3003
g111
asbasbasbag68
(g84
g70
NtRp3004
(dp3005
g73
(dp3006
sg82
g2451
sg75
(lp3007
g68
(g89
g70
NtRp3008
(dp3009
g73
(dp3010
g93
g94
ssg82
g3004
sg75
(lp3011
S'wsgi.url_scheme'
p3012
asbag68
(g89
g70
NtRp3013
(dp3014
g73
(dp3015
g100
g101
ssg82
g3004
sg75
(lp3016
S':'
asbag68
(g89
g70
NtRp3017
(dp3018
g73
(dp3019
sg82
g3004
sg75
(lp3020
g68
(g69
g70
NtRp3021
(dp3022
g73
(dp3023
g81
I3
ssg82
g3017
sg75
(lp3024
g2063
asbasbasbag68
(g84
g70
NtRp3025
(dp3026
g73
(dp3027
sg82
g2451
sg75
(lp3028
g68
(g89
g70
NtRp3029
(dp3030
g73
(dp3031
g93
g94
ssg82
g3025
sg75
(lp3032
S'wsgi.version'
p3033
asbag68
(g89
g70
NtRp3034
(dp3035
g73
(dp3036
g100
g101
ssg82
g3025
sg75
(lp3037
S':'
asbag68
(g89
g70
NtRp3038
(dp3039
g73
(dp3040
sg82
g3025
sg75
(lp3041
g68
(g69
g70
NtRp3042
(dp3043
g73
(dp3044
g81
I3
ssg82
g3038
sg75
(lp3045
S'1'
asbasbasbasbasbasbasbasbasbasbasbasbasbsS'frames'
p3046
(lp3047
(dp3048
S'file'
p3049
S'/home/alumno/web2py/gluon/restricted.py'
p3050
sS'dump'
p3051
(dp3052
S'code'
p3053
S'"# -*- coding: utf-8 -*-\\n\\ndb = DAL(\'sqlite://dato..._EMAIL()\\ndb.alumno.hobby.default = \'Estudiar :P\'\\n"'
p3054
sS'layer'
p3055
S"'/home/alumno/web2py/applications/datos/models/db.py'"
p3056
sS'global compile2'
p3057
S'<function compile2>'
p3058
sS'ccode'
p3059
S'undefined'
p3060
ssS'lnum'
p3061
I191
sS'lines'
p3062
(dp3063
I192
S'        exec ccode in environment'
p3064
sI193
S'    except HTTP:'
p3065
sI194
S'        raise'
p3066
sI195
S'    except Exception, error:'
p3067
sI186
S"    environment['__file__'] = layer"
p3068
sI187
S'    try:'
p3069
sI188
S'        if type(code) == types.CodeType:'
p3070
sI189
S'            ccode = code'
p3071
sI190
S'        else:'
p3072
sI191
S'            ccode = compile2(code,layer)'
p3073
ssS'call'
p3074
S'(code="# -*- coding: utf-8 -*-\\n\\ndb = DAL(\'sqlite://dato..._EMAIL()\\ndb.alumno.hobby.default = \'Estudiar :P\'\\n", environment={\'A\': <class \'gluon.html.A\'>, \'B\': <class \'gluon.html.B\'>, \'BEAUTIFY\': <class \'gluon.html.BEAUTIFY\'>, \'BODY\': <class \'gluon.html.BODY\'>, \'BR\': <class \'gluon.html.BR\'>, \'BUTTON\': <class \'gluon.html.BUTTON\'>, \'CAT\': <class \'gluon.html.CAT\'>, \'CENTER\': <class \'gluon.html.CENTER\'>, \'CLEANUP\': <class \'gluon.validators.CLEANUP\'>, \'CODE\': <class \'gluon.html.CODE\'>, ...}, layer=\'/home/alumno/web2py/applications/datos/models/db.py\')'
p3075
sS'func'
p3076
S'restricted'
p3077
sa(dp3078
g3049
S'/home/alumno/web2py/gluon/restricted.py'
p3079
sg3051
(dp3080
S'builtincompile'
p3081
S'<built-in function compile>'
p3082
sS'code'
p3083
S'"# -*- coding: utf-8 -*-\\n\\ndb = DAL(\'sqlite://dato..._EMAIL()\\ndb.alumno.hobby.default = \'Estudiar :P\'\\n"'
p3084
sS'code.rstrip'
p3085
S'<built-in method rstrip of str object>'
p3086
sS').replace'
p3087
g3060
sS'layer'
p3088
S"'/home/alumno/web2py/applications/datos/models/db.py'"
p3089
ssg3061
I178
sg3062
(dp3090
I173
S''
sI174
S'def compile2(code,layer):'
p3091
sI175
S'    """'
p3092
sI176
S"    The +'\\n' is necessary else compile fails when code ends in a comment."
p3093
sI177
S'    """'
p3094
sI178
S"    return compile(code.rstrip().replace('\\r\\n','\\n')+'\\n', layer, 'exec')"
p3095
sI179
S''
sI180
S"def restricted(code, environment={}, layer='Unknown'):"
p3096
sI181
S'    """'
p3097
sI182
S'    runs code in environment and returns the output. if an exception occurs'
p3098
ssg3074
S'(code="# -*- coding: utf-8 -*-\\n\\ndb = DAL(\'sqlite://dato..._EMAIL()\\ndb.alumno.hobby.default = \'Estudiar :P\'\\n", layer=\'/home/alumno/web2py/applications/datos/models/db.py\')'
p3099
sg3076
S'compile2'
p3100
sasS'pyver'
p3101
S'Python 2.6.6: /usr/bin/python'
p3102
sS'session'
p3103
g68
(g69
g70
NtRp3104
(dp3105
g73
(dp3106
sg75
(lp3107
g68
(g77
g70
NtRp3108
(dp3109
g73
(dp3110
g81
I5
ssg82
Nsg75
(lp3111
sbasbsS'etype'
p3112
S"<type 'exceptions.SyntaxError'>"
p3113
sS'date'
p3114
S'Wed Sep  7 19:08:16 2011'
p3115
sS'response'
p3116
g68
(g69
g70
NtRp3117
(dp3118
g73
(dp3119
sg75
(lp3120
g68
(g77
g70
NtRp3121
(dp3122
g73
(dp3123
g81
I5
ssg82
Nsg75
(lp3124
g68
(g84
g70
NtRp3125
(dp3126
g73
(dp3127
sg82
g3121
sg75
(lp3128
g68
(g89
g70
NtRp3129
(dp3130
g73
(dp3131
g93
g94
ssg82
g3125
sg75
(lp3132
g192
asbag68
(g89
g70
NtRp3133
(dp3134
g73
(dp3135
g100
g101
ssg82
g3125
sg75
(lp3136
S':'
asbag68
(g89
g70
NtRp3137
(dp3138
g73
(dp3139
sg82
g3125
sg75
(lp3140
g68
(g69
g70
NtRp3141
(dp3142
g73
(dp3143
g81
I5
ssg82
g3137
sg75
(lp3144
S'<cStringIO.StringO object at 0x9e1e0e0>'
p3145
asbasbasbag68
(g84
g70
NtRp3146
(dp3147
g73
(dp3148
sg82
g3121
sg75
(lp3149
g68
(g89
g70
NtRp3150
(dp3151
g73
(dp3152
g93
g94
ssg82
g3146
sg75
(lp3153
g258
asbag68
(g89
g70
NtRp3154
(dp3155
g73
(dp3156
g100
g101
ssg82
g3146
sg75
(lp3157
S':'
asbag68
(g89
g70
NtRp3158
(dp3159
g73
(dp3160
sg82
g3146
sg75
(lp3161
g68
(g69
g70
NtRp3162
(dp3163
g73
(dp3164
g81
I5
ssg82
g3158
sg75
(lp3165
g68
(g77
g70
NtRp3166
(dp3167
g73
(dp3168
g81
I4
ssg82
Nsg75
(lp3169
g68
(g84
g70
NtRp3170
(dp3171
g73
(dp3172
sg82
g3166
sg75
(lp3173
g68
(g89
g70
NtRp3174
(dp3175
g73
(dp3176
g93
g94
ssg82
g3170
sg75
(lp3177
S'session_id_datos'
p3178
asbag68
(g89
g70
NtRp3179
(dp3180
g73
(dp3181
g100
g101
ssg82
g3170
sg75
(lp3182
S':'
asbag68
(g89
g70
NtRp3183
(dp3184
g73
(dp3185
sg82
g3170
sg75
(lp3186
g68
(g69
g70
NtRp3187
(dp3188
g73
(dp3189
g81
I4
ssg82
g3183
sg75
(lp3190
g68
(g77
g70
NtRp3191
(dp3192
g73
(dp3193
g81
I3
ssg82
Nsg75
(lp3194
g68
(g84
g70
NtRp3195
(dp3196
g73
(dp3197
sg82
g3191
sg75
(lp3198
g68
(g89
g70
NtRp3199
(dp3200
g73
(dp3201
g93
g94
ssg82
g3195
sg75
(lp3202
g308
asbag68
(g89
g70
NtRp3203
(dp3204
g73
(dp3205
g100
g101
ssg82
g3195
sg75
(lp3206
S':'
asbag68
(g89
g70
NtRp3207
(dp3208
g73
(dp3209
sg82
g3195
sg75
(lp3210
g68
(g69
g70
NtRp3211
(dp3212
g73
(dp3213
g81
I3
ssg82
g3207
sg75
(lp3214
S''
asbasbasbag68
(g84
g70
NtRp3215
(dp3216
g73
(dp3217
sg82
g3191
sg75
(lp3218
g68
(g89
g70
NtRp3219
(dp3220
g73
(dp3221
g93
g94
ssg82
g3215
sg75
(lp3222
g329
asbag68
(g89
g70
NtRp3223
(dp3224
g73
(dp3225
g100
g101
ssg82
g3215
sg75
(lp3226
S':'
asbag68
(g89
g70
NtRp3227
(dp3228
g73
(dp3229
sg82
g3215
sg75
(lp3230
g68
(g69
g70
NtRp3231
(dp3232
g73
(dp3233
g81
I3
ssg82
g3227
sg75
(lp3234
S''
asbasbasbag68
(g84
g70
NtRp3235
(dp3236
g73
(dp3237
sg82
g3191
sg75
(lp3238
g68
(g89
g70
NtRp3239
(dp3240
g73
(dp3241
g93
g94
ssg82
g3235
sg75
(lp3242
g350
asbag68
(g89
g70
NtRp3243
(dp3244
g73
(dp3245
g100
g101
ssg82
g3235
sg75
(lp3246
S':'
asbag68
(g89
g70
NtRp3247
(dp3248
g73
(dp3249
sg82
g3235
sg75
(lp3250
g68
(g69
g70
NtRp3251
(dp3252
g73
(dp3253
g81
I3
ssg82
g3247
sg75
(lp3254
S''
asbasbasbag68
(g84
g70
NtRp3255
(dp3256
g73
(dp3257
sg82
g3191
sg75
(lp3258
g68
(g89
g70
NtRp3259
(dp3260
g73
(dp3261
g93
g94
ssg82
g3255
sg75
(lp3262
g371
asbag68
(g89
g70
NtRp3263
(dp3264
g73
(dp3265
g100
g101
ssg82
g3255
sg75
(lp3266
S':'
asbag68
(g89
g70
NtRp3267
(dp3268
g73
(dp3269
sg82
g3255
sg75
(lp3270
g68
(g69
g70
NtRp3271
(dp3272
g73
(dp3273
g81
I3
ssg82
g3267
sg75
(lp3274
S''
asbasbasbag68
(g84
g70
NtRp3275
(dp3276
g73
(dp3277
sg82
g3191
sg75
(lp3278
g68
(g89
g70
NtRp3279
(dp3280
g73
(dp3281
g93
g94
ssg82
g3275
sg75
(lp3282
g392
asbag68
(g89
g70
NtRp3283
(dp3284
g73
(dp3285
g100
g101
ssg82
g3275
sg75
(lp3286
S':'
asbag68
(g89
g70
NtRp3287
(dp3288
g73
(dp3289
sg82
g3275
sg75
(lp3290
g68
(g69
g70
NtRp3291
(dp3292
g73
(dp3293
g81
I3
ssg82
g3287
sg75
(lp3294
S''
asbasbasbag68
(g84
g70
NtRp3295
(dp3296
g73
(dp3297
sg82
g3191
sg75
(lp3298
g68
(g89
g70
NtRp3299
(dp3300
g73
(dp3301
g93
g94
ssg82
g3295
sg75
(lp3302
g413
asbag68
(g89
g70
NtRp3303
(dp3304
g73
(dp3305
g100
g101
ssg82
g3295
sg75
(lp3306
S':'
asbag68
(g89
g70
NtRp3307
(dp3308
g73
(dp3309
sg82
g3295
sg75
(lp3310
g68
(g69
g70
NtRp3311
(dp3312
g73
(dp3313
g81
I3
ssg82
g3307
sg75
(lp3314
S'/'
asbasbasbag68
(g84
g70
NtRp3315
(dp3316
g73
(dp3317
sg82
g3191
sg75
(lp3318
g68
(g89
g70
NtRp3319
(dp3320
g73
(dp3321
g93
g94
ssg82
g3315
sg75
(lp3322
g434
asbag68
(g89
g70
NtRp3323
(dp3324
g73
(dp3325
g100
g101
ssg82
g3315
sg75
(lp3326
S':'
asbag68
(g89
g70
NtRp3327
(dp3328
g73
(dp3329
sg82
g3315
sg75
(lp3330
g68
(g69
g70
NtRp3331
(dp3332
g73
(dp3333
g81
I3
ssg82
g3327
sg75
(lp3334
S''
asbasbasbag68
(g84
g70
NtRp3335
(dp3336
g73
(dp3337
sg82
g3191
sg75
(lp3338
g68
(g89
g70
NtRp3339
(dp3340
g73
(dp3341
g93
g94
ssg82
g3335
sg75
(lp3342
g455
asbag68
(g89
g70
NtRp3343
(dp3344
g73
(dp3345
g100
g101
ssg82
g3335
sg75
(lp3346
S':'
asbag68
(g89
g70
NtRp3347
(dp3348
g73
(dp3349
sg82
g3335
sg75
(lp3350
g68
(g69
g70
NtRp3351
(dp3352
g73
(dp3353
g81
I3
ssg82
g3347
sg75
(lp3354
S''
asbasbasbasbasbasbasbasbasbasbasbag68
(g84
g70
NtRp3355
(dp3356
g73
(dp3357
sg82
g3121
sg75
(lp3358
g68
(g89
g70
NtRp3359
(dp3360
g73
(dp3361
g93
g94
ssg82
g3355
sg75
(lp3362
S'files'
p3363
asbag68
(g89
g70
NtRp3364
(dp3365
g73
(dp3366
g100
g101
ssg82
g3355
sg75
(lp3367
S':'
asbag68
(g89
g70
NtRp3368
(dp3369
g73
(dp3370
sg82
g3355
sg75
(lp3371
g68
(g69
g70
NtRp3372
(dp3373
g73
(dp3374
g81
I5
ssg82
g3368
sg75
(lp3375
g68
(g77
g70
NtRp3376
(dp3377
g73
(dp3378
g81
I4
ssg82
Nsg75
(lp3379
sbasbasbasbag68
(g84
g70
NtRp3380
(dp3381
g73
(dp3382
sg82
g3121
sg75
(lp3383
g68
(g89
g70
NtRp3384
(dp3385
g73
(dp3386
g93
g94
ssg82
g3380
sg75
(lp3387
S'flash'
p3388
asbag68
(g89
g70
NtRp3389
(dp3390
g73
(dp3391
g100
g101
ssg82
g3380
sg75
(lp3392
S':'
asbag68
(g89
g70
NtRp3393
(dp3394
g73
(dp3395
sg82
g3380
sg75
(lp3396
g68
(g69
g70
NtRp3397
(dp3398
g73
(dp3399
g81
I5
ssg82
g3393
sg75
(lp3400
S''
asbasbasbag68
(g84
g70
NtRp3401
(dp3402
g73
(dp3403
sg82
g3121
sg75
(lp3404
g68
(g89
g70
NtRp3405
(dp3406
g73
(dp3407
g93
g94
ssg82
g3401
sg75
(lp3408
S'generic_patterns'
p3409
asbag68
(g89
g70
NtRp3410
(dp3411
g73
(dp3412
g100
g101
ssg82
g3401
sg75
(lp3413
S':'
asbag68
(g89
g70
NtRp3414
(dp3415
g73
(dp3416
sg82
g3401
sg75
(lp3417
g68
(g69
g70
NtRp3418
(dp3419
g73
(dp3420
g81
I5
ssg82
g3414
sg75
(lp3421
g68
(g77
g70
NtRp3422
(dp3423
g73
(dp3424
g81
I4
ssg82
Nsg75
(lp3425
sbasbasbasbag68
(g84
g70
NtRp3426
(dp3427
g73
(dp3428
sg82
g3121
sg75
(lp3429
g68
(g89
g70
NtRp3430
(dp3431
g73
(dp3432
g93
g94
ssg82
g3426
sg75
(lp3433
S'headers'
p3434
asbag68
(g89
g70
NtRp3435
(dp3436
g73
(dp3437
g100
g101
ssg82
g3426
sg75
(lp3438
S':'
asbag68
(g89
g70
NtRp3439
(dp3440
g73
(dp3441
sg82
g3426
sg75
(lp3442
g68
(g69
g70
NtRp3443
(dp3444
g73
(dp3445
g81
I5
ssg82
g3439
sg75
(lp3446
g68
(g77
g70
NtRp3447
(dp3448
g73
(dp3449
g81
I4
ssg82
Nsg75
(lp3450
g68
(g84
g70
NtRp3451
(dp3452
g73
(dp3453
sg82
g3447
sg75
(lp3454
g68
(g89
g70
NtRp3455
(dp3456
g73
(dp3457
g93
g94
ssg82
g3451
sg75
(lp3458
S'Cache-Control'
p3459
asbag68
(g89
g70
NtRp3460
(dp3461
g73
(dp3462
g100
g101
ssg82
g3451
sg75
(lp3463
S':'
asbag68
(g89
g70
NtRp3464
(dp3465
g73
(dp3466
sg82
g3451
sg75
(lp3467
g68
(g69
g70
NtRp3468
(dp3469
g73
(dp3470
g81
I4
ssg82
g3464
sg75
(lp3471
S'no-store, no-cache, must-revalidate, post-check=0, pre-check=0'
p3472
asbasbasbag68
(g84
g70
NtRp3473
(dp3474
g73
(dp3475
sg82
g3447
sg75
(lp3476
g68
(g89
g70
NtRp3477
(dp3478
g73
(dp3479
g93
g94
ssg82
g3473
sg75
(lp3480
S'Content-Type'
p3481
asbag68
(g89
g70
NtRp3482
(dp3483
g73
(dp3484
g100
g101
ssg82
g3473
sg75
(lp3485
S':'
asbag68
(g89
g70
NtRp3486
(dp3487
g73
(dp3488
sg82
g3473
sg75
(lp3489
g68
(g69
g70
NtRp3490
(dp3491
g73
(dp3492
g81
I4
ssg82
g3486
sg75
(lp3493
S'text/html; charset=utf-8'
p3494
asbasbasbag68
(g84
g70
NtRp3495
(dp3496
g73
(dp3497
sg82
g3447
sg75
(lp3498
g68
(g89
g70
NtRp3499
(dp3500
g73
(dp3501
g93
g94
ssg82
g3495
sg75
(lp3502
S'Expires'
p3503
asbag68
(g89
g70
NtRp3504
(dp3505
g73
(dp3506
g100
g101
ssg82
g3495
sg75
(lp3507
S':'
asbag68
(g89
g70
NtRp3508
(dp3509
g73
(dp3510
sg82
g3495
sg75
(lp3511
g68
(g69
g70
NtRp3512
(dp3513
g73
(dp3514
g81
I4
ssg82
g3508
sg75
(lp3515
S'Thu, 08 Sep 2011 00:08:16 GMT'
p3516
asbasbasbag68
(g84
g70
NtRp3517
(dp3518
g73
(dp3519
sg82
g3447
sg75
(lp3520
g68
(g89
g70
NtRp3521
(dp3522
g73
(dp3523
g93
g94
ssg82
g3517
sg75
(lp3524
S'Pragma'
p3525
asbag68
(g89
g70
NtRp3526
(dp3527
g73
(dp3528
g100
g101
ssg82
g3517
sg75
(lp3529
S':'
asbag68
(g89
g70
NtRp3530
(dp3531
g73
(dp3532
sg82
g3517
sg75
(lp3533
g68
(g69
g70
NtRp3534
(dp3535
g73
(dp3536
g81
I4
ssg82
g3530
sg75
(lp3537
S'no-cache'
p3538
asbasbasbag68
(g84
g70
NtRp3539
(dp3540
g73
(dp3541
sg82
g3447
sg75
(lp3542
g68
(g89
g70
NtRp3543
(dp3544
g73
(dp3545
g93
g94
ssg82
g3539
sg75
(lp3546
S'X-Powered-By'
p3547
asbag68
(g89
g70
NtRp3548
(dp3549
g73
(dp3550
g100
g101
ssg82
g3539
sg75
(lp3551
S':'
asbag68
(g89
g70
NtRp3552
(dp3553
g73
(dp3554
sg82
g3539
sg75
(lp3555
g68
(g69
g70
NtRp3556
(dp3557
g73
(dp3558
g81
I4
ssg82
g3552
sg75
(lp3559
S'web2py'
p3560
asbasbasbasbasbasbasbag68
(g84
g70
NtRp3561
(dp3562
g73
(dp3563
sg82
g3121
sg75
(lp3564
g68
(g89
g70
NtRp3565
(dp3566
g73
(dp3567
g93
g94
ssg82
g3561
sg75
(lp3568
S'menu'
p3569
asbag68
(g89
g70
NtRp3570
(dp3571
g73
(dp3572
g100
g101
ssg82
g3561
sg75
(lp3573
S':'
asbag68
(g89
g70
NtRp3574
(dp3575
g73
(dp3576
sg82
g3561
sg75
(lp3577
g68
(g69
g70
NtRp3578
(dp3579
g73
(dp3580
g81
I5
ssg82
g3574
sg75
(lp3581
g68
(g77
g70
NtRp3582
(dp3583
g73
(dp3584
g81
I4
ssg82
Nsg75
(lp3585
sbasbasbasbag68
(g84
g70
NtRp3586
(dp3587
g73
(dp3588
sg82
g3121
sg75
(lp3589
g68
(g89
g70
NtRp3590
(dp3591
g73
(dp3592
g93
g94
ssg82
g3586
sg75
(lp3593
S'meta'
p3594
asbag68
(g89
g70
NtRp3595
(dp3596
g73
(dp3597
g100
g101
ssg82
g3586
sg75
(lp3598
S':'
asbag68
(g89
g70
NtRp3599
(dp3600
g73
(dp3601
sg82
g3586
sg75
(lp3602
g68
(g69
g70
NtRp3603
(dp3604
g73
(dp3605
g81
I5
ssg82
g3599
sg75
(lp3606
g68
(g77
g70
NtRp3607
(dp3608
g73
(dp3609
g81
I4
ssg82
Nsg75
(lp3610
sbasbasbasbag68
(g84
g70
NtRp3611
(dp3612
g73
(dp3613
sg82
g3121
sg75
(lp3614
g68
(g89
g70
NtRp3615
(dp3616
g73
(dp3617
g93
g94
ssg82
g3611
sg75
(lp3618
S'postprocessing'
p3619
asbag68
(g89
g70
NtRp3620
(dp3621
g73
(dp3622
g100
g101
ssg82
g3611
sg75
(lp3623
S':'
asbag68
(g89
g70
NtRp3624
(dp3625
g73
(dp3626
sg82
g3611
sg75
(lp3627
g68
(g69
g70
NtRp3628
(dp3629
g73
(dp3630
g81
I5
ssg82
g3624
sg75
(lp3631
g68
(g77
g70
NtRp3632
(dp3633
g73
(dp3634
g81
I4
ssg82
Nsg75
(lp3635
sbasbasbasbag68
(g84
g70
NtRp3636
(dp3637
g73
(dp3638
sg82
g3121
sg75
(lp3639
g68
(g89
g70
NtRp3640
(dp3641
g73
(dp3642
g93
g94
ssg82
g3636
sg75
(lp3643
S'session_file'
p3644
asbag68
(g89
g70
NtRp3645
(dp3646
g73
(dp3647
g100
g101
ssg82
g3636
sg75
(lp3648
S':'
asbag68
(g89
g70
NtRp3649
(dp3650
g73
(dp3651
sg82
g3636
sg75
(lp3652
g68
(g69
g70
NtRp3653
(dp3654
g73
(dp3655
g81
I5
ssg82
g3649
sg75
(lp3656
S"<open file '/home/alumno/web2py/applications/datos/sessions/127.0.0.1-db62c583-5264-4eba-ba24-7cb87b43795a', mode 'rb+' at 0xa081650>"
p3657
asbasbasbag68
(g84
g70
NtRp3658
(dp3659
g73
(dp3660
sg82
g3121
sg75
(lp3661
g68
(g89
g70
NtRp3662
(dp3663
g73
(dp3664
g93
g94
ssg82
g3658
sg75
(lp3665
S'session_filename'
p3666
asbag68
(g89
g70
NtRp3667
(dp3668
g73
(dp3669
g100
g101
ssg82
g3658
sg75
(lp3670
S':'
asbag68
(g89
g70
NtRp3671
(dp3672
g73
(dp3673
sg82
g3658
sg75
(lp3674
g68
(g69
g70
NtRp3675
(dp3676
g73
(dp3677
g81
I5
ssg82
g3671
sg75
(lp3678
S'/home/alumno/web2py/applications/datos/sessions/127.0.0.1-db62c583-5264-4eba-ba24-7cb87b43795a'
p3679
asbasbasbag68
(g84
g70
NtRp3680
(dp3681
g73
(dp3682
sg82
g3121
sg75
(lp3683
g68
(g89
g70
NtRp3684
(dp3685
g73
(dp3686
g93
g94
ssg82
g3680
sg75
(lp3687
S'session_id'
p3688
asbag68
(g89
g70
NtRp3689
(dp3690
g73
(dp3691
g100
g101
ssg82
g3680
sg75
(lp3692
S':'
asbag68
(g89
g70
NtRp3693
(dp3694
g73
(dp3695
sg82
g3680
sg75
(lp3696
g68
(g69
g70
NtRp3697
(dp3698
g73
(dp3699
g81
I5
ssg82
g3693
sg75
(lp3700
S'127.0.0.1-db62c583-5264-4eba-ba24-7cb87b43795a'
p3701
asbasbasbag68
(g84
g70
NtRp3702
(dp3703
g73
(dp3704
sg82
g3121
sg75
(lp3705
g68
(g89
g70
NtRp3706
(dp3707
g73
(dp3708
g93
g94
ssg82
g3702
sg75
(lp3709
S'session_id_name'
p3710
asbag68
(g89
g70
NtRp3711
(dp3712
g73
(dp3713
g100
g101
ssg82
g3702
sg75
(lp3714
S':'
asbag68
(g89
g70
NtRp3715
(dp3716
g73
(dp3717
sg82
g3702
sg75
(lp3718
g68
(g69
g70
NtRp3719
(dp3720
g73
(dp3721
g81
I5
ssg82
g3715
sg75
(lp3722
g3178
asbasbasbag68
(g84
g70
NtRp3723
(dp3724
g73
(dp3725
sg82
g3121
sg75
(lp3726
g68
(g89
g70
NtRp3727
(dp3728
g73
(dp3729
g93
g94
ssg82
g3723
sg75
(lp3730
S'session_locked'
p3731
asbag68
(g89
g70
NtRp3732
(dp3733
g73
(dp3734
g100
g101
ssg82
g3723
sg75
(lp3735
S':'
asbag68
(g89
g70
NtRp3736
(dp3737
g73
(dp3738
sg82
g3723
sg75
(lp3739
g68
(g69
g70
NtRp3740
(dp3741
g73
(dp3742
g81
I5
ssg82
g3736
sg75
(lp3743
g2020
asbasbasbag68
(g84
g70
NtRp3744
(dp3745
g73
(dp3746
sg82
g3121
sg75
(lp3747
g68
(g89
g70
NtRp3748
(dp3749
g73
(dp3750
g93
g94
ssg82
g3744
sg75
(lp3751
S'session_new'
p3752
asbag68
(g89
g70
NtRp3753
(dp3754
g73
(dp3755
g100
g101
ssg82
g3744
sg75
(lp3756
S':'
asbag68
(g89
g70
NtRp3757
(dp3758
g73
(dp3759
sg82
g3744
sg75
(lp3760
g68
(g69
g70
NtRp3761
(dp3762
g73
(dp3763
g81
I5
ssg82
g3757
sg75
(lp3764
g111
asbasbasbag68
(g84
g70
NtRp3765
(dp3766
g73
(dp3767
sg82
g3121
sg75
(lp3768
g68
(g89
g70
NtRp3769
(dp3770
g73
(dp3771
g93
g94
ssg82
g3765
sg75
(lp3772
S'status'
p3773
asbag68
(g89
g70
NtRp3774
(dp3775
g73
(dp3776
g100
g101
ssg82
g3765
sg75
(lp3777
S':'
asbag68
(g89
g70
NtRp3778
(dp3779
g73
(dp3780
sg82
g3765
sg75
(lp3781
g68
(g69
g70
NtRp3782
(dp3783
g73
(dp3784
g81
I5
ssg82
g3778
sg75
(lp3785
S'200'
p3786
asbasbasbag68
(g84
g70
NtRp3787
(dp3788
g73
(dp3789
sg82
g3121
sg75
(lp3790
g68
(g89
g70
NtRp3791
(dp3792
g73
(dp3793
g93
g94
ssg82
g3787
sg75
(lp3794
g2366
asbag68
(g89
g70
NtRp3795
(dp3796
g73
(dp3797
g100
g101
ssg82
g3787
sg75
(lp3798
S':'
asbag68
(g89
g70
NtRp3799
(dp3800
g73
(dp3801
sg82
g3787
sg75
(lp3802
g68
(g69
g70
NtRp3803
(dp3804
g73
(dp3805
g81
I5
ssg82
g3799
sg75
(lp3806
g2379
asbasbasbag68
(g84
g70
NtRp3807
(dp3808
g73
(dp3809
sg82
g3121
sg75
(lp3810
g68
(g89
g70
NtRp3811
(dp3812
g73
(dp3813
g93
g94
ssg82
g3807
sg75
(lp3814
S'view'
p3815
asbag68
(g89
g70
NtRp3816
(dp3817
g73
(dp3818
g100
g101
ssg82
g3807
sg75
(lp3819
S':'
asbag68
(g89
g70
NtRp3820
(dp3821
g73
(dp3822
sg82
g3807
sg75
(lp3823
g68
(g69
g70
NtRp3824
(dp3825
g73
(dp3826
g81
I5
ssg82
g3820
sg75
(lp3827
S'appadmin/insert.html'
p3828
asbasbasbasbasbsS'locals'
p3829
(dp3830
g3
S"'/home/alumno/web2py/applications/datos/models/db.py'"
p3831
sg5
S'"# -*- coding: utf-8 -*-\\n\\ndb = DAL(\'sqlite://dato..._EMAIL()\\ndb.alumno.hobby.default = \'Estudiar :P\'\\n"'
p3832
sssS'traceback'
p3833
S'Traceback (most recent call last):\n  File "/home/alumno/web2py/gluon/restricted.py", line 191, in restricted\n    ccode = compile2(code,layer)\n  File "/home/alumno/web2py/gluon/restricted.py", line 178, in compile2\n    return compile(code.rstrip().replace(\'\\r\\n\',\'\\n\')+\'\\n\', layer, \'exec\')\n  File "/home/alumno/web2py/applications/datos/models/db.py", line 11\n    db.alumno.codigo.requires = IS_NOT_EMPTY(error =mesage\'no puede estar vacio\')\n                                                                               ^\nSyntaxError: invalid syntax\n'
p3834
s.