(dp1
S'output'
p2
S''
sS'layer'
p3
S'/home/alumno/web2py/applications/datos/controllers/default.py'
p4
sS'code'
p5
S'# -*- coding: utf-8 -*-\n# this file is released under public domain and you can use without limitations\n\n#########################################################################\n## This is a samples controller\n## - index is the default action of any application\n## - user is required for authentication and authorization\n## - download is for downloading files uploaded in the db (does streaming)\n## - call exposes all registered services (none by default)\n#########################################################################\n\ndef index():\n\t#sentencia \n\talumnos = db().select(db.alumnos.ALL)\n    return dict(alumnos=alumnos)\n\ndef user():\n    """\n    exposes:\n    http://..../[app]/default/user/login\n    http://..../[app]/default/user/logout\n    http://..../[app]/default/user/register\n    http://..../[app]/default/user/profile\n    http://..../[app]/default/user/retrieve_password\n    http://..../[app]/default/user/change_password\n    use @auth.requires_login()\n        @auth.requires_membership(\'group name\')\n        @auth.requires_permission(\'read\',\'table name\',record_id)\n    to decorate functions that need access control\n    """\n    return dict(form=auth())\n\n\ndef download():\n    """\n    allows downloading of uploaded files\n    http://..../[app]/default/download/[filename]\n    """\n    return response.download(request,db)\n\n\ndef call():\n    """\n    exposes services. for example:\n    http://..../[app]/default/call/jsonrpc\n    decorate with @services.jsonrpc the functions to expose\n    supports xml, json, xmlrpc, jsonrpc, amfrpc, rss, csv\n    """\n    return service()\n\n\n@auth.requires_signature()\ndef data():\n    """\n    http://..../[app]/default/data/tables\n    http://..../[app]/default/data/create/[table]\n    http://..../[app]/default/data/read/[table]/[id]\n    http://..../[app]/default/data/update/[table]/[id]\n    http://..../[app]/default/data/delete/[table]/[id[\n    http://..../[app]/default/data/select/[table]\n    http://..../[app]/default/data/search/[table]\n    but URLs bust be signed, i.e. linked with\n      A(\'table\',_href=URL(\'data/tables\',user_signature=True))\n    or with the signed load operator\n      LOAD(\'default\',\'data.load\',args=\'tables\',ajax=True,user_signature=True)\n    """\n    return dict(form=crud())\n\nresponse._vars=response._caller(index)\n'
p6
sS'snapshot'
p7
(dp8
S'exception'
p9
(dp10
S'__getslice__'
p11
S"<method-wrapper '__getslice__' of exceptions.IndentationError object>"
p12
sS'text'
p13
S"'    return dict(alumnos=alumnos)\\n'"
p14
sS'__str__'
p15
S"<method-wrapper '__str__' of exceptions.IndentationError object>"
p16
sS'__reduce__'
p17
S'<built-in method __reduce__ of exceptions.IndentationError object>'
p18
sS'__dict__'
p19
S'{}'
p20
sS'__sizeof__'
p21
S'<built-in method __sizeof__ of exceptions.IndentationError object>'
p22
sS'__init__'
p23
S"<method-wrapper '__init__' of exceptions.IndentationError object>"
p24
sS'__setattr__'
p25
S"<method-wrapper '__setattr__' of exceptions.IndentationError object>"
p26
sS'__reduce_ex__'
p27
S'<built-in method __reduce_ex__ of exceptions.IndentationError object>'
p28
sS'__new__'
p29
S'<built-in method __new__ of type object>'
p30
sS'__format__'
p31
S'<built-in method __format__ of exceptions.IndentationError object>'
p32
sS'__class__'
p33
S"<type 'exceptions.IndentationError'>"
p34
sS'filename'
p35
S"'/home/alumno/web2py/applications/datos/controllers/default.py'"
p36
sS'lineno'
p37
S'15'
p38
sS'msg'
p39
S"'unindent does not match any outer indentation level'"
p40
sS'__doc__'
p41
S"'Improper indentation.'"
p42
sS'__getitem__'
p43
S"<method-wrapper '__getitem__' of exceptions.IndentationError object>"
p44
sS'__setstate__'
p45
S'<built-in method __setstate__ of exceptions.IndentationError object>'
p46
sS'__getattribute__'
p47
S"<method-wrapper '__getattribute__' of exceptions.IndentationError object>"
p48
sS'print_file_and_line'
p49
S'None'
p50
sS'args'
p51
S"('unindent does not match any outer indentation level', ('/home/alumno/web2py/applications/datos/controllers/default.py', 15, 33, '    return dict(alumnos=alumnos)\\n'))"
p52
sS'__subclasshook__'
p53
S'<built-in method __subclasshook__ of type object>'
p54
sS'offset'
p55
S'33'
p56
sS'__unicode__'
p57
S'<built-in method __unicode__ of exceptions.IndentationError object>'
p58
sS'__delattr__'
p59
S"<method-wrapper '__delattr__' of exceptions.IndentationError object>"
p60
sS'__repr__'
p61
S"<method-wrapper '__repr__' of exceptions.IndentationError object>"
p62
sS'__hash__'
p63
S"<method-wrapper '__hash__' of exceptions.IndentationError object>"
p64
ssS'evalue'
p65
S'unindent does not match any outer indentation level (default.py, line 15)'
p66
sS'request'
p67
ccopy_reg
_reconstructor
p68
(cgluon.html
BEAUTIFY
p69
c__builtin__
object
p70
NtRp71
(dp72
S'attributes'
p73
(dp74
sS'components'
p75
(lp76
g68
(cgluon.html
TABLE
p77
g70
NtRp78
(dp79
g73
(dp80
S'level'
p81
I5
ssS'parent'
p82
Nsg75
(lp83
g68
(cgluon.html
TR
p84
g70
NtRp85
(dp86
g73
(dp87
sg82
g78
sg75
(lp88
g68
(cgluon.html
TD
p89
g70
NtRp90
(dp91
g73
(dp92
S'_style'
p93
S'font-weight:bold;'
p94
ssg82
g85
sg75
(lp95
S'ajax'
p96
asbag68
(g89
g70
NtRp97
(dp98
g73
(dp99
S'_valign'
p100
S'top'
p101
ssg82
g85
sg75
(lp102
S':'
asbag68
(g89
g70
NtRp103
(dp104
g73
(dp105
sg82
g85
sg75
(lp106
g68
(g69
g70
NtRp107
(dp108
g73
(dp109
g81
I5
ssg82
g103
sg75
(lp110
S'False'
p111
asbasbasbag68
(g84
g70
NtRp112
(dp113
g73
(dp114
sg82
g78
sg75
(lp115
g68
(g89
g70
NtRp116
(dp117
g73
(dp118
g93
g94
ssg82
g112
sg75
(lp119
S'application'
p120
asbag68
(g89
g70
NtRp121
(dp122
g73
(dp123
g100
g101
ssg82
g112
sg75
(lp124
S':'
asbag68
(g89
g70
NtRp125
(dp126
g73
(dp127
sg82
g112
sg75
(lp128
g68
(g69
g70
NtRp129
(dp130
g73
(dp131
g81
I5
ssg82
g125
sg75
(lp132
S'datos'
p133
asbasbasbag68
(g84
g70
NtRp134
(dp135
g73
(dp136
sg82
g78
sg75
(lp137
g68
(g89
g70
NtRp138
(dp139
g73
(dp140
g93
g94
ssg82
g134
sg75
(lp141
g51
asbag68
(g89
g70
NtRp142
(dp143
g73
(dp144
g100
g101
ssg82
g134
sg75
(lp145
S':'
asbag68
(g89
g70
NtRp146
(dp147
g73
(dp148
sg82
g134
sg75
(lp149
g68
(g69
g70
NtRp150
(dp151
g73
(dp152
g81
I5
ssg82
g146
sg75
(lp153
g68
(g77
g70
NtRp154
(dp155
g73
(dp156
g81
I4
ssg82
Nsg75
(lp157
sbasbasbasbag68
(g84
g70
NtRp158
(dp159
g73
(dp160
sg82
g78
sg75
(lp161
g68
(g89
g70
NtRp162
(dp163
g73
(dp164
g93
g94
ssg82
g158
sg75
(lp165
S'body'
p166
asbag68
(g89
g70
NtRp167
(dp168
g73
(dp169
g100
g101
ssg82
g158
sg75
(lp170
S':'
asbag68
(g89
g70
NtRp171
(dp172
g73
(dp173
sg82
g158
sg75
(lp174
g68
(g69
g70
NtRp175
(dp176
g73
(dp177
g81
I5
ssg82
g171
sg75
(lp178
S'<cStringIO.StringO object at 0x9dffe20>'
p179
asbasbasbag68
(g84
g70
NtRp180
(dp181
g73
(dp182
sg82
g78
sg75
(lp183
g68
(g89
g70
NtRp184
(dp185
g73
(dp186
g93
g94
ssg82
g180
sg75
(lp187
S'client'
p188
asbag68
(g89
g70
NtRp189
(dp190
g73
(dp191
g100
g101
ssg82
g180
sg75
(lp192
S':'
asbag68
(g89
g70
NtRp193
(dp194
g73
(dp195
sg82
g180
sg75
(lp196
g68
(g69
g70
NtRp197
(dp198
g73
(dp199
g81
I5
ssg82
g193
sg75
(lp200
S'127.0.0.1'
p201
asbasbasbag68
(g84
g70
NtRp202
(dp203
g73
(dp204
sg82
g78
sg75
(lp205
g68
(g89
g70
NtRp206
(dp207
g73
(dp208
g93
g94
ssg82
g202
sg75
(lp209
S'controller'
p210
asbag68
(g89
g70
NtRp211
(dp212
g73
(dp213
g100
g101
ssg82
g202
sg75
(lp214
S':'
asbag68
(g89
g70
NtRp215
(dp216
g73
(dp217
sg82
g202
sg75
(lp218
g68
(g69
g70
NtRp219
(dp220
g73
(dp221
g81
I5
ssg82
g215
sg75
(lp222
S'default'
p223
asbasbasbag68
(g84
g70
NtRp224
(dp225
g73
(dp226
sg82
g78
sg75
(lp227
g68
(g89
g70
NtRp228
(dp229
g73
(dp230
g93
g94
ssg82
g224
sg75
(lp231
S'cookies'
p232
asbag68
(g89
g70
NtRp233
(dp234
g73
(dp235
g100
g101
ssg82
g224
sg75
(lp236
S':'
asbag68
(g89
g70
NtRp237
(dp238
g73
(dp239
sg82
g224
sg75
(lp240
g68
(g69
g70
NtRp241
(dp242
g73
(dp243
g81
I5
ssg82
g237
sg75
(lp244
g68
(g77
g70
NtRp245
(dp246
g73
(dp247
g81
I4
ssg82
Nsg75
(lp248
g68
(g84
g70
NtRp249
(dp250
g73
(dp251
sg82
g245
sg75
(lp252
g68
(g89
g70
NtRp253
(dp254
g73
(dp255
g93
g94
ssg82
g249
sg75
(lp256
S'adminLanguage'
p257
asbag68
(g89
g70
NtRp258
(dp259
g73
(dp260
g100
g101
ssg82
g249
sg75
(lp261
S':'
asbag68
(g89
g70
NtRp262
(dp263
g73
(dp264
sg82
g249
sg75
(lp265
g68
(g69
g70
NtRp266
(dp267
g73
(dp268
g81
I4
ssg82
g262
sg75
(lp269
g68
(g77
g70
NtRp270
(dp271
g73
(dp272
g81
I3
ssg82
Nsg75
(lp273
g68
(g84
g70
NtRp274
(dp275
g73
(dp276
sg82
g270
sg75
(lp277
g68
(g89
g70
NtRp278
(dp279
g73
(dp280
g93
g94
ssg82
g274
sg75
(lp281
S'comment'
p282
asbag68
(g89
g70
NtRp283
(dp284
g73
(dp285
g100
g101
ssg82
g274
sg75
(lp286
S':'
asbag68
(g89
g70
NtRp287
(dp288
g73
(dp289
sg82
g274
sg75
(lp290
g68
(g69
g70
NtRp291
(dp292
g73
(dp293
g81
I3
ssg82
g287
sg75
(lp294
S''
asbasbasbag68
(g84
g70
NtRp295
(dp296
g73
(dp297
sg82
g270
sg75
(lp298
g68
(g89
g70
NtRp299
(dp300
g73
(dp301
g93
g94
ssg82
g295
sg75
(lp302
S'domain'
p303
asbag68
(g89
g70
NtRp304
(dp305
g73
(dp306
g100
g101
ssg82
g295
sg75
(lp307
S':'
asbag68
(g89
g70
NtRp308
(dp309
g73
(dp310
sg82
g295
sg75
(lp311
g68
(g69
g70
NtRp312
(dp313
g73
(dp314
g81
I3
ssg82
g308
sg75
(lp315
S''
asbasbasbag68
(g84
g70
NtRp316
(dp317
g73
(dp318
sg82
g270
sg75
(lp319
g68
(g89
g70
NtRp320
(dp321
g73
(dp322
g93
g94
ssg82
g316
sg75
(lp323
S'expires'
p324
asbag68
(g89
g70
NtRp325
(dp326
g73
(dp327
g100
g101
ssg82
g316
sg75
(lp328
S':'
asbag68
(g89
g70
NtRp329
(dp330
g73
(dp331
sg82
g316
sg75
(lp332
g68
(g69
g70
NtRp333
(dp334
g73
(dp335
g81
I3
ssg82
g329
sg75
(lp336
S''
asbasbasbag68
(g84
g70
NtRp337
(dp338
g73
(dp339
sg82
g270
sg75
(lp340
g68
(g89
g70
NtRp341
(dp342
g73
(dp343
g93
g94
ssg82
g337
sg75
(lp344
S'httponly'
p345
asbag68
(g89
g70
NtRp346
(dp347
g73
(dp348
g100
g101
ssg82
g337
sg75
(lp349
S':'
asbag68
(g89
g70
NtRp350
(dp351
g73
(dp352
sg82
g337
sg75
(lp353
g68
(g69
g70
NtRp354
(dp355
g73
(dp356
g81
I3
ssg82
g350
sg75
(lp357
S''
asbasbasbag68
(g84
g70
NtRp358
(dp359
g73
(dp360
sg82
g270
sg75
(lp361
g68
(g89
g70
NtRp362
(dp363
g73
(dp364
g93
g94
ssg82
g358
sg75
(lp365
S'max-age'
p366
asbag68
(g89
g70
NtRp367
(dp368
g73
(dp369
g100
g101
ssg82
g358
sg75
(lp370
S':'
asbag68
(g89
g70
NtRp371
(dp372
g73
(dp373
sg82
g358
sg75
(lp374
g68
(g69
g70
NtRp375
(dp376
g73
(dp377
g81
I3
ssg82
g371
sg75
(lp378
S''
asbasbasbag68
(g84
g70
NtRp379
(dp380
g73
(dp381
sg82
g270
sg75
(lp382
g68
(g89
g70
NtRp383
(dp384
g73
(dp385
g93
g94
ssg82
g379
sg75
(lp386
S'path'
p387
asbag68
(g89
g70
NtRp388
(dp389
g73
(dp390
g100
g101
ssg82
g379
sg75
(lp391
S':'
asbag68
(g89
g70
NtRp392
(dp393
g73
(dp394
sg82
g379
sg75
(lp395
g68
(g69
g70
NtRp396
(dp397
g73
(dp398
g81
I3
ssg82
g392
sg75
(lp399
S''
asbasbasbag68
(g84
g70
NtRp400
(dp401
g73
(dp402
sg82
g270
sg75
(lp403
g68
(g89
g70
NtRp404
(dp405
g73
(dp406
g93
g94
ssg82
g400
sg75
(lp407
S'secure'
p408
asbag68
(g89
g70
NtRp409
(dp410
g73
(dp411
g100
g101
ssg82
g400
sg75
(lp412
S':'
asbag68
(g89
g70
NtRp413
(dp414
g73
(dp415
sg82
g400
sg75
(lp416
g68
(g69
g70
NtRp417
(dp418
g73
(dp419
g81
I3
ssg82
g413
sg75
(lp420
S''
asbasbasbag68
(g84
g70
NtRp421
(dp422
g73
(dp423
sg82
g270
sg75
(lp424
g68
(g89
g70
NtRp425
(dp426
g73
(dp427
g93
g94
ssg82
g421
sg75
(lp428
S'version'
p429
asbag68
(g89
g70
NtRp430
(dp431
g73
(dp432
g100
g101
ssg82
g421
sg75
(lp433
S':'
asbag68
(g89
g70
NtRp434
(dp435
g73
(dp436
sg82
g421
sg75
(lp437
g68
(g69
g70
NtRp438
(dp439
g73
(dp440
g81
I3
ssg82
g434
sg75
(lp441
S''
asbasbasbasbasbasbasbag68
(g84
g70
NtRp442
(dp443
g73
(dp444
sg82
g245
sg75
(lp445
g68
(g89
g70
NtRp446
(dp447
g73
(dp448
g93
g94
ssg82
g442
sg75
(lp449
S'session_id_admin'
p450
asbag68
(g89
g70
NtRp451
(dp452
g73
(dp453
g100
g101
ssg82
g442
sg75
(lp454
S':'
asbag68
(g89
g70
NtRp455
(dp456
g73
(dp457
sg82
g442
sg75
(lp458
g68
(g69
g70
NtRp459
(dp460
g73
(dp461
g81
I4
ssg82
g455
sg75
(lp462
g68
(g77
g70
NtRp463
(dp464
g73
(dp465
g81
I3
ssg82
Nsg75
(lp466
g68
(g84
g70
NtRp467
(dp468
g73
(dp469
sg82
g463
sg75
(lp470
g68
(g89
g70
NtRp471
(dp472
g73
(dp473
g93
g94
ssg82
g467
sg75
(lp474
g282
asbag68
(g89
g70
NtRp475
(dp476
g73
(dp477
g100
g101
ssg82
g467
sg75
(lp478
S':'
asbag68
(g89
g70
NtRp479
(dp480
g73
(dp481
sg82
g467
sg75
(lp482
g68
(g69
g70
NtRp483
(dp484
g73
(dp485
g81
I3
ssg82
g479
sg75
(lp486
S''
asbasbasbag68
(g84
g70
NtRp487
(dp488
g73
(dp489
sg82
g463
sg75
(lp490
g68
(g89
g70
NtRp491
(dp492
g73
(dp493
g93
g94
ssg82
g487
sg75
(lp494
g303
asbag68
(g89
g70
NtRp495
(dp496
g73
(dp497
g100
g101
ssg82
g487
sg75
(lp498
S':'
asbag68
(g89
g70
NtRp499
(dp500
g73
(dp501
sg82
g487
sg75
(lp502
g68
(g69
g70
NtRp503
(dp504
g73
(dp505
g81
I3
ssg82
g499
sg75
(lp506
S''
asbasbasbag68
(g84
g70
NtRp507
(dp508
g73
(dp509
sg82
g463
sg75
(lp510
g68
(g89
g70
NtRp511
(dp512
g73
(dp513
g93
g94
ssg82
g507
sg75
(lp514
g324
asbag68
(g89
g70
NtRp515
(dp516
g73
(dp517
g100
g101
ssg82
g507
sg75
(lp518
S':'
asbag68
(g89
g70
NtRp519
(dp520
g73
(dp521
sg82
g507
sg75
(lp522
g68
(g69
g70
NtRp523
(dp524
g73
(dp525
g81
I3
ssg82
g519
sg75
(lp526
S''
asbasbasbag68
(g84
g70
NtRp527
(dp528
g73
(dp529
sg82
g463
sg75
(lp530
g68
(g89
g70
NtRp531
(dp532
g73
(dp533
g93
g94
ssg82
g527
sg75
(lp534
g345
asbag68
(g89
g70
NtRp535
(dp536
g73
(dp537
g100
g101
ssg82
g527
sg75
(lp538
S':'
asbag68
(g89
g70
NtRp539
(dp540
g73
(dp541
sg82
g527
sg75
(lp542
g68
(g69
g70
NtRp543
(dp544
g73
(dp545
g81
I3
ssg82
g539
sg75
(lp546
S''
asbasbasbag68
(g84
g70
NtRp547
(dp548
g73
(dp549
sg82
g463
sg75
(lp550
g68
(g89
g70
NtRp551
(dp552
g73
(dp553
g93
g94
ssg82
g547
sg75
(lp554
g366
asbag68
(g89
g70
NtRp555
(dp556
g73
(dp557
g100
g101
ssg82
g547
sg75
(lp558
S':'
asbag68
(g89
g70
NtRp559
(dp560
g73
(dp561
sg82
g547
sg75
(lp562
g68
(g69
g70
NtRp563
(dp564
g73
(dp565
g81
I3
ssg82
g559
sg75
(lp566
S''
asbasbasbag68
(g84
g70
NtRp567
(dp568
g73
(dp569
sg82
g463
sg75
(lp570
g68
(g89
g70
NtRp571
(dp572
g73
(dp573
g93
g94
ssg82
g567
sg75
(lp574
g387
asbag68
(g89
g70
NtRp575
(dp576
g73
(dp577
g100
g101
ssg82
g567
sg75
(lp578
S':'
asbag68
(g89
g70
NtRp579
(dp580
g73
(dp581
sg82
g567
sg75
(lp582
g68
(g69
g70
NtRp583
(dp584
g73
(dp585
g81
I3
ssg82
g579
sg75
(lp586
S''
asbasbasbag68
(g84
g70
NtRp587
(dp588
g73
(dp589
sg82
g463
sg75
(lp590
g68
(g89
g70
NtRp591
(dp592
g73
(dp593
g93
g94
ssg82
g587
sg75
(lp594
g408
asbag68
(g89
g70
NtRp595
(dp596
g73
(dp597
g100
g101
ssg82
g587
sg75
(lp598
S':'
asbag68
(g89
g70
NtRp599
(dp600
g73
(dp601
sg82
g587
sg75
(lp602
g68
(g69
g70
NtRp603
(dp604
g73
(dp605
g81
I3
ssg82
g599
sg75
(lp606
S''
asbasbasbag68
(g84
g70
NtRp607
(dp608
g73
(dp609
sg82
g463
sg75
(lp610
g68
(g89
g70
NtRp611
(dp612
g73
(dp613
g93
g94
ssg82
g607
sg75
(lp614
g429
asbag68
(g89
g70
NtRp615
(dp616
g73
(dp617
g100
g101
ssg82
g607
sg75
(lp618
S':'
asbag68
(g89
g70
NtRp619
(dp620
g73
(dp621
sg82
g607
sg75
(lp622
g68
(g69
g70
NtRp623
(dp624
g73
(dp625
g81
I3
ssg82
g619
sg75
(lp626
S''
asbasbasbasbasbasbasbag68
(g84
g70
NtRp627
(dp628
g73
(dp629
sg82
g245
sg75
(lp630
g68
(g89
g70
NtRp631
(dp632
g73
(dp633
g93
g94
ssg82
g627
sg75
(lp634
S'session_id_datos'
p635
asbag68
(g89
g70
NtRp636
(dp637
g73
(dp638
g100
g101
ssg82
g627
sg75
(lp639
S':'
asbag68
(g89
g70
NtRp640
(dp641
g73
(dp642
sg82
g627
sg75
(lp643
g68
(g69
g70
NtRp644
(dp645
g73
(dp646
g81
I4
ssg82
g640
sg75
(lp647
g68
(g77
g70
NtRp648
(dp649
g73
(dp650
g81
I3
ssg82
Nsg75
(lp651
g68
(g84
g70
NtRp652
(dp653
g73
(dp654
sg82
g648
sg75
(lp655
g68
(g89
g70
NtRp656
(dp657
g73
(dp658
g93
g94
ssg82
g652
sg75
(lp659
g282
asbag68
(g89
g70
NtRp660
(dp661
g73
(dp662
g100
g101
ssg82
g652
sg75
(lp663
S':'
asbag68
(g89
g70
NtRp664
(dp665
g73
(dp666
sg82
g652
sg75
(lp667
g68
(g69
g70
NtRp668
(dp669
g73
(dp670
g81
I3
ssg82
g664
sg75
(lp671
S''
asbasbasbag68
(g84
g70
NtRp672
(dp673
g73
(dp674
sg82
g648
sg75
(lp675
g68
(g89
g70
NtRp676
(dp677
g73
(dp678
g93
g94
ssg82
g672
sg75
(lp679
g303
asbag68
(g89
g70
NtRp680
(dp681
g73
(dp682
g100
g101
ssg82
g672
sg75
(lp683
S':'
asbag68
(g89
g70
NtRp684
(dp685
g73
(dp686
sg82
g672
sg75
(lp687
g68
(g69
g70
NtRp688
(dp689
g73
(dp690
g81
I3
ssg82
g684
sg75
(lp691
S''
asbasbasbag68
(g84
g70
NtRp692
(dp693
g73
(dp694
sg82
g648
sg75
(lp695
g68
(g89
g70
NtRp696
(dp697
g73
(dp698
g93
g94
ssg82
g692
sg75
(lp699
g324
asbag68
(g89
g70
NtRp700
(dp701
g73
(dp702
g100
g101
ssg82
g692
sg75
(lp703
S':'
asbag68
(g89
g70
NtRp704
(dp705
g73
(dp706
sg82
g692
sg75
(lp707
g68
(g69
g70
NtRp708
(dp709
g73
(dp710
g81
I3
ssg82
g704
sg75
(lp711
S''
asbasbasbag68
(g84
g70
NtRp712
(dp713
g73
(dp714
sg82
g648
sg75
(lp715
g68
(g89
g70
NtRp716
(dp717
g73
(dp718
g93
g94
ssg82
g712
sg75
(lp719
g345
asbag68
(g89
g70
NtRp720
(dp721
g73
(dp722
g100
g101
ssg82
g712
sg75
(lp723
S':'
asbag68
(g89
g70
NtRp724
(dp725
g73
(dp726
sg82
g712
sg75
(lp727
g68
(g69
g70
NtRp728
(dp729
g73
(dp730
g81
I3
ssg82
g724
sg75
(lp731
S''
asbasbasbag68
(g84
g70
NtRp732
(dp733
g73
(dp734
sg82
g648
sg75
(lp735
g68
(g89
g70
NtRp736
(dp737
g73
(dp738
g93
g94
ssg82
g732
sg75
(lp739
g366
asbag68
(g89
g70
NtRp740
(dp741
g73
(dp742
g100
g101
ssg82
g732
sg75
(lp743
S':'
asbag68
(g89
g70
NtRp744
(dp745
g73
(dp746
sg82
g732
sg75
(lp747
g68
(g69
g70
NtRp748
(dp749
g73
(dp750
g81
I3
ssg82
g744
sg75
(lp751
S''
asbasbasbag68
(g84
g70
NtRp752
(dp753
g73
(dp754
sg82
g648
sg75
(lp755
g68
(g89
g70
NtRp756
(dp757
g73
(dp758
g93
g94
ssg82
g752
sg75
(lp759
g387
asbag68
(g89
g70
NtRp760
(dp761
g73
(dp762
g100
g101
ssg82
g752
sg75
(lp763
S':'
asbag68
(g89
g70
NtRp764
(dp765
g73
(dp766
sg82
g752
sg75
(lp767
g68
(g69
g70
NtRp768
(dp769
g73
(dp770
g81
I3
ssg82
g764
sg75
(lp771
S''
asbasbasbag68
(g84
g70
NtRp772
(dp773
g73
(dp774
sg82
g648
sg75
(lp775
g68
(g89
g70
NtRp776
(dp777
g73
(dp778
g93
g94
ssg82
g772
sg75
(lp779
g408
asbag68
(g89
g70
NtRp780
(dp781
g73
(dp782
g100
g101
ssg82
g772
sg75
(lp783
S':'
asbag68
(g89
g70
NtRp784
(dp785
g73
(dp786
sg82
g772
sg75
(lp787
g68
(g69
g70
NtRp788
(dp789
g73
(dp790
g81
I3
ssg82
g784
sg75
(lp791
S''
asbasbasbag68
(g84
g70
NtRp792
(dp793
g73
(dp794
sg82
g648
sg75
(lp795
g68
(g89
g70
NtRp796
(dp797
g73
(dp798
g93
g94
ssg82
g792
sg75
(lp799
g429
asbag68
(g89
g70
NtRp800
(dp801
g73
(dp802
g100
g101
ssg82
g792
sg75
(lp803
S':'
asbag68
(g89
g70
NtRp804
(dp805
g73
(dp806
sg82
g792
sg75
(lp807
g68
(g69
g70
NtRp808
(dp809
g73
(dp810
g81
I3
ssg82
g804
sg75
(lp811
S''
asbasbasbasbasbasbasbag68
(g84
g70
NtRp812
(dp813
g73
(dp814
sg82
g245
sg75
(lp815
g68
(g89
g70
NtRp816
(dp817
g73
(dp818
g93
g94
ssg82
g812
sg75
(lp819
S'session_id_my_web'
p820
asbag68
(g89
g70
NtRp821
(dp822
g73
(dp823
g100
g101
ssg82
g812
sg75
(lp824
S':'
asbag68
(g89
g70
NtRp825
(dp826
g73
(dp827
sg82
g812
sg75
(lp828
g68
(g69
g70
NtRp829
(dp830
g73
(dp831
g81
I4
ssg82
g825
sg75
(lp832
g68
(g77
g70
NtRp833
(dp834
g73
(dp835
g81
I3
ssg82
Nsg75
(lp836
g68
(g84
g70
NtRp837
(dp838
g73
(dp839
sg82
g833
sg75
(lp840
g68
(g89
g70
NtRp841
(dp842
g73
(dp843
g93
g94
ssg82
g837
sg75
(lp844
g282
asbag68
(g89
g70
NtRp845
(dp846
g73
(dp847
g100
g101
ssg82
g837
sg75
(lp848
S':'
asbag68
(g89
g70
NtRp849
(dp850
g73
(dp851
sg82
g837
sg75
(lp852
g68
(g69
g70
NtRp853
(dp854
g73
(dp855
g81
I3
ssg82
g849
sg75
(lp856
S''
asbasbasbag68
(g84
g70
NtRp857
(dp858
g73
(dp859
sg82
g833
sg75
(lp860
g68
(g89
g70
NtRp861
(dp862
g73
(dp863
g93
g94
ssg82
g857
sg75
(lp864
g303
asbag68
(g89
g70
NtRp865
(dp866
g73
(dp867
g100
g101
ssg82
g857
sg75
(lp868
S':'
asbag68
(g89
g70
NtRp869
(dp870
g73
(dp871
sg82
g857
sg75
(lp872
g68
(g69
g70
NtRp873
(dp874
g73
(dp875
g81
I3
ssg82
g869
sg75
(lp876
S''
asbasbasbag68
(g84
g70
NtRp877
(dp878
g73
(dp879
sg82
g833
sg75
(lp880
g68
(g89
g70
NtRp881
(dp882
g73
(dp883
g93
g94
ssg82
g877
sg75
(lp884
g324
asbag68
(g89
g70
NtRp885
(dp886
g73
(dp887
g100
g101
ssg82
g877
sg75
(lp888
S':'
asbag68
(g89
g70
NtRp889
(dp890
g73
(dp891
sg82
g877
sg75
(lp892
g68
(g69
g70
NtRp893
(dp894
g73
(dp895
g81
I3
ssg82
g889
sg75
(lp896
S''
asbasbasbag68
(g84
g70
NtRp897
(dp898
g73
(dp899
sg82
g833
sg75
(lp900
g68
(g89
g70
NtRp901
(dp902
g73
(dp903
g93
g94
ssg82
g897
sg75
(lp904
g345
asbag68
(g89
g70
NtRp905
(dp906
g73
(dp907
g100
g101
ssg82
g897
sg75
(lp908
S':'
asbag68
(g89
g70
NtRp909
(dp910
g73
(dp911
sg82
g897
sg75
(lp912
g68
(g69
g70
NtRp913
(dp914
g73
(dp915
g81
I3
ssg82
g909
sg75
(lp916
S''
asbasbasbag68
(g84
g70
NtRp917
(dp918
g73
(dp919
sg82
g833
sg75
(lp920
g68
(g89
g70
NtRp921
(dp922
g73
(dp923
g93
g94
ssg82
g917
sg75
(lp924
g366
asbag68
(g89
g70
NtRp925
(dp926
g73
(dp927
g100
g101
ssg82
g917
sg75
(lp928
S':'
asbag68
(g89
g70
NtRp929
(dp930
g73
(dp931
sg82
g917
sg75
(lp932
g68
(g69
g70
NtRp933
(dp934
g73
(dp935
g81
I3
ssg82
g929
sg75
(lp936
S''
asbasbasbag68
(g84
g70
NtRp937
(dp938
g73
(dp939
sg82
g833
sg75
(lp940
g68
(g89
g70
NtRp941
(dp942
g73
(dp943
g93
g94
ssg82
g937
sg75
(lp944
g387
asbag68
(g89
g70
NtRp945
(dp946
g73
(dp947
g100
g101
ssg82
g937
sg75
(lp948
S':'
asbag68
(g89
g70
NtRp949
(dp950
g73
(dp951
sg82
g937
sg75
(lp952
g68
(g69
g70
NtRp953
(dp954
g73
(dp955
g81
I3
ssg82
g949
sg75
(lp956
S''
asbasbasbag68
(g84
g70
NtRp957
(dp958
g73
(dp959
sg82
g833
sg75
(lp960
g68
(g89
g70
NtRp961
(dp962
g73
(dp963
g93
g94
ssg82
g957
sg75
(lp964
g408
asbag68
(g89
g70
NtRp965
(dp966
g73
(dp967
g100
g101
ssg82
g957
sg75
(lp968
S':'
asbag68
(g89
g70
NtRp969
(dp970
g73
(dp971
sg82
g957
sg75
(lp972
g68
(g69
g70
NtRp973
(dp974
g73
(dp975
g81
I3
ssg82
g969
sg75
(lp976
S''
asbasbasbag68
(g84
g70
NtRp977
(dp978
g73
(dp979
sg82
g833
sg75
(lp980
g68
(g89
g70
NtRp981
(dp982
g73
(dp983
g93
g94
ssg82
g977
sg75
(lp984
g429
asbag68
(g89
g70
NtRp985
(dp986
g73
(dp987
g100
g101
ssg82
g977
sg75
(lp988
S':'
asbag68
(g89
g70
NtRp989
(dp990
g73
(dp991
sg82
g977
sg75
(lp992
g68
(g69
g70
NtRp993
(dp994
g73
(dp995
g81
I3
ssg82
g989
sg75
(lp996
S''
asbasbasbasbasbasbasbag68
(g84
g70
NtRp997
(dp998
g73
(dp999
sg82
g245
sg75
(lp1000
g68
(g89
g70
NtRp1001
(dp1002
g73
(dp1003
g93
g94
ssg82
g997
sg75
(lp1004
S'session_id_welcome'
p1005
asbag68
(g89
g70
NtRp1006
(dp1007
g73
(dp1008
g100
g101
ssg82
g997
sg75
(lp1009
S':'
asbag68
(g89
g70
NtRp1010
(dp1011
g73
(dp1012
sg82
g997
sg75
(lp1013
g68
(g69
g70
NtRp1014
(dp1015
g73
(dp1016
g81
I4
ssg82
g1010
sg75
(lp1017
g68
(g77
g70
NtRp1018
(dp1019
g73
(dp1020
g81
I3
ssg82
Nsg75
(lp1021
g68
(g84
g70
NtRp1022
(dp1023
g73
(dp1024
sg82
g1018
sg75
(lp1025
g68
(g89
g70
NtRp1026
(dp1027
g73
(dp1028
g93
g94
ssg82
g1022
sg75
(lp1029
g282
asbag68
(g89
g70
NtRp1030
(dp1031
g73
(dp1032
g100
g101
ssg82
g1022
sg75
(lp1033
S':'
asbag68
(g89
g70
NtRp1034
(dp1035
g73
(dp1036
sg82
g1022
sg75
(lp1037
g68
(g69
g70
NtRp1038
(dp1039
g73
(dp1040
g81
I3
ssg82
g1034
sg75
(lp1041
S''
asbasbasbag68
(g84
g70
NtRp1042
(dp1043
g73
(dp1044
sg82
g1018
sg75
(lp1045
g68
(g89
g70
NtRp1046
(dp1047
g73
(dp1048
g93
g94
ssg82
g1042
sg75
(lp1049
g303
asbag68
(g89
g70
NtRp1050
(dp1051
g73
(dp1052
g100
g101
ssg82
g1042
sg75
(lp1053
S':'
asbag68
(g89
g70
NtRp1054
(dp1055
g73
(dp1056
sg82
g1042
sg75
(lp1057
g68
(g69
g70
NtRp1058
(dp1059
g73
(dp1060
g81
I3
ssg82
g1054
sg75
(lp1061
S''
asbasbasbag68
(g84
g70
NtRp1062
(dp1063
g73
(dp1064
sg82
g1018
sg75
(lp1065
g68
(g89
g70
NtRp1066
(dp1067
g73
(dp1068
g93
g94
ssg82
g1062
sg75
(lp1069
g324
asbag68
(g89
g70
NtRp1070
(dp1071
g73
(dp1072
g100
g101
ssg82
g1062
sg75
(lp1073
S':'
asbag68
(g89
g70
NtRp1074
(dp1075
g73
(dp1076
sg82
g1062
sg75
(lp1077
g68
(g69
g70
NtRp1078
(dp1079
g73
(dp1080
g81
I3
ssg82
g1074
sg75
(lp1081
S''
asbasbasbag68
(g84
g70
NtRp1082
(dp1083
g73
(dp1084
sg82
g1018
sg75
(lp1085
g68
(g89
g70
NtRp1086
(dp1087
g73
(dp1088
g93
g94
ssg82
g1082
sg75
(lp1089
g345
asbag68
(g89
g70
NtRp1090
(dp1091
g73
(dp1092
g100
g101
ssg82
g1082
sg75
(lp1093
S':'
asbag68
(g89
g70
NtRp1094
(dp1095
g73
(dp1096
sg82
g1082
sg75
(lp1097
g68
(g69
g70
NtRp1098
(dp1099
g73
(dp1100
g81
I3
ssg82
g1094
sg75
(lp1101
S''
asbasbasbag68
(g84
g70
NtRp1102
(dp1103
g73
(dp1104
sg82
g1018
sg75
(lp1105
g68
(g89
g70
NtRp1106
(dp1107
g73
(dp1108
g93
g94
ssg82
g1102
sg75
(lp1109
g366
asbag68
(g89
g70
NtRp1110
(dp1111
g73
(dp1112
g100
g101
ssg82
g1102
sg75
(lp1113
S':'
asbag68
(g89
g70
NtRp1114
(dp1115
g73
(dp1116
sg82
g1102
sg75
(lp1117
g68
(g69
g70
NtRp1118
(dp1119
g73
(dp1120
g81
I3
ssg82
g1114
sg75
(lp1121
S''
asbasbasbag68
(g84
g70
NtRp1122
(dp1123
g73
(dp1124
sg82
g1018
sg75
(lp1125
g68
(g89
g70
NtRp1126
(dp1127
g73
(dp1128
g93
g94
ssg82
g1122
sg75
(lp1129
g387
asbag68
(g89
g70
NtRp1130
(dp1131
g73
(dp1132
g100
g101
ssg82
g1122
sg75
(lp1133
S':'
asbag68
(g89
g70
NtRp1134
(dp1135
g73
(dp1136
sg82
g1122
sg75
(lp1137
g68
(g69
g70
NtRp1138
(dp1139
g73
(dp1140
g81
I3
ssg82
g1134
sg75
(lp1141
S''
asbasbasbag68
(g84
g70
NtRp1142
(dp1143
g73
(dp1144
sg82
g1018
sg75
(lp1145
g68
(g89
g70
NtRp1146
(dp1147
g73
(dp1148
g93
g94
ssg82
g1142
sg75
(lp1149
g408
asbag68
(g89
g70
NtRp1150
(dp1151
g73
(dp1152
g100
g101
ssg82
g1142
sg75
(lp1153
S':'
asbag68
(g89
g70
NtRp1154
(dp1155
g73
(dp1156
sg82
g1142
sg75
(lp1157
g68
(g69
g70
NtRp1158
(dp1159
g73
(dp1160
g81
I3
ssg82
g1154
sg75
(lp1161
S''
asbasbasbag68
(g84
g70
NtRp1162
(dp1163
g73
(dp1164
sg82
g1018
sg75
(lp1165
g68
(g89
g70
NtRp1166
(dp1167
g73
(dp1168
g93
g94
ssg82
g1162
sg75
(lp1169
g429
asbag68
(g89
g70
NtRp1170
(dp1171
g73
(dp1172
g100
g101
ssg82
g1162
sg75
(lp1173
S':'
asbag68
(g89
g70
NtRp1174
(dp1175
g73
(dp1176
sg82
g1162
sg75
(lp1177
g68
(g69
g70
NtRp1178
(dp1179
g73
(dp1180
g81
I3
ssg82
g1174
sg75
(lp1181
S''
asbasbasbasbasbasbasbasbasbasbasbag68
(g84
g70
NtRp1182
(dp1183
g73
(dp1184
sg82
g78
sg75
(lp1185
g68
(g89
g70
NtRp1186
(dp1187
g73
(dp1188
g93
g94
ssg82
g1182
sg75
(lp1189
S'env'
p1190
asbag68
(g89
g70
NtRp1191
(dp1192
g73
(dp1193
g100
g101
ssg82
g1182
sg75
(lp1194
S':'
asbag68
(g89
g70
NtRp1195
(dp1196
g73
(dp1197
sg82
g1182
sg75
(lp1198
g68
(g69
g70
NtRp1199
(dp1200
g73
(dp1201
g81
I5
ssg82
g1195
sg75
(lp1202
g68
(g77
g70
NtRp1203
(dp1204
g73
(dp1205
g81
I4
ssg82
Nsg75
(lp1206
g68
(g84
g70
NtRp1207
(dp1208
g73
(dp1209
sg82
g1203
sg75
(lp1210
g68
(g89
g70
NtRp1211
(dp1212
g73
(dp1213
g93
g94
ssg82
g1207
sg75
(lp1214
S'app_folders'
p1215
asbag68
(g89
g70
NtRp1216
(dp1217
g73
(dp1218
g100
g101
ssg82
g1207
sg75
(lp1219
S':'
asbag68
(g89
g70
NtRp1220
(dp1221
g73
(dp1222
sg82
g1207
sg75
(lp1223
g68
(g69
g70
NtRp1224
(dp1225
g73
(dp1226
g81
I4
ssg82
g1220
sg75
(lp1227
S"set(['/home/alumno/web2py/applications/admin/', '/home/alumno/web2py/applications/my_web/', '/home/alumno/web2py/applications/examples/', '/home/alumno/web2py/applications/welcome/', '/home/alumno/web2py/applications/datos/'])"
p1228
asbasbasbag68
(g84
g70
NtRp1229
(dp1230
g73
(dp1231
sg82
g1203
sg75
(lp1232
g68
(g89
g70
NtRp1233
(dp1234
g73
(dp1235
g93
g94
ssg82
g1229
sg75
(lp1236
S'applications_parent'
p1237
asbag68
(g89
g70
NtRp1238
(dp1239
g73
(dp1240
g100
g101
ssg82
g1229
sg75
(lp1241
S':'
asbag68
(g89
g70
NtRp1242
(dp1243
g73
(dp1244
sg82
g1229
sg75
(lp1245
g68
(g69
g70
NtRp1246
(dp1247
g73
(dp1248
g81
I4
ssg82
g1242
sg75
(lp1249
S'/home/alumno/web2py'
p1250
asbasbasbag68
(g84
g70
NtRp1251
(dp1252
g73
(dp1253
sg82
g1203
sg75
(lp1254
g68
(g89
g70
NtRp1255
(dp1256
g73
(dp1257
g93
g94
ssg82
g1251
sg75
(lp1258
S'cmd_args'
p1259
asbag68
(g89
g70
NtRp1260
(dp1261
g73
(dp1262
g100
g101
ssg82
g1251
sg75
(lp1263
S':'
asbag68
(g89
g70
NtRp1264
(dp1265
g73
(dp1266
sg82
g1251
sg75
(lp1267
g68
(g69
g70
NtRp1268
(dp1269
g73
(dp1270
g81
I4
ssg82
g1264
sg75
(lp1271
g68
(g77
g70
NtRp1272
(dp1273
g73
(dp1274
g81
I3
ssg82
Nsg75
(lp1275
sbasbasbasbag68
(g84
g70
NtRp1276
(dp1277
g73
(dp1278
sg82
g1203
sg75
(lp1279
g68
(g89
g70
NtRp1280
(dp1281
g73
(dp1282
g93
g94
ssg82
g1276
sg75
(lp1283
S'cmd_options'
p1284
asbag68
(g89
g70
NtRp1285
(dp1286
g73
(dp1287
g100
g101
ssg82
g1276
sg75
(lp1288
S':'
asbag68
(g89
g70
NtRp1289
(dp1290
g73
(dp1291
sg82
g1276
sg75
(lp1292
g68
(g69
g70
NtRp1293
(dp1294
g73
(dp1295
g81
I4
ssg82
g1289
sg75
(lp1296
S"<Values at 0x98648ac: {'verbose': False, 'ip': '127.0.0.1', 'shutdown_timeout': 5, 'taskbar': False, 'port': 8000, 'maxthreads': None, 'softcron': False, 'server_name': 'ubuntu-dev', 'bpython': False, 'nogui': False, 'nocron': False, 'extcron': False, 'debuglevel': 30, 'test': None, 'folder': '/home/alumno/web2py', 'config': '', 'import_models': False, 'winservice': '', 'shell': None, 'run': '', 'log_filename': 'httpserver.log', 'args': [''], 'profiler_filename': None, 'ssl_private_key': '', 'password': 'conti', 'request_queue_size': 5, 'ssl_certificate': '', 'cronjob': False, 'plain': False, 'quiet': False, 'interfaces': None, 'minthreads': None, 'timeout': 10, 'numthreads': None, 'nobanner': False, 'pid_filename': 'httpserver.pid'}>"
p1297
asbasbasbag68
(g84
g70
NtRp1298
(dp1299
g73
(dp1300
sg82
g1203
sg75
(lp1301
g68
(g89
g70
NtRp1302
(dp1303
g73
(dp1304
g93
g94
ssg82
g1298
sg75
(lp1305
S'db_sessions'
p1306
asbag68
(g89
g70
NtRp1307
(dp1308
g73
(dp1309
g100
g101
ssg82
g1298
sg75
(lp1310
S':'
asbag68
(g89
g70
NtRp1311
(dp1312
g73
(dp1313
sg82
g1298
sg75
(lp1314
g68
(g69
g70
NtRp1315
(dp1316
g73
(dp1317
g81
I4
ssg82
g1311
sg75
(lp1318
S'set([])'
p1319
asbasbasbag68
(g84
g70
NtRp1320
(dp1321
g73
(dp1322
sg82
g1203
sg75
(lp1323
g68
(g89
g70
NtRp1324
(dp1325
g73
(dp1326
g93
g94
ssg82
g1320
sg75
(lp1327
S'debugging'
p1328
asbag68
(g89
g70
NtRp1329
(dp1330
g73
(dp1331
g100
g101
ssg82
g1320
sg75
(lp1332
S':'
asbag68
(g89
g70
NtRp1333
(dp1334
g73
(dp1335
sg82
g1320
sg75
(lp1336
g68
(g69
g70
NtRp1337
(dp1338
g73
(dp1339
g81
I4
ssg82
g1333
sg75
(lp1340
g111
asbasbasbag68
(g84
g70
NtRp1341
(dp1342
g73
(dp1343
sg82
g1203
sg75
(lp1344
g68
(g89
g70
NtRp1345
(dp1346
g73
(dp1347
g93
g94
ssg82
g1341
sg75
(lp1348
S'gluon_parent'
p1349
asbag68
(g89
g70
NtRp1350
(dp1351
g73
(dp1352
g100
g101
ssg82
g1341
sg75
(lp1353
S':'
asbag68
(g89
g70
NtRp1354
(dp1355
g73
(dp1356
sg82
g1341
sg75
(lp1357
g68
(g69
g70
NtRp1358
(dp1359
g73
(dp1360
g81
I4
ssg82
g1354
sg75
(lp1361
S'/home/alumno/web2py'
p1362
asbasbasbag68
(g84
g70
NtRp1363
(dp1364
g73
(dp1365
sg82
g1203
sg75
(lp1366
g68
(g89
g70
NtRp1367
(dp1368
g73
(dp1369
g93
g94
ssg82
g1363
sg75
(lp1370
S'http_accept'
p1371
asbag68
(g89
g70
NtRp1372
(dp1373
g73
(dp1374
g100
g101
ssg82
g1363
sg75
(lp1375
S':'
asbag68
(g89
g70
NtRp1376
(dp1377
g73
(dp1378
sg82
g1363
sg75
(lp1379
g68
(g69
g70
NtRp1380
(dp1381
g73
(dp1382
g81
I4
ssg82
g1376
sg75
(lp1383
S'text/html,application/xhtml+xml,application/xml;q=0.9,*/*;q=0.8'
p1384
asbasbasbag68
(g84
g70
NtRp1385
(dp1386
g73
(dp1387
sg82
g1203
sg75
(lp1388
g68
(g89
g70
NtRp1389
(dp1390
g73
(dp1391
g93
g94
ssg82
g1385
sg75
(lp1392
S'http_accept_charset'
p1393
asbag68
(g89
g70
NtRp1394
(dp1395
g73
(dp1396
g100
g101
ssg82
g1385
sg75
(lp1397
S':'
asbag68
(g89
g70
NtRp1398
(dp1399
g73
(dp1400
sg82
g1385
sg75
(lp1401
g68
(g69
g70
NtRp1402
(dp1403
g73
(dp1404
g81
I4
ssg82
g1398
sg75
(lp1405
S'ISO-8859-1,utf-8;q=0.7,*;q=0.7'
p1406
asbasbasbag68
(g84
g70
NtRp1407
(dp1408
g73
(dp1409
sg82
g1203
sg75
(lp1410
g68
(g89
g70
NtRp1411
(dp1412
g73
(dp1413
g93
g94
ssg82
g1407
sg75
(lp1414
S'http_accept_encoding'
p1415
asbag68
(g89
g70
NtRp1416
(dp1417
g73
(dp1418
g100
g101
ssg82
g1407
sg75
(lp1419
S':'
asbag68
(g89
g70
NtRp1420
(dp1421
g73
(dp1422
sg82
g1407
sg75
(lp1423
g68
(g69
g70
NtRp1424
(dp1425
g73
(dp1426
g81
I4
ssg82
g1420
sg75
(lp1427
S'gzip, deflate'
p1428
asbasbasbag68
(g84
g70
NtRp1429
(dp1430
g73
(dp1431
sg82
g1203
sg75
(lp1432
g68
(g89
g70
NtRp1433
(dp1434
g73
(dp1435
g93
g94
ssg82
g1429
sg75
(lp1436
S'http_accept_language'
p1437
asbag68
(g89
g70
NtRp1438
(dp1439
g73
(dp1440
g100
g101
ssg82
g1429
sg75
(lp1441
S':'
asbag68
(g89
g70
NtRp1442
(dp1443
g73
(dp1444
sg82
g1429
sg75
(lp1445
g68
(g69
g70
NtRp1446
(dp1447
g73
(dp1448
g81
I4
ssg82
g1442
sg75
(lp1449
S'es-ar,es;q=0.8,en-us;q=0.5,en;q=0.3'
p1450
asbasbasbag68
(g84
g70
NtRp1451
(dp1452
g73
(dp1453
sg82
g1203
sg75
(lp1454
g68
(g89
g70
NtRp1455
(dp1456
g73
(dp1457
g93
g94
ssg82
g1451
sg75
(lp1458
S'http_connection'
p1459
asbag68
(g89
g70
NtRp1460
(dp1461
g73
(dp1462
g100
g101
ssg82
g1451
sg75
(lp1463
S':'
asbag68
(g89
g70
NtRp1464
(dp1465
g73
(dp1466
sg82
g1451
sg75
(lp1467
g68
(g69
g70
NtRp1468
(dp1469
g73
(dp1470
g81
I4
ssg82
g1464
sg75
(lp1471
S'keep-alive'
p1472
asbasbasbag68
(g84
g70
NtRp1473
(dp1474
g73
(dp1475
sg82
g1203
sg75
(lp1476
g68
(g89
g70
NtRp1477
(dp1478
g73
(dp1479
g93
g94
ssg82
g1473
sg75
(lp1480
S'http_cookie'
p1481
asbag68
(g89
g70
NtRp1482
(dp1483
g73
(dp1484
g100
g101
ssg82
g1473
sg75
(lp1485
S':'
asbag68
(g89
g70
NtRp1486
(dp1487
g73
(dp1488
sg82
g1473
sg75
(lp1489
g68
(g69
g70
NtRp1490
(dp1491
g73
(dp1492
g81
I4
ssg82
g1486
sg75
(lp1493
S'session_id_welcome=127.0.0.1-824c4b28-21fc-44f0-8193-fa896d0cf2d5; session_id_admin=127.0.0.1-f292cc01-f792-44fe-abe4-b2667851a938; adminLanguage=es-es; session_id_my_web=127.0.0.1-47c190eb-acb3-4e98-b30b-5e2f6df99186; session_id_datos=127.0.0.1-db62c583-5264-4eba-ba24-7cb87b43795a'
p1494
asbasbasbag68
(g84
g70
NtRp1495
(dp1496
g73
(dp1497
sg82
g1203
sg75
(lp1498
g68
(g89
g70
NtRp1499
(dp1500
g73
(dp1501
g93
g94
ssg82
g1495
sg75
(lp1502
S'http_host'
p1503
asbag68
(g89
g70
NtRp1504
(dp1505
g73
(dp1506
g100
g101
ssg82
g1495
sg75
(lp1507
S':'
asbag68
(g89
g70
NtRp1508
(dp1509
g73
(dp1510
sg82
g1495
sg75
(lp1511
g68
(g69
g70
NtRp1512
(dp1513
g73
(dp1514
g81
I4
ssg82
g1508
sg75
(lp1515
S'127.0.0.1:8000'
p1516
asbasbasbag68
(g84
g70
NtRp1517
(dp1518
g73
(dp1519
sg82
g1203
sg75
(lp1520
g68
(g89
g70
NtRp1521
(dp1522
g73
(dp1523
g93
g94
ssg82
g1517
sg75
(lp1524
S'http_user_agent'
p1525
asbag68
(g89
g70
NtRp1526
(dp1527
g73
(dp1528
g100
g101
ssg82
g1517
sg75
(lp1529
S':'
asbag68
(g89
g70
NtRp1530
(dp1531
g73
(dp1532
sg82
g1517
sg75
(lp1533
g68
(g69
g70
NtRp1534
(dp1535
g73
(dp1536
g81
I4
ssg82
g1530
sg75
(lp1537
S'Mozilla/5.0 (X11; Linux i686; rv:6.0) Gecko/20100101 Firefox/6.0'
p1538
asbasbasbag68
(g84
g70
NtRp1539
(dp1540
g73
(dp1541
sg82
g1203
sg75
(lp1542
g68
(g89
g70
NtRp1543
(dp1544
g73
(dp1545
g93
g94
ssg82
g1539
sg75
(lp1546
S'is_jython'
p1547
asbag68
(g89
g70
NtRp1548
(dp1549
g73
(dp1550
g100
g101
ssg82
g1539
sg75
(lp1551
S':'
asbag68
(g89
g70
NtRp1552
(dp1553
g73
(dp1554
sg82
g1539
sg75
(lp1555
g68
(g69
g70
NtRp1556
(dp1557
g73
(dp1558
g81
I4
ssg82
g1552
sg75
(lp1559
g111
asbasbasbag68
(g84
g70
NtRp1560
(dp1561
g73
(dp1562
sg82
g1203
sg75
(lp1563
g68
(g89
g70
NtRp1564
(dp1565
g73
(dp1566
g93
g94
ssg82
g1560
sg75
(lp1567
S'path_info'
p1568
asbag68
(g89
g70
NtRp1569
(dp1570
g73
(dp1571
g100
g101
ssg82
g1560
sg75
(lp1572
S':'
asbag68
(g89
g70
NtRp1573
(dp1574
g73
(dp1575
sg82
g1560
sg75
(lp1576
g68
(g69
g70
NtRp1577
(dp1578
g73
(dp1579
g81
I4
ssg82
g1573
sg75
(lp1580
S'/datos/'
p1581
asbasbasbag68
(g84
g70
NtRp1582
(dp1583
g73
(dp1584
sg82
g1203
sg75
(lp1585
g68
(g89
g70
NtRp1586
(dp1587
g73
(dp1588
g93
g94
ssg82
g1582
sg75
(lp1589
S'query_string'
p1590
asbag68
(g89
g70
NtRp1591
(dp1592
g73
(dp1593
g100
g101
ssg82
g1582
sg75
(lp1594
S':'
asbag68
(g89
g70
NtRp1595
(dp1596
g73
(dp1597
sg82
g1582
sg75
(lp1598
g68
(g69
g70
NtRp1599
(dp1600
g73
(dp1601
g81
I4
ssg82
g1595
sg75
(lp1602
S''
asbasbasbag68
(g84
g70
NtRp1603
(dp1604
g73
(dp1605
sg82
g1203
sg75
(lp1606
g68
(g89
g70
NtRp1607
(dp1608
g73
(dp1609
g93
g94
ssg82
g1603
sg75
(lp1610
S'remote_addr'
p1611
asbag68
(g89
g70
NtRp1612
(dp1613
g73
(dp1614
g100
g101
ssg82
g1603
sg75
(lp1615
S':'
asbag68
(g89
g70
NtRp1616
(dp1617
g73
(dp1618
sg82
g1603
sg75
(lp1619
g68
(g69
g70
NtRp1620
(dp1621
g73
(dp1622
g81
I4
ssg82
g1616
sg75
(lp1623
g201
asbasbasbag68
(g84
g70
NtRp1624
(dp1625
g73
(dp1626
sg82
g1203
sg75
(lp1627
g68
(g89
g70
NtRp1628
(dp1629
g73
(dp1630
g93
g94
ssg82
g1624
sg75
(lp1631
S'remote_port'
p1632
asbag68
(g89
g70
NtRp1633
(dp1634
g73
(dp1635
g100
g101
ssg82
g1624
sg75
(lp1636
S':'
asbag68
(g89
g70
NtRp1637
(dp1638
g73
(dp1639
sg82
g1624
sg75
(lp1640
g68
(g69
g70
NtRp1641
(dp1642
g73
(dp1643
g81
I4
ssg82
g1637
sg75
(lp1644
S'32876'
p1645
asbasbasbag68
(g84
g70
NtRp1646
(dp1647
g73
(dp1648
sg82
g1203
sg75
(lp1649
g68
(g89
g70
NtRp1650
(dp1651
g73
(dp1652
g93
g94
ssg82
g1646
sg75
(lp1653
S'request_method'
p1654
asbag68
(g89
g70
NtRp1655
(dp1656
g73
(dp1657
g100
g101
ssg82
g1646
sg75
(lp1658
S':'
asbag68
(g89
g70
NtRp1659
(dp1660
g73
(dp1661
sg82
g1646
sg75
(lp1662
g68
(g69
g70
NtRp1663
(dp1664
g73
(dp1665
g81
I4
ssg82
g1659
sg75
(lp1666
S'GET'
p1667
asbasbasbag68
(g84
g70
NtRp1668
(dp1669
g73
(dp1670
sg82
g1203
sg75
(lp1671
g68
(g89
g70
NtRp1672
(dp1673
g73
(dp1674
g93
g94
ssg82
g1668
sg75
(lp1675
S'script_name'
p1676
asbag68
(g89
g70
NtRp1677
(dp1678
g73
(dp1679
g100
g101
ssg82
g1668
sg75
(lp1680
S':'
asbag68
(g89
g70
NtRp1681
(dp1682
g73
(dp1683
sg82
g1668
sg75
(lp1684
g68
(g69
g70
NtRp1685
(dp1686
g73
(dp1687
g81
I4
ssg82
g1681
sg75
(lp1688
S''
asbasbasbag68
(g84
g70
NtRp1689
(dp1690
g73
(dp1691
sg82
g1203
sg75
(lp1692
g68
(g89
g70
NtRp1693
(dp1694
g73
(dp1695
g93
g94
ssg82
g1689
sg75
(lp1696
S'server_name'
p1697
asbag68
(g89
g70
NtRp1698
(dp1699
g73
(dp1700
g100
g101
ssg82
g1689
sg75
(lp1701
S':'
asbag68
(g89
g70
NtRp1702
(dp1703
g73
(dp1704
sg82
g1689
sg75
(lp1705
g68
(g69
g70
NtRp1706
(dp1707
g73
(dp1708
g81
I4
ssg82
g1702
sg75
(lp1709
S'ubuntu-dev'
p1710
asbasbasbag68
(g84
g70
NtRp1711
(dp1712
g73
(dp1713
sg82
g1203
sg75
(lp1714
g68
(g89
g70
NtRp1715
(dp1716
g73
(dp1717
g93
g94
ssg82
g1711
sg75
(lp1718
S'server_port'
p1719
asbag68
(g89
g70
NtRp1720
(dp1721
g73
(dp1722
g100
g101
ssg82
g1711
sg75
(lp1723
S':'
asbag68
(g89
g70
NtRp1724
(dp1725
g73
(dp1726
sg82
g1711
sg75
(lp1727
g68
(g69
g70
NtRp1728
(dp1729
g73
(dp1730
g81
I4
ssg82
g1724
sg75
(lp1731
S'8000'
p1732
asbasbasbag68
(g84
g70
NtRp1733
(dp1734
g73
(dp1735
sg82
g1203
sg75
(lp1736
g68
(g89
g70
NtRp1737
(dp1738
g73
(dp1739
g93
g94
ssg82
g1733
sg75
(lp1740
S'server_protocol'
p1741
asbag68
(g89
g70
NtRp1742
(dp1743
g73
(dp1744
g100
g101
ssg82
g1733
sg75
(lp1745
S':'
asbag68
(g89
g70
NtRp1746
(dp1747
g73
(dp1748
sg82
g1733
sg75
(lp1749
g68
(g69
g70
NtRp1750
(dp1751
g73
(dp1752
g81
I4
ssg82
g1746
sg75
(lp1753
S'HTTP/1.1'
p1754
asbasbasbag68
(g84
g70
NtRp1755
(dp1756
g73
(dp1757
sg82
g1203
sg75
(lp1758
g68
(g89
g70
NtRp1759
(dp1760
g73
(dp1761
g93
g94
ssg82
g1755
sg75
(lp1762
S'server_software'
p1763
asbag68
(g89
g70
NtRp1764
(dp1765
g73
(dp1766
g100
g101
ssg82
g1755
sg75
(lp1767
S':'
asbag68
(g89
g70
NtRp1768
(dp1769
g73
(dp1770
sg82
g1755
sg75
(lp1771
g68
(g69
g70
NtRp1772
(dp1773
g73
(dp1774
g81
I4
ssg82
g1768
sg75
(lp1775
S'Rocket 1.2.2'
p1776
asbasbasbag68
(g84
g70
NtRp1777
(dp1778
g73
(dp1779
sg82
g1203
sg75
(lp1780
g68
(g89
g70
NtRp1781
(dp1782
g73
(dp1783
g93
g94
ssg82
g1777
sg75
(lp1784
S'web2py_crontype'
p1785
asbag68
(g89
g70
NtRp1786
(dp1787
g73
(dp1788
g100
g101
ssg82
g1777
sg75
(lp1789
S':'
asbag68
(g89
g70
NtRp1790
(dp1791
g73
(dp1792
sg82
g1777
sg75
(lp1793
g68
(g69
g70
NtRp1794
(dp1795
g73
(dp1796
g81
I4
ssg82
g1790
sg75
(lp1797
S'hard'
p1798
asbasbasbag68
(g84
g70
NtRp1799
(dp1800
g73
(dp1801
sg82
g1203
sg75
(lp1802
g68
(g89
g70
NtRp1803
(dp1804
g73
(dp1805
g93
g94
ssg82
g1799
sg75
(lp1806
S'web2py_path'
p1807
asbag68
(g89
g70
NtRp1808
(dp1809
g73
(dp1810
g100
g101
ssg82
g1799
sg75
(lp1811
S':'
asbag68
(g89
g70
NtRp1812
(dp1813
g73
(dp1814
sg82
g1799
sg75
(lp1815
g68
(g69
g70
NtRp1816
(dp1817
g73
(dp1818
g81
I4
ssg82
g1812
sg75
(lp1819
g1250
asbasbasbag68
(g84
g70
NtRp1820
(dp1821
g73
(dp1822
sg82
g1203
sg75
(lp1823
g68
(g89
g70
NtRp1824
(dp1825
g73
(dp1826
g93
g94
ssg82
g1820
sg75
(lp1827
S'web2py_version'
p1828
asbag68
(g89
g70
NtRp1829
(dp1830
g73
(dp1831
g100
g101
ssg82
g1820
sg75
(lp1832
S':'
asbag68
(g89
g70
NtRp1833
(dp1834
g73
(dp1835
sg82
g1820
sg75
(lp1836
g68
(g69
g70
NtRp1837
(dp1838
g73
(dp1839
g81
I4
ssg82
g1833
sg75
(lp1840
S'Version 1.98.2 (2011-08-04 00:47:09)\n'
p1841
asbasbasbag68
(g84
g70
NtRp1842
(dp1843
g73
(dp1844
sg82
g1203
sg75
(lp1845
g68
(g89
g70
NtRp1846
(dp1847
g73
(dp1848
g93
g94
ssg82
g1842
sg75
(lp1849
S'wsgi_errors'
p1850
asbag68
(g89
g70
NtRp1851
(dp1852
g73
(dp1853
g100
g101
ssg82
g1842
sg75
(lp1854
S':'
asbag68
(g89
g70
NtRp1855
(dp1856
g73
(dp1857
sg82
g1842
sg75
(lp1858
g68
(g69
g70
NtRp1859
(dp1860
g73
(dp1861
g81
I4
ssg82
g1855
sg75
(lp1862
S"<open file '<stderr>', mode 'w' at 0xb76e20d0>"
p1863
asbasbasbag68
(g84
g70
NtRp1864
(dp1865
g73
(dp1866
sg82
g1203
sg75
(lp1867
g68
(g89
g70
NtRp1868
(dp1869
g73
(dp1870
g93
g94
ssg82
g1864
sg75
(lp1871
S'wsgi_file_wrapper'
p1872
asbag68
(g89
g70
NtRp1873
(dp1874
g73
(dp1875
g100
g101
ssg82
g1864
sg75
(lp1876
S':'
asbag68
(g89
g70
NtRp1877
(dp1878
g73
(dp1879
sg82
g1864
sg75
(lp1880
g68
(g69
g70
NtRp1881
(dp1882
g73
(dp1883
g81
I4
ssg82
g1877
sg75
(lp1884
S'<class gluon.rocket.FileWrapper at 0x96a132c>'
p1885
asbasbasbag68
(g84
g70
NtRp1886
(dp1887
g73
(dp1888
sg82
g1203
sg75
(lp1889
g68
(g89
g70
NtRp1890
(dp1891
g73
(dp1892
g93
g94
ssg82
g1886
sg75
(lp1893
S'wsgi_input'
p1894
asbag68
(g89
g70
NtRp1895
(dp1896
g73
(dp1897
g100
g101
ssg82
g1886
sg75
(lp1898
S':'
asbag68
(g89
g70
NtRp1899
(dp1900
g73
(dp1901
sg82
g1886
sg75
(lp1902
g68
(g69
g70
NtRp1903
(dp1904
g73
(dp1905
g81
I4
ssg82
g1899
sg75
(lp1906
S'<socket._fileobject object at 0x9702bac>'
p1907
asbasbasbag68
(g84
g70
NtRp1908
(dp1909
g73
(dp1910
sg82
g1203
sg75
(lp1911
g68
(g89
g70
NtRp1912
(dp1913
g73
(dp1914
g93
g94
ssg82
g1908
sg75
(lp1915
S'wsgi_multiprocess'
p1916
asbag68
(g89
g70
NtRp1917
(dp1918
g73
(dp1919
g100
g101
ssg82
g1908
sg75
(lp1920
S':'
asbag68
(g89
g70
NtRp1921
(dp1922
g73
(dp1923
sg82
g1908
sg75
(lp1924
g68
(g69
g70
NtRp1925
(dp1926
g73
(dp1927
g81
I4
ssg82
g1921
sg75
(lp1928
g111
asbasbasbag68
(g84
g70
NtRp1929
(dp1930
g73
(dp1931
sg82
g1203
sg75
(lp1932
g68
(g89
g70
NtRp1933
(dp1934
g73
(dp1935
g93
g94
ssg82
g1929
sg75
(lp1936
S'wsgi_multithread'
p1937
asbag68
(g89
g70
NtRp1938
(dp1939
g73
(dp1940
g100
g101
ssg82
g1929
sg75
(lp1941
S':'
asbag68
(g89
g70
NtRp1942
(dp1943
g73
(dp1944
sg82
g1929
sg75
(lp1945
g68
(g69
g70
NtRp1946
(dp1947
g73
(dp1948
g81
I4
ssg82
g1942
sg75
(lp1949
S'True'
p1950
asbasbasbag68
(g84
g70
NtRp1951
(dp1952
g73
(dp1953
sg82
g1203
sg75
(lp1954
g68
(g89
g70
NtRp1955
(dp1956
g73
(dp1957
g93
g94
ssg82
g1951
sg75
(lp1958
S'wsgi_run_once'
p1959
asbag68
(g89
g70
NtRp1960
(dp1961
g73
(dp1962
g100
g101
ssg82
g1951
sg75
(lp1963
S':'
asbag68
(g89
g70
NtRp1964
(dp1965
g73
(dp1966
sg82
g1951
sg75
(lp1967
g68
(g69
g70
NtRp1968
(dp1969
g73
(dp1970
g81
I4
ssg82
g1964
sg75
(lp1971
g111
asbasbasbag68
(g84
g70
NtRp1972
(dp1973
g73
(dp1974
sg82
g1203
sg75
(lp1975
g68
(g89
g70
NtRp1976
(dp1977
g73
(dp1978
g93
g94
ssg82
g1972
sg75
(lp1979
S'wsgi_url_scheme'
p1980
asbag68
(g89
g70
NtRp1981
(dp1982
g73
(dp1983
g100
g101
ssg82
g1972
sg75
(lp1984
S':'
asbag68
(g89
g70
NtRp1985
(dp1986
g73
(dp1987
sg82
g1972
sg75
(lp1988
g68
(g69
g70
NtRp1989
(dp1990
g73
(dp1991
g81
I4
ssg82
g1985
sg75
(lp1992
S'http'
p1993
asbasbasbag68
(g84
g70
NtRp1994
(dp1995
g73
(dp1996
sg82
g1203
sg75
(lp1997
g68
(g89
g70
NtRp1998
(dp1999
g73
(dp2000
g93
g94
ssg82
g1994
sg75
(lp2001
S'wsgi_version'
p2002
asbag68
(g89
g70
NtRp2003
(dp2004
g73
(dp2005
g100
g101
ssg82
g1994
sg75
(lp2006
S':'
asbag68
(g89
g70
NtRp2007
(dp2008
g73
(dp2009
sg82
g1994
sg75
(lp2010
g68
(g69
g70
NtRp2011
(dp2012
g73
(dp2013
g81
I4
ssg82
g2007
sg75
(lp2014
g68
(g77
g70
NtRp2015
(dp2016
g73
(dp2017
g81
I3
ssg82
Nsg75
(lp2018
g68
(g84
g70
NtRp2019
(dp2020
g73
(dp2021
sg82
g2015
sg75
(lp2022
g68
(g89
g70
NtRp2023
(dp2024
g73
(dp2025
sg82
g2019
sg75
(lp2026
g68
(g69
g70
NtRp2027
(dp2028
g73
(dp2029
g81
I3
ssg82
g2023
sg75
(lp2030
S'1'
asbasbasbag68
(g84
g70
NtRp2031
(dp2032
g73
(dp2033
sg82
g2015
sg75
(lp2034
g68
(g89
g70
NtRp2035
(dp2036
g73
(dp2037
sg82
g2031
sg75
(lp2038
g68
(g69
g70
NtRp2039
(dp2040
g73
(dp2041
g81
I3
ssg82
g2035
sg75
(lp2042
S'0'
asbasbasbasbasbasbasbasbasbasbasbag68
(g84
g70
NtRp2043
(dp2044
g73
(dp2045
sg82
g78
sg75
(lp2046
g68
(g89
g70
NtRp2047
(dp2048
g73
(dp2049
g93
g94
ssg82
g2043
sg75
(lp2050
S'extension'
p2051
asbag68
(g89
g70
NtRp2052
(dp2053
g73
(dp2054
g100
g101
ssg82
g2043
sg75
(lp2055
S':'
asbag68
(g89
g70
NtRp2056
(dp2057
g73
(dp2058
sg82
g2043
sg75
(lp2059
g68
(g69
g70
NtRp2060
(dp2061
g73
(dp2062
g81
I5
ssg82
g2056
sg75
(lp2063
S'html'
p2064
asbasbasbag68
(g84
g70
NtRp2065
(dp2066
g73
(dp2067
sg82
g78
sg75
(lp2068
g68
(g89
g70
NtRp2069
(dp2070
g73
(dp2071
g93
g94
ssg82
g2065
sg75
(lp2072
S'folder'
p2073
asbag68
(g89
g70
NtRp2074
(dp2075
g73
(dp2076
g100
g101
ssg82
g2065
sg75
(lp2077
S':'
asbag68
(g89
g70
NtRp2078
(dp2079
g73
(dp2080
sg82
g2065
sg75
(lp2081
g68
(g69
g70
NtRp2082
(dp2083
g73
(dp2084
g81
I5
ssg82
g2078
sg75
(lp2085
S'/home/alumno/web2py/applications/datos/'
p2086
asbasbasbag68
(g84
g70
NtRp2087
(dp2088
g73
(dp2089
sg82
g78
sg75
(lp2090
g68
(g89
g70
NtRp2091
(dp2092
g73
(dp2093
g93
g94
ssg82
g2087
sg75
(lp2094
S'function'
p2095
asbag68
(g89
g70
NtRp2096
(dp2097
g73
(dp2098
g100
g101
ssg82
g2087
sg75
(lp2099
S':'
asbag68
(g89
g70
NtRp2100
(dp2101
g73
(dp2102
sg82
g2087
sg75
(lp2103
g68
(g69
g70
NtRp2104
(dp2105
g73
(dp2106
g81
I5
ssg82
g2100
sg75
(lp2107
S'index'
p2108
asbasbasbag68
(g84
g70
NtRp2109
(dp2110
g73
(dp2111
sg82
g78
sg75
(lp2112
g68
(g89
g70
NtRp2113
(dp2114
g73
(dp2115
g93
g94
ssg82
g2109
sg75
(lp2116
S'get_vars'
p2117
asbag68
(g89
g70
NtRp2118
(dp2119
g73
(dp2120
g100
g101
ssg82
g2109
sg75
(lp2121
S':'
asbag68
(g89
g70
NtRp2122
(dp2123
g73
(dp2124
sg82
g2109
sg75
(lp2125
g68
(g69
g70
NtRp2126
(dp2127
g73
(dp2128
g81
I5
ssg82
g2122
sg75
(lp2129
g68
(g77
g70
NtRp2130
(dp2131
g73
(dp2132
g81
I4
ssg82
Nsg75
(lp2133
sbasbasbasbag68
(g84
g70
NtRp2134
(dp2135
g73
(dp2136
sg82
g78
sg75
(lp2137
g68
(g89
g70
NtRp2138
(dp2139
g73
(dp2140
g93
g94
ssg82
g2134
sg75
(lp2141
S'is_https'
p2142
asbag68
(g89
g70
NtRp2143
(dp2144
g73
(dp2145
g100
g101
ssg82
g2134
sg75
(lp2146
S':'
asbag68
(g89
g70
NtRp2147
(dp2148
g73
(dp2149
sg82
g2134
sg75
(lp2150
g68
(g69
g70
NtRp2151
(dp2152
g73
(dp2153
g81
I5
ssg82
g2147
sg75
(lp2154
g111
asbasbasbag68
(g84
g70
NtRp2155
(dp2156
g73
(dp2157
sg82
g78
sg75
(lp2158
g68
(g89
g70
NtRp2159
(dp2160
g73
(dp2161
g93
g94
ssg82
g2155
sg75
(lp2162
S'is_local'
p2163
asbag68
(g89
g70
NtRp2164
(dp2165
g73
(dp2166
g100
g101
ssg82
g2155
sg75
(lp2167
S':'
asbag68
(g89
g70
NtRp2168
(dp2169
g73
(dp2170
sg82
g2155
sg75
(lp2171
g68
(g69
g70
NtRp2172
(dp2173
g73
(dp2174
g81
I5
ssg82
g2168
sg75
(lp2175
g1950
asbasbasbag68
(g84
g70
NtRp2176
(dp2177
g73
(dp2178
sg82
g78
sg75
(lp2179
g68
(g89
g70
NtRp2180
(dp2181
g73
(dp2182
g93
g94
ssg82
g2176
sg75
(lp2183
S'is_restful'
p2184
asbag68
(g89
g70
NtRp2185
(dp2186
g73
(dp2187
g100
g101
ssg82
g2176
sg75
(lp2188
S':'
asbag68
(g89
g70
NtRp2189
(dp2190
g73
(dp2191
sg82
g2176
sg75
(lp2192
g68
(g69
g70
NtRp2193
(dp2194
g73
(dp2195
g81
I5
ssg82
g2189
sg75
(lp2196
g111
asbasbasbag68
(g84
g70
NtRp2197
(dp2198
g73
(dp2199
sg82
g78
sg75
(lp2200
g68
(g89
g70
NtRp2201
(dp2202
g73
(dp2203
g93
g94
ssg82
g2197
sg75
(lp2204
S'now'
p2205
asbag68
(g89
g70
NtRp2206
(dp2207
g73
(dp2208
g100
g101
ssg82
g2197
sg75
(lp2209
S':'
asbag68
(g89
g70
NtRp2210
(dp2211
g73
(dp2212
sg82
g2197
sg75
(lp2213
g68
(g69
g70
NtRp2214
(dp2215
g73
(dp2216
g81
I5
ssg82
g2210
sg75
(lp2217
S'datetime.datetime(2011, 9, 7, 19, 54, 45, 442934)'
p2218
asbasbasbag68
(g84
g70
NtRp2219
(dp2220
g73
(dp2221
sg82
g78
sg75
(lp2222
g68
(g89
g70
NtRp2223
(dp2224
g73
(dp2225
g93
g94
ssg82
g2219
sg75
(lp2226
S'post_vars'
p2227
asbag68
(g89
g70
NtRp2228
(dp2229
g73
(dp2230
g100
g101
ssg82
g2219
sg75
(lp2231
S':'
asbag68
(g89
g70
NtRp2232
(dp2233
g73
(dp2234
sg82
g2219
sg75
(lp2235
g68
(g69
g70
NtRp2236
(dp2237
g73
(dp2238
g81
I5
ssg82
g2232
sg75
(lp2239
g68
(g77
g70
NtRp2240
(dp2241
g73
(dp2242
g81
I4
ssg82
Nsg75
(lp2243
sbasbasbasbag68
(g84
g70
NtRp2244
(dp2245
g73
(dp2246
sg82
g78
sg75
(lp2247
g68
(g89
g70
NtRp2248
(dp2249
g73
(dp2250
g93
g94
ssg82
g2244
sg75
(lp2251
S'url'
p2252
asbag68
(g89
g70
NtRp2253
(dp2254
g73
(dp2255
g100
g101
ssg82
g2244
sg75
(lp2256
S':'
asbag68
(g89
g70
NtRp2257
(dp2258
g73
(dp2259
sg82
g2244
sg75
(lp2260
g68
(g69
g70
NtRp2261
(dp2262
g73
(dp2263
g81
I5
ssg82
g2257
sg75
(lp2264
S'/datos/default/index'
p2265
asbasbasbag68
(g84
g70
NtRp2266
(dp2267
g73
(dp2268
sg82
g78
sg75
(lp2269
g68
(g89
g70
NtRp2270
(dp2271
g73
(dp2272
g93
g94
ssg82
g2266
sg75
(lp2273
S'uuid'
p2274
asbag68
(g89
g70
NtRp2275
(dp2276
g73
(dp2277
g100
g101
ssg82
g2266
sg75
(lp2278
S':'
asbag68
(g89
g70
NtRp2279
(dp2280
g73
(dp2281
sg82
g2266
sg75
(lp2282
g68
(g69
g70
NtRp2283
(dp2284
g73
(dp2285
g81
I5
ssg82
g2279
sg75
(lp2286
S'datos/127.0.0.1.2011-09-07.19-54-45.7abd59b9-d30d-484a-9662-106ffcacdce8'
p2287
asbasbasbag68
(g84
g70
NtRp2288
(dp2289
g73
(dp2290
sg82
g78
sg75
(lp2291
g68
(g89
g70
NtRp2292
(dp2293
g73
(dp2294
g93
g94
ssg82
g2288
sg75
(lp2295
S'vars'
p2296
asbag68
(g89
g70
NtRp2297
(dp2298
g73
(dp2299
g100
g101
ssg82
g2288
sg75
(lp2300
S':'
asbag68
(g89
g70
NtRp2301
(dp2302
g73
(dp2303
sg82
g2288
sg75
(lp2304
g68
(g69
g70
NtRp2305
(dp2306
g73
(dp2307
g81
I5
ssg82
g2301
sg75
(lp2308
g68
(g77
g70
NtRp2309
(dp2310
g73
(dp2311
g81
I4
ssg82
Nsg75
(lp2312
sbasbasbasbag68
(g84
g70
NtRp2313
(dp2314
g73
(dp2315
sg82
g78
sg75
(lp2316
g68
(g89
g70
NtRp2317
(dp2318
g73
(dp2319
g93
g94
ssg82
g2313
sg75
(lp2320
S'wsgi'
p2321
asbag68
(g89
g70
NtRp2322
(dp2323
g73
(dp2324
g100
g101
ssg82
g2313
sg75
(lp2325
S':'
asbag68
(g89
g70
NtRp2326
(dp2327
g73
(dp2328
sg82
g2313
sg75
(lp2329
g68
(g69
g70
NtRp2330
(dp2331
g73
(dp2332
g81
I5
ssg82
g2326
sg75
(lp2333
g68
(g77
g70
NtRp2334
(dp2335
g73
(dp2336
g81
I4
ssg82
Nsg75
(lp2337
g68
(g84
g70
NtRp2338
(dp2339
g73
(dp2340
sg82
g2334
sg75
(lp2341
g68
(g89
g70
NtRp2342
(dp2343
g73
(dp2344
g93
g94
ssg82
g2338
sg75
(lp2345
S'environ'
p2346
asbag68
(g89
g70
NtRp2347
(dp2348
g73
(dp2349
g100
g101
ssg82
g2338
sg75
(lp2350
S':'
asbag68
(g89
g70
NtRp2351
(dp2352
g73
(dp2353
sg82
g2338
sg75
(lp2354
g68
(g69
g70
NtRp2355
(dp2356
g73
(dp2357
g81
I4
ssg82
g2351
sg75
(lp2358
g68
(g77
g70
NtRp2359
(dp2360
g73
(dp2361
g81
I3
ssg82
Nsg75
(lp2362
g68
(g84
g70
NtRp2363
(dp2364
g73
(dp2365
sg82
g2359
sg75
(lp2366
g68
(g89
g70
NtRp2367
(dp2368
g73
(dp2369
g93
g94
ssg82
g2363
sg75
(lp2370
S'HTTP_ACCEPT'
p2371
asbag68
(g89
g70
NtRp2372
(dp2373
g73
(dp2374
g100
g101
ssg82
g2363
sg75
(lp2375
S':'
asbag68
(g89
g70
NtRp2376
(dp2377
g73
(dp2378
sg82
g2363
sg75
(lp2379
g68
(g69
g70
NtRp2380
(dp2381
g73
(dp2382
g81
I3
ssg82
g2376
sg75
(lp2383
g1384
asbasbasbag68
(g84
g70
NtRp2384
(dp2385
g73
(dp2386
sg82
g2359
sg75
(lp2387
g68
(g89
g70
NtRp2388
(dp2389
g73
(dp2390
g93
g94
ssg82
g2384
sg75
(lp2391
S'HTTP_ACCEPT_CHARSET'
p2392
asbag68
(g89
g70
NtRp2393
(dp2394
g73
(dp2395
g100
g101
ssg82
g2384
sg75
(lp2396
S':'
asbag68
(g89
g70
NtRp2397
(dp2398
g73
(dp2399
sg82
g2384
sg75
(lp2400
g68
(g69
g70
NtRp2401
(dp2402
g73
(dp2403
g81
I3
ssg82
g2397
sg75
(lp2404
g1406
asbasbasbag68
(g84
g70
NtRp2405
(dp2406
g73
(dp2407
sg82
g2359
sg75
(lp2408
g68
(g89
g70
NtRp2409
(dp2410
g73
(dp2411
g93
g94
ssg82
g2405
sg75
(lp2412
S'HTTP_ACCEPT_ENCODING'
p2413
asbag68
(g89
g70
NtRp2414
(dp2415
g73
(dp2416
g100
g101
ssg82
g2405
sg75
(lp2417
S':'
asbag68
(g89
g70
NtRp2418
(dp2419
g73
(dp2420
sg82
g2405
sg75
(lp2421
g68
(g69
g70
NtRp2422
(dp2423
g73
(dp2424
g81
I3
ssg82
g2418
sg75
(lp2425
g1428
asbasbasbag68
(g84
g70
NtRp2426
(dp2427
g73
(dp2428
sg82
g2359
sg75
(lp2429
g68
(g89
g70
NtRp2430
(dp2431
g73
(dp2432
g93
g94
ssg82
g2426
sg75
(lp2433
S'HTTP_ACCEPT_LANGUAGE'
p2434
asbag68
(g89
g70
NtRp2435
(dp2436
g73
(dp2437
g100
g101
ssg82
g2426
sg75
(lp2438
S':'
asbag68
(g89
g70
NtRp2439
(dp2440
g73
(dp2441
sg82
g2426
sg75
(lp2442
g68
(g69
g70
NtRp2443
(dp2444
g73
(dp2445
g81
I3
ssg82
g2439
sg75
(lp2446
g1450
asbasbasbag68
(g84
g70
NtRp2447
(dp2448
g73
(dp2449
sg82
g2359
sg75
(lp2450
g68
(g89
g70
NtRp2451
(dp2452
g73
(dp2453
g93
g94
ssg82
g2447
sg75
(lp2454
S'HTTP_CONNECTION'
p2455
asbag68
(g89
g70
NtRp2456
(dp2457
g73
(dp2458
g100
g101
ssg82
g2447
sg75
(lp2459
S':'
asbag68
(g89
g70
NtRp2460
(dp2461
g73
(dp2462
sg82
g2447
sg75
(lp2463
g68
(g69
g70
NtRp2464
(dp2465
g73
(dp2466
g81
I3
ssg82
g2460
sg75
(lp2467
g1472
asbasbasbag68
(g84
g70
NtRp2468
(dp2469
g73
(dp2470
sg82
g2359
sg75
(lp2471
g68
(g89
g70
NtRp2472
(dp2473
g73
(dp2474
g93
g94
ssg82
g2468
sg75
(lp2475
S'HTTP_COOKIE'
p2476
asbag68
(g89
g70
NtRp2477
(dp2478
g73
(dp2479
g100
g101
ssg82
g2468
sg75
(lp2480
S':'
asbag68
(g89
g70
NtRp2481
(dp2482
g73
(dp2483
sg82
g2468
sg75
(lp2484
g68
(g69
g70
NtRp2485
(dp2486
g73
(dp2487
g81
I3
ssg82
g2481
sg75
(lp2488
g1494
asbasbasbag68
(g84
g70
NtRp2489
(dp2490
g73
(dp2491
sg82
g2359
sg75
(lp2492
g68
(g89
g70
NtRp2493
(dp2494
g73
(dp2495
g93
g94
ssg82
g2489
sg75
(lp2496
S'HTTP_HOST'
p2497
asbag68
(g89
g70
NtRp2498
(dp2499
g73
(dp2500
g100
g101
ssg82
g2489
sg75
(lp2501
S':'
asbag68
(g89
g70
NtRp2502
(dp2503
g73
(dp2504
sg82
g2489
sg75
(lp2505
g68
(g69
g70
NtRp2506
(dp2507
g73
(dp2508
g81
I3
ssg82
g2502
sg75
(lp2509
g1516
asbasbasbag68
(g84
g70
NtRp2510
(dp2511
g73
(dp2512
sg82
g2359
sg75
(lp2513
g68
(g89
g70
NtRp2514
(dp2515
g73
(dp2516
g93
g94
ssg82
g2510
sg75
(lp2517
S'HTTP_USER_AGENT'
p2518
asbag68
(g89
g70
NtRp2519
(dp2520
g73
(dp2521
g100
g101
ssg82
g2510
sg75
(lp2522
S':'
asbag68
(g89
g70
NtRp2523
(dp2524
g73
(dp2525
sg82
g2510
sg75
(lp2526
g68
(g69
g70
NtRp2527
(dp2528
g73
(dp2529
g81
I3
ssg82
g2523
sg75
(lp2530
g1538
asbasbasbag68
(g84
g70
NtRp2531
(dp2532
g73
(dp2533
sg82
g2359
sg75
(lp2534
g68
(g89
g70
NtRp2535
(dp2536
g73
(dp2537
g93
g94
ssg82
g2531
sg75
(lp2538
S'PATH_INFO'
p2539
asbag68
(g89
g70
NtRp2540
(dp2541
g73
(dp2542
g100
g101
ssg82
g2531
sg75
(lp2543
S':'
asbag68
(g89
g70
NtRp2544
(dp2545
g73
(dp2546
sg82
g2531
sg75
(lp2547
g68
(g69
g70
NtRp2548
(dp2549
g73
(dp2550
g81
I3
ssg82
g2544
sg75
(lp2551
g1581
asbasbasbag68
(g84
g70
NtRp2552
(dp2553
g73
(dp2554
sg82
g2359
sg75
(lp2555
g68
(g89
g70
NtRp2556
(dp2557
g73
(dp2558
g93
g94
ssg82
g2552
sg75
(lp2559
S'QUERY_STRING'
p2560
asbag68
(g89
g70
NtRp2561
(dp2562
g73
(dp2563
g100
g101
ssg82
g2552
sg75
(lp2564
S':'
asbag68
(g89
g70
NtRp2565
(dp2566
g73
(dp2567
sg82
g2552
sg75
(lp2568
g68
(g69
g70
NtRp2569
(dp2570
g73
(dp2571
g81
I3
ssg82
g2565
sg75
(lp2572
S''
asbasbasbag68
(g84
g70
NtRp2573
(dp2574
g73
(dp2575
sg82
g2359
sg75
(lp2576
g68
(g89
g70
NtRp2577
(dp2578
g73
(dp2579
g93
g94
ssg82
g2573
sg75
(lp2580
S'REMOTE_ADDR'
p2581
asbag68
(g89
g70
NtRp2582
(dp2583
g73
(dp2584
g100
g101
ssg82
g2573
sg75
(lp2585
S':'
asbag68
(g89
g70
NtRp2586
(dp2587
g73
(dp2588
sg82
g2573
sg75
(lp2589
g68
(g69
g70
NtRp2590
(dp2591
g73
(dp2592
g81
I3
ssg82
g2586
sg75
(lp2593
g201
asbasbasbag68
(g84
g70
NtRp2594
(dp2595
g73
(dp2596
sg82
g2359
sg75
(lp2597
g68
(g89
g70
NtRp2598
(dp2599
g73
(dp2600
g93
g94
ssg82
g2594
sg75
(lp2601
S'REMOTE_PORT'
p2602
asbag68
(g89
g70
NtRp2603
(dp2604
g73
(dp2605
g100
g101
ssg82
g2594
sg75
(lp2606
S':'
asbag68
(g89
g70
NtRp2607
(dp2608
g73
(dp2609
sg82
g2594
sg75
(lp2610
g68
(g69
g70
NtRp2611
(dp2612
g73
(dp2613
g81
I3
ssg82
g2607
sg75
(lp2614
g1645
asbasbasbag68
(g84
g70
NtRp2615
(dp2616
g73
(dp2617
sg82
g2359
sg75
(lp2618
g68
(g89
g70
NtRp2619
(dp2620
g73
(dp2621
g93
g94
ssg82
g2615
sg75
(lp2622
S'REQUEST_METHOD'
p2623
asbag68
(g89
g70
NtRp2624
(dp2625
g73
(dp2626
g100
g101
ssg82
g2615
sg75
(lp2627
S':'
asbag68
(g89
g70
NtRp2628
(dp2629
g73
(dp2630
sg82
g2615
sg75
(lp2631
g68
(g69
g70
NtRp2632
(dp2633
g73
(dp2634
g81
I3
ssg82
g2628
sg75
(lp2635
g1667
asbasbasbag68
(g84
g70
NtRp2636
(dp2637
g73
(dp2638
sg82
g2359
sg75
(lp2639
g68
(g89
g70
NtRp2640
(dp2641
g73
(dp2642
g93
g94
ssg82
g2636
sg75
(lp2643
S'SCRIPT_NAME'
p2644
asbag68
(g89
g70
NtRp2645
(dp2646
g73
(dp2647
g100
g101
ssg82
g2636
sg75
(lp2648
S':'
asbag68
(g89
g70
NtRp2649
(dp2650
g73
(dp2651
sg82
g2636
sg75
(lp2652
g68
(g69
g70
NtRp2653
(dp2654
g73
(dp2655
g81
I3
ssg82
g2649
sg75
(lp2656
S''
asbasbasbag68
(g84
g70
NtRp2657
(dp2658
g73
(dp2659
sg82
g2359
sg75
(lp2660
g68
(g89
g70
NtRp2661
(dp2662
g73
(dp2663
g93
g94
ssg82
g2657
sg75
(lp2664
S'SERVER_NAME'
p2665
asbag68
(g89
g70
NtRp2666
(dp2667
g73
(dp2668
g100
g101
ssg82
g2657
sg75
(lp2669
S':'
asbag68
(g89
g70
NtRp2670
(dp2671
g73
(dp2672
sg82
g2657
sg75
(lp2673
g68
(g69
g70
NtRp2674
(dp2675
g73
(dp2676
g81
I3
ssg82
g2670
sg75
(lp2677
g1710
asbasbasbag68
(g84
g70
NtRp2678
(dp2679
g73
(dp2680
sg82
g2359
sg75
(lp2681
g68
(g89
g70
NtRp2682
(dp2683
g73
(dp2684
g93
g94
ssg82
g2678
sg75
(lp2685
S'SERVER_PORT'
p2686
asbag68
(g89
g70
NtRp2687
(dp2688
g73
(dp2689
g100
g101
ssg82
g2678
sg75
(lp2690
S':'
asbag68
(g89
g70
NtRp2691
(dp2692
g73
(dp2693
sg82
g2678
sg75
(lp2694
g68
(g69
g70
NtRp2695
(dp2696
g73
(dp2697
g81
I3
ssg82
g2691
sg75
(lp2698
g1732
asbasbasbag68
(g84
g70
NtRp2699
(dp2700
g73
(dp2701
sg82
g2359
sg75
(lp2702
g68
(g89
g70
NtRp2703
(dp2704
g73
(dp2705
g93
g94
ssg82
g2699
sg75
(lp2706
S'SERVER_PROTOCOL'
p2707
asbag68
(g89
g70
NtRp2708
(dp2709
g73
(dp2710
g100
g101
ssg82
g2699
sg75
(lp2711
S':'
asbag68
(g89
g70
NtRp2712
(dp2713
g73
(dp2714
sg82
g2699
sg75
(lp2715
g68
(g69
g70
NtRp2716
(dp2717
g73
(dp2718
g81
I3
ssg82
g2712
sg75
(lp2719
g1754
asbasbasbag68
(g84
g70
NtRp2720
(dp2721
g73
(dp2722
sg82
g2359
sg75
(lp2723
g68
(g89
g70
NtRp2724
(dp2725
g73
(dp2726
g93
g94
ssg82
g2720
sg75
(lp2727
S'SERVER_SOFTWARE'
p2728
asbag68
(g89
g70
NtRp2729
(dp2730
g73
(dp2731
g100
g101
ssg82
g2720
sg75
(lp2732
S':'
asbag68
(g89
g70
NtRp2733
(dp2734
g73
(dp2735
sg82
g2720
sg75
(lp2736
g68
(g69
g70
NtRp2737
(dp2738
g73
(dp2739
g81
I3
ssg82
g2733
sg75
(lp2740
g1776
asbasbasbag68
(g84
g70
NtRp2741
(dp2742
g73
(dp2743
sg82
g2359
sg75
(lp2744
g68
(g89
g70
NtRp2745
(dp2746
g73
(dp2747
g93
g94
ssg82
g2741
sg75
(lp2748
S'wsgi.errors'
p2749
asbag68
(g89
g70
NtRp2750
(dp2751
g73
(dp2752
g100
g101
ssg82
g2741
sg75
(lp2753
S':'
asbag68
(g89
g70
NtRp2754
(dp2755
g73
(dp2756
sg82
g2741
sg75
(lp2757
g68
(g69
g70
NtRp2758
(dp2759
g73
(dp2760
g81
I3
ssg82
g2754
sg75
(lp2761
S"<open file '<stderr>', mode 'w' at 0xb76e20d0>"
p2762
asbasbasbag68
(g84
g70
NtRp2763
(dp2764
g73
(dp2765
sg82
g2359
sg75
(lp2766
g68
(g89
g70
NtRp2767
(dp2768
g73
(dp2769
g93
g94
ssg82
g2763
sg75
(lp2770
S'wsgi.file_wrapper'
p2771
asbag68
(g89
g70
NtRp2772
(dp2773
g73
(dp2774
g100
g101
ssg82
g2763
sg75
(lp2775
S':'
asbag68
(g89
g70
NtRp2776
(dp2777
g73
(dp2778
sg82
g2763
sg75
(lp2779
g68
(g69
g70
NtRp2780
(dp2781
g73
(dp2782
g81
I3
ssg82
g2776
sg75
(lp2783
S'<class gluon.rocket.FileWrapper at 0x96a132c>'
p2784
asbasbasbag68
(g84
g70
NtRp2785
(dp2786
g73
(dp2787
sg82
g2359
sg75
(lp2788
g68
(g89
g70
NtRp2789
(dp2790
g73
(dp2791
g93
g94
ssg82
g2785
sg75
(lp2792
S'wsgi.input'
p2793
asbag68
(g89
g70
NtRp2794
(dp2795
g73
(dp2796
g100
g101
ssg82
g2785
sg75
(lp2797
S':'
asbag68
(g89
g70
NtRp2798
(dp2799
g73
(dp2800
sg82
g2785
sg75
(lp2801
g68
(g69
g70
NtRp2802
(dp2803
g73
(dp2804
g81
I3
ssg82
g2798
sg75
(lp2805
S'<cStringIO.StringO object at 0x9dffe20>'
p2806
asbasbasbag68
(g84
g70
NtRp2807
(dp2808
g73
(dp2809
sg82
g2359
sg75
(lp2810
g68
(g89
g70
NtRp2811
(dp2812
g73
(dp2813
g93
g94
ssg82
g2807
sg75
(lp2814
S'wsgi.multiprocess'
p2815
asbag68
(g89
g70
NtRp2816
(dp2817
g73
(dp2818
g100
g101
ssg82
g2807
sg75
(lp2819
S':'
asbag68
(g89
g70
NtRp2820
(dp2821
g73
(dp2822
sg82
g2807
sg75
(lp2823
g68
(g69
g70
NtRp2824
(dp2825
g73
(dp2826
g81
I3
ssg82
g2820
sg75
(lp2827
g111
asbasbasbag68
(g84
g70
NtRp2828
(dp2829
g73
(dp2830
sg82
g2359
sg75
(lp2831
g68
(g89
g70
NtRp2832
(dp2833
g73
(dp2834
g93
g94
ssg82
g2828
sg75
(lp2835
S'wsgi.multithread'
p2836
asbag68
(g89
g70
NtRp2837
(dp2838
g73
(dp2839
g100
g101
ssg82
g2828
sg75
(lp2840
S':'
asbag68
(g89
g70
NtRp2841
(dp2842
g73
(dp2843
sg82
g2828
sg75
(lp2844
g68
(g69
g70
NtRp2845
(dp2846
g73
(dp2847
g81
I3
ssg82
g2841
sg75
(lp2848
g1950
asbasbasbag68
(g84
g70
NtRp2849
(dp2850
g73
(dp2851
sg82
g2359
sg75
(lp2852
g68
(g89
g70
NtRp2853
(dp2854
g73
(dp2855
g93
g94
ssg82
g2849
sg75
(lp2856
S'wsgi.run_once'
p2857
asbag68
(g89
g70
NtRp2858
(dp2859
g73
(dp2860
g100
g101
ssg82
g2849
sg75
(lp2861
S':'
asbag68
(g89
g70
NtRp2862
(dp2863
g73
(dp2864
sg82
g2849
sg75
(lp2865
g68
(g69
g70
NtRp2866
(dp2867
g73
(dp2868
g81
I3
ssg82
g2862
sg75
(lp2869
g111
asbasbasbag68
(g84
g70
NtRp2870
(dp2871
g73
(dp2872
sg82
g2359
sg75
(lp2873
g68
(g89
g70
NtRp2874
(dp2875
g73
(dp2876
g93
g94
ssg82
g2870
sg75
(lp2877
S'wsgi.url_scheme'
p2878
asbag68
(g89
g70
NtRp2879
(dp2880
g73
(dp2881
g100
g101
ssg82
g2870
sg75
(lp2882
S':'
asbag68
(g89
g70
NtRp2883
(dp2884
g73
(dp2885
sg82
g2870
sg75
(lp2886
g68
(g69
g70
NtRp2887
(dp2888
g73
(dp2889
g81
I3
ssg82
g2883
sg75
(lp2890
g1993
asbasbasbag68
(g84
g70
NtRp2891
(dp2892
g73
(dp2893
sg82
g2359
sg75
(lp2894
g68
(g89
g70
NtRp2895
(dp2896
g73
(dp2897
g93
g94
ssg82
g2891
sg75
(lp2898
S'wsgi.version'
p2899
asbag68
(g89
g70
NtRp2900
(dp2901
g73
(dp2902
g100
g101
ssg82
g2891
sg75
(lp2903
S':'
asbag68
(g89
g70
NtRp2904
(dp2905
g73
(dp2906
sg82
g2891
sg75
(lp2907
g68
(g69
g70
NtRp2908
(dp2909
g73
(dp2910
g81
I3
ssg82
g2904
sg75
(lp2911
S'1'
asbasbasbasbasbasbasbasbasbasbasbasbasbsS'frames'
p2912
(lp2913
(dp2914
S'file'
p2915
S'/home/alumno/web2py/gluon/restricted.py'
p2916
sS'dump'
p2917
(dp2918
S'code'
p2919
S"'# -*- coding: utf-8 -*-\\n# this file is released ...=crud())\\n\\nresponse._vars=response._caller(index)\\n'"
p2920
sS'layer'
p2921
S"'/home/alumno/web2py/applications/datos/controllers/default.py'"
p2922
sS'global compile2'
p2923
S'<function compile2>'
p2924
sS'ccode'
p2925
S'undefined'
p2926
ssS'lnum'
p2927
I191
sS'lines'
p2928
(dp2929
I192
S'        exec ccode in environment'
p2930
sI193
S'    except HTTP:'
p2931
sI194
S'        raise'
p2932
sI195
S'    except Exception, error:'
p2933
sI186
S"    environment['__file__'] = layer"
p2934
sI187
S'    try:'
p2935
sI188
S'        if type(code) == types.CodeType:'
p2936
sI189
S'            ccode = code'
p2937
sI190
S'        else:'
p2938
sI191
S'            ccode = compile2(code,layer)'
p2939
ssS'call'
p2940
S"(code='# -*- coding: utf-8 -*-\\n# this file is released ...=crud())\\n\\nresponse._vars=response._caller(index)\\n', environment={'A': <class 'gluon.html.A'>, 'B': <class 'gluon.html.B'>, 'BEAUTIFY': <class 'gluon.html.BEAUTIFY'>, 'BODY': <class 'gluon.html.BODY'>, 'BR': <class 'gluon.html.BR'>, 'BUTTON': <class 'gluon.html.BUTTON'>, 'CAT': <class 'gluon.html.CAT'>, 'CENTER': <class 'gluon.html.CENTER'>, 'CLEANUP': <class 'gluon.validators.CLEANUP'>, 'CODE': <class 'gluon.html.CODE'>, ...}, layer='/home/alumno/web2py/applications/datos/controllers/default.py')"
p2941
sS'func'
p2942
S'restricted'
p2943
sa(dp2944
g2915
S'/home/alumno/web2py/gluon/restricted.py'
p2945
sg2917
(dp2946
S'builtincompile'
p2947
S'<built-in function compile>'
p2948
sS'code'
p2949
S"'# -*- coding: utf-8 -*-\\n# this file is released ...=crud())\\n\\nresponse._vars=response._caller(index)\\n'"
p2950
sS'code.rstrip'
p2951
S'<built-in method rstrip of str object>'
p2952
sS').replace'
p2953
g2926
sS'layer'
p2954
S"'/home/alumno/web2py/applications/datos/controllers/default.py'"
p2955
ssg2927
I178
sg2928
(dp2956
I173
S''
sI174
S'def compile2(code,layer):'
p2957
sI175
S'    """'
p2958
sI176
S"    The +'\\n' is necessary else compile fails when code ends in a comment."
p2959
sI177
S'    """'
p2960
sI178
S"    return compile(code.rstrip().replace('\\r\\n','\\n')+'\\n', layer, 'exec')"
p2961
sI179
S''
sI180
S"def restricted(code, environment={}, layer='Unknown'):"
p2962
sI181
S'    """'
p2963
sI182
S'    runs code in environment and returns the output. if an exception occurs'
p2964
ssg2940
S"(code='# -*- coding: utf-8 -*-\\n# this file is released ...=crud())\\n\\nresponse._vars=response._caller(index)\\n', layer='/home/alumno/web2py/applications/datos/controllers/default.py')"
p2965
sg2942
S'compile2'
p2966
sasS'pyver'
p2967
S'Python 2.6.6: /usr/bin/python'
p2968
sS'session'
p2969
g68
(g69
g70
NtRp2970
(dp2971
g73
(dp2972
sg75
(lp2973
g68
(g77
g70
NtRp2974
(dp2975
g73
(dp2976
g81
I5
ssg82
Nsg75
(lp2977
g68
(g84
g70
NtRp2978
(dp2979
g73
(dp2980
sg82
g2974
sg75
(lp2981
g68
(g89
g70
NtRp2982
(dp2983
g73
(dp2984
g93
g94
ssg82
g2978
sg75
(lp2985
S'last_query'
p2986
asbag68
(g89
g70
NtRp2987
(dp2988
g73
(dp2989
g100
g101
ssg82
g2978
sg75
(lp2990
S':'
asbag68
(g89
g70
NtRp2991
(dp2992
g73
(dp2993
sg82
g2978
sg75
(lp2994
g68
(g69
g70
NtRp2995
(dp2996
g73
(dp2997
g81
I5
ssg82
g2991
sg75
(lp2998
S'db.profesor.id>0'
p2999
asbasbasbasbasbsS'etype'
p3000
S"<type 'exceptions.IndentationError'>"
p3001
sS'date'
p3002
S'Wed Sep  7 19:54:45 2011'
p3003
sS'response'
p3004
g68
(g69
g70
NtRp3005
(dp3006
g73
(dp3007
sg75
(lp3008
g68
(g77
g70
NtRp3009
(dp3010
g73
(dp3011
g81
I5
ssg82
Nsg75
(lp3012
g68
(g84
g70
NtRp3013
(dp3014
g73
(dp3015
sg82
g3009
sg75
(lp3016
g68
(g89
g70
NtRp3017
(dp3018
g73
(dp3019
g93
g94
ssg82
g3013
sg75
(lp3020
g166
asbag68
(g89
g70
NtRp3021
(dp3022
g73
(dp3023
g100
g101
ssg82
g3013
sg75
(lp3024
S':'
asbag68
(g89
g70
NtRp3025
(dp3026
g73
(dp3027
sg82
g3013
sg75
(lp3028
g68
(g69
g70
NtRp3029
(dp3030
g73
(dp3031
g81
I5
ssg82
g3025
sg75
(lp3032
S'<cStringIO.StringO object at 0x9d9b520>'
p3033
asbasbasbag68
(g84
g70
NtRp3034
(dp3035
g73
(dp3036
sg82
g3009
sg75
(lp3037
g68
(g89
g70
NtRp3038
(dp3039
g73
(dp3040
g93
g94
ssg82
g3034
sg75
(lp3041
g232
asbag68
(g89
g70
NtRp3042
(dp3043
g73
(dp3044
g100
g101
ssg82
g3034
sg75
(lp3045
S':'
asbag68
(g89
g70
NtRp3046
(dp3047
g73
(dp3048
sg82
g3034
sg75
(lp3049
g68
(g69
g70
NtRp3050
(dp3051
g73
(dp3052
g81
I5
ssg82
g3046
sg75
(lp3053
g68
(g77
g70
NtRp3054
(dp3055
g73
(dp3056
g81
I4
ssg82
Nsg75
(lp3057
g68
(g84
g70
NtRp3058
(dp3059
g73
(dp3060
sg82
g3054
sg75
(lp3061
g68
(g89
g70
NtRp3062
(dp3063
g73
(dp3064
g93
g94
ssg82
g3058
sg75
(lp3065
S'session_id_datos'
p3066
asbag68
(g89
g70
NtRp3067
(dp3068
g73
(dp3069
g100
g101
ssg82
g3058
sg75
(lp3070
S':'
asbag68
(g89
g70
NtRp3071
(dp3072
g73
(dp3073
sg82
g3058
sg75
(lp3074
g68
(g69
g70
NtRp3075
(dp3076
g73
(dp3077
g81
I4
ssg82
g3071
sg75
(lp3078
g68
(g77
g70
NtRp3079
(dp3080
g73
(dp3081
g81
I3
ssg82
Nsg75
(lp3082
g68
(g84
g70
NtRp3083
(dp3084
g73
(dp3085
sg82
g3079
sg75
(lp3086
g68
(g89
g70
NtRp3087
(dp3088
g73
(dp3089
g93
g94
ssg82
g3083
sg75
(lp3090
g282
asbag68
(g89
g70
NtRp3091
(dp3092
g73
(dp3093
g100
g101
ssg82
g3083
sg75
(lp3094
S':'
asbag68
(g89
g70
NtRp3095
(dp3096
g73
(dp3097
sg82
g3083
sg75
(lp3098
g68
(g69
g70
NtRp3099
(dp3100
g73
(dp3101
g81
I3
ssg82
g3095
sg75
(lp3102
S''
asbasbasbag68
(g84
g70
NtRp3103
(dp3104
g73
(dp3105
sg82
g3079
sg75
(lp3106
g68
(g89
g70
NtRp3107
(dp3108
g73
(dp3109
g93
g94
ssg82
g3103
sg75
(lp3110
g303
asbag68
(g89
g70
NtRp3111
(dp3112
g73
(dp3113
g100
g101
ssg82
g3103
sg75
(lp3114
S':'
asbag68
(g89
g70
NtRp3115
(dp3116
g73
(dp3117
sg82
g3103
sg75
(lp3118
g68
(g69
g70
NtRp3119
(dp3120
g73
(dp3121
g81
I3
ssg82
g3115
sg75
(lp3122
S''
asbasbasbag68
(g84
g70
NtRp3123
(dp3124
g73
(dp3125
sg82
g3079
sg75
(lp3126
g68
(g89
g70
NtRp3127
(dp3128
g73
(dp3129
g93
g94
ssg82
g3123
sg75
(lp3130
g324
asbag68
(g89
g70
NtRp3131
(dp3132
g73
(dp3133
g100
g101
ssg82
g3123
sg75
(lp3134
S':'
asbag68
(g89
g70
NtRp3135
(dp3136
g73
(dp3137
sg82
g3123
sg75
(lp3138
g68
(g69
g70
NtRp3139
(dp3140
g73
(dp3141
g81
I3
ssg82
g3135
sg75
(lp3142
S''
asbasbasbag68
(g84
g70
NtRp3143
(dp3144
g73
(dp3145
sg82
g3079
sg75
(lp3146
g68
(g89
g70
NtRp3147
(dp3148
g73
(dp3149
g93
g94
ssg82
g3143
sg75
(lp3150
g345
asbag68
(g89
g70
NtRp3151
(dp3152
g73
(dp3153
g100
g101
ssg82
g3143
sg75
(lp3154
S':'
asbag68
(g89
g70
NtRp3155
(dp3156
g73
(dp3157
sg82
g3143
sg75
(lp3158
g68
(g69
g70
NtRp3159
(dp3160
g73
(dp3161
g81
I3
ssg82
g3155
sg75
(lp3162
S''
asbasbasbag68
(g84
g70
NtRp3163
(dp3164
g73
(dp3165
sg82
g3079
sg75
(lp3166
g68
(g89
g70
NtRp3167
(dp3168
g73
(dp3169
g93
g94
ssg82
g3163
sg75
(lp3170
g366
asbag68
(g89
g70
NtRp3171
(dp3172
g73
(dp3173
g100
g101
ssg82
g3163
sg75
(lp3174
S':'
asbag68
(g89
g70
NtRp3175
(dp3176
g73
(dp3177
sg82
g3163
sg75
(lp3178
g68
(g69
g70
NtRp3179
(dp3180
g73
(dp3181
g81
I3
ssg82
g3175
sg75
(lp3182
S''
asbasbasbag68
(g84
g70
NtRp3183
(dp3184
g73
(dp3185
sg82
g3079
sg75
(lp3186
g68
(g89
g70
NtRp3187
(dp3188
g73
(dp3189
g93
g94
ssg82
g3183
sg75
(lp3190
g387
asbag68
(g89
g70
NtRp3191
(dp3192
g73
(dp3193
g100
g101
ssg82
g3183
sg75
(lp3194
S':'
asbag68
(g89
g70
NtRp3195
(dp3196
g73
(dp3197
sg82
g3183
sg75
(lp3198
g68
(g69
g70
NtRp3199
(dp3200
g73
(dp3201
g81
I3
ssg82
g3195
sg75
(lp3202
S'/'
asbasbasbag68
(g84
g70
NtRp3203
(dp3204
g73
(dp3205
sg82
g3079
sg75
(lp3206
g68
(g89
g70
NtRp3207
(dp3208
g73
(dp3209
g93
g94
ssg82
g3203
sg75
(lp3210
g408
asbag68
(g89
g70
NtRp3211
(dp3212
g73
(dp3213
g100
g101
ssg82
g3203
sg75
(lp3214
S':'
asbag68
(g89
g70
NtRp3215
(dp3216
g73
(dp3217
sg82
g3203
sg75
(lp3218
g68
(g69
g70
NtRp3219
(dp3220
g73
(dp3221
g81
I3
ssg82
g3215
sg75
(lp3222
S''
asbasbasbag68
(g84
g70
NtRp3223
(dp3224
g73
(dp3225
sg82
g3079
sg75
(lp3226
g68
(g89
g70
NtRp3227
(dp3228
g73
(dp3229
g93
g94
ssg82
g3223
sg75
(lp3230
g429
asbag68
(g89
g70
NtRp3231
(dp3232
g73
(dp3233
g100
g101
ssg82
g3223
sg75
(lp3234
S':'
asbag68
(g89
g70
NtRp3235
(dp3236
g73
(dp3237
sg82
g3223
sg75
(lp3238
g68
(g69
g70
NtRp3239
(dp3240
g73
(dp3241
g81
I3
ssg82
g3235
sg75
(lp3242
S''
asbasbasbasbasbasbasbasbasbasbasbag68
(g84
g70
NtRp3243
(dp3244
g73
(dp3245
sg82
g3009
sg75
(lp3246
g68
(g89
g70
NtRp3247
(dp3248
g73
(dp3249
g93
g94
ssg82
g3243
sg75
(lp3250
S'files'
p3251
asbag68
(g89
g70
NtRp3252
(dp3253
g73
(dp3254
g100
g101
ssg82
g3243
sg75
(lp3255
S':'
asbag68
(g89
g70
NtRp3256
(dp3257
g73
(dp3258
sg82
g3243
sg75
(lp3259
g68
(g69
g70
NtRp3260
(dp3261
g73
(dp3262
g81
I5
ssg82
g3256
sg75
(lp3263
g68
(g77
g70
NtRp3264
(dp3265
g73
(dp3266
g81
I4
ssg82
Nsg75
(lp3267
sbasbasbasbag68
(g84
g70
NtRp3268
(dp3269
g73
(dp3270
sg82
g3009
sg75
(lp3271
g68
(g89
g70
NtRp3272
(dp3273
g73
(dp3274
g93
g94
ssg82
g3268
sg75
(lp3275
S'flash'
p3276
asbag68
(g89
g70
NtRp3277
(dp3278
g73
(dp3279
g100
g101
ssg82
g3268
sg75
(lp3280
S':'
asbag68
(g89
g70
NtRp3281
(dp3282
g73
(dp3283
sg82
g3268
sg75
(lp3284
g68
(g69
g70
NtRp3285
(dp3286
g73
(dp3287
g81
I5
ssg82
g3281
sg75
(lp3288
S''
asbasbasbag68
(g84
g70
NtRp3289
(dp3290
g73
(dp3291
sg82
g3009
sg75
(lp3292
g68
(g89
g70
NtRp3293
(dp3294
g73
(dp3295
g93
g94
ssg82
g3289
sg75
(lp3296
S'generic_patterns'
p3297
asbag68
(g89
g70
NtRp3298
(dp3299
g73
(dp3300
g100
g101
ssg82
g3289
sg75
(lp3301
S':'
asbag68
(g89
g70
NtRp3302
(dp3303
g73
(dp3304
sg82
g3289
sg75
(lp3305
g68
(g69
g70
NtRp3306
(dp3307
g73
(dp3308
g81
I5
ssg82
g3302
sg75
(lp3309
g68
(g77
g70
NtRp3310
(dp3311
g73
(dp3312
g81
I4
ssg82
Nsg75
(lp3313
sbasbasbasbag68
(g84
g70
NtRp3314
(dp3315
g73
(dp3316
sg82
g3009
sg75
(lp3317
g68
(g89
g70
NtRp3318
(dp3319
g73
(dp3320
g93
g94
ssg82
g3314
sg75
(lp3321
S'headers'
p3322
asbag68
(g89
g70
NtRp3323
(dp3324
g73
(dp3325
g100
g101
ssg82
g3314
sg75
(lp3326
S':'
asbag68
(g89
g70
NtRp3327
(dp3328
g73
(dp3329
sg82
g3314
sg75
(lp3330
g68
(g69
g70
NtRp3331
(dp3332
g73
(dp3333
g81
I5
ssg82
g3327
sg75
(lp3334
g68
(g77
g70
NtRp3335
(dp3336
g73
(dp3337
g81
I4
ssg82
Nsg75
(lp3338
g68
(g84
g70
NtRp3339
(dp3340
g73
(dp3341
sg82
g3335
sg75
(lp3342
g68
(g89
g70
NtRp3343
(dp3344
g73
(dp3345
g93
g94
ssg82
g3339
sg75
(lp3346
S'Cache-Control'
p3347
asbag68
(g89
g70
NtRp3348
(dp3349
g73
(dp3350
g100
g101
ssg82
g3339
sg75
(lp3351
S':'
asbag68
(g89
g70
NtRp3352
(dp3353
g73
(dp3354
sg82
g3339
sg75
(lp3355
g68
(g69
g70
NtRp3356
(dp3357
g73
(dp3358
g81
I4
ssg82
g3352
sg75
(lp3359
S'no-store, no-cache, must-revalidate, post-check=0, pre-check=0'
p3360
asbasbasbag68
(g84
g70
NtRp3361
(dp3362
g73
(dp3363
sg82
g3335
sg75
(lp3364
g68
(g89
g70
NtRp3365
(dp3366
g73
(dp3367
g93
g94
ssg82
g3361
sg75
(lp3368
S'Content-Type'
p3369
asbag68
(g89
g70
NtRp3370
(dp3371
g73
(dp3372
g100
g101
ssg82
g3361
sg75
(lp3373
S':'
asbag68
(g89
g70
NtRp3374
(dp3375
g73
(dp3376
sg82
g3361
sg75
(lp3377
g68
(g69
g70
NtRp3378
(dp3379
g73
(dp3380
g81
I4
ssg82
g3374
sg75
(lp3381
S'text/html; charset=utf-8'
p3382
asbasbasbag68
(g84
g70
NtRp3383
(dp3384
g73
(dp3385
sg82
g3335
sg75
(lp3386
g68
(g89
g70
NtRp3387
(dp3388
g73
(dp3389
g93
g94
ssg82
g3383
sg75
(lp3390
S'Expires'
p3391
asbag68
(g89
g70
NtRp3392
(dp3393
g73
(dp3394
g100
g101
ssg82
g3383
sg75
(lp3395
S':'
asbag68
(g89
g70
NtRp3396
(dp3397
g73
(dp3398
sg82
g3383
sg75
(lp3399
g68
(g69
g70
NtRp3400
(dp3401
g73
(dp3402
g81
I4
ssg82
g3396
sg75
(lp3403
S'Thu, 08 Sep 2011 00:54:45 GMT'
p3404
asbasbasbag68
(g84
g70
NtRp3405
(dp3406
g73
(dp3407
sg82
g3335
sg75
(lp3408
g68
(g89
g70
NtRp3409
(dp3410
g73
(dp3411
g93
g94
ssg82
g3405
sg75
(lp3412
S'Pragma'
p3413
asbag68
(g89
g70
NtRp3414
(dp3415
g73
(dp3416
g100
g101
ssg82
g3405
sg75
(lp3417
S':'
asbag68
(g89
g70
NtRp3418
(dp3419
g73
(dp3420
sg82
g3405
sg75
(lp3421
g68
(g69
g70
NtRp3422
(dp3423
g73
(dp3424
g81
I4
ssg82
g3418
sg75
(lp3425
S'no-cache'
p3426
asbasbasbag68
(g84
g70
NtRp3427
(dp3428
g73
(dp3429
sg82
g3335
sg75
(lp3430
g68
(g89
g70
NtRp3431
(dp3432
g73
(dp3433
g93
g94
ssg82
g3427
sg75
(lp3434
S'X-Powered-By'
p3435
asbag68
(g89
g70
NtRp3436
(dp3437
g73
(dp3438
g100
g101
ssg82
g3427
sg75
(lp3439
S':'
asbag68
(g89
g70
NtRp3440
(dp3441
g73
(dp3442
sg82
g3427
sg75
(lp3443
g68
(g69
g70
NtRp3444
(dp3445
g73
(dp3446
g81
I4
ssg82
g3440
sg75
(lp3447
S'web2py'
p3448
asbasbasbasbasbasbasbag68
(g84
g70
NtRp3449
(dp3450
g73
(dp3451
sg82
g3009
sg75
(lp3452
g68
(g89
g70
NtRp3453
(dp3454
g73
(dp3455
g93
g94
ssg82
g3449
sg75
(lp3456
S'menu'
p3457
asbag68
(g89
g70
NtRp3458
(dp3459
g73
(dp3460
g100
g101
ssg82
g3449
sg75
(lp3461
S':'
asbag68
(g89
g70
NtRp3462
(dp3463
g73
(dp3464
sg82
g3449
sg75
(lp3465
g68
(g69
g70
NtRp3466
(dp3467
g73
(dp3468
g81
I5
ssg82
g3462
sg75
(lp3469
g68
(g77
g70
NtRp3470
(dp3471
g73
(dp3472
g81
I4
ssg82
Nsg75
(lp3473
g68
(g84
g70
NtRp3474
(dp3475
g73
(dp3476
sg82
g3470
sg75
(lp3477
g68
(g89
g70
NtRp3478
(dp3479
g73
(dp3480
sg82
g3474
sg75
(lp3481
g68
(g69
g70
NtRp3482
(dp3483
g73
(dp3484
g81
I4
ssg82
g3478
sg75
(lp3485
g68
(g77
g70
NtRp3486
(dp3487
g73
(dp3488
g81
I3
ssg82
Nsg75
(lp3489
g68
(g84
g70
NtRp3490
(dp3491
g73
(dp3492
sg82
g3486
sg75
(lp3493
g68
(g89
g70
NtRp3494
(dp3495
g73
(dp3496
sg82
g3490
sg75
(lp3497
g68
(g69
g70
NtRp3498
(dp3499
g73
(dp3500
g81
I3
ssg82
g3494
sg75
(lp3501
cgluon.languages
lazyT_unpickle
p3502
(S's\x04\x00\x00\x00Home'
tRp3503
asbasbasbag68
(g84
g70
NtRp3504
(dp3505
g73
(dp3506
sg82
g3486
sg75
(lp3507
g68
(g89
g70
NtRp3508
(dp3509
g73
(dp3510
sg82
g3504
sg75
(lp3511
g68
(g69
g70
NtRp3512
(dp3513
g73
(dp3514
g81
I3
ssg82
g3508
sg75
(lp3515
g111
asbasbasbag68
(g84
g70
NtRp3516
(dp3517
g73
(dp3518
sg82
g3486
sg75
(lp3519
g68
(g89
g70
NtRp3520
(dp3521
g73
(dp3522
sg82
g3516
sg75
(lp3523
g68
(g69
g70
NtRp3524
(dp3525
g73
(dp3526
g81
I3
ssg82
g3520
sg75
(lp3527
S'/datos/default/index'
p3528
asbasbasbag68
(g84
g70
NtRp3529
(dp3530
g73
(dp3531
sg82
g3486
sg75
(lp3532
g68
(g89
g70
NtRp3533
(dp3534
g73
(dp3535
sg82
g3529
sg75
(lp3536
g68
(g69
g70
NtRp3537
(dp3538
g73
(dp3539
g81
I3
ssg82
g3533
sg75
(lp3540
g68
(g77
g70
NtRp3541
(dp3542
g73
(dp3543
g81
I2
ssg82
Nsg75
(lp3544
sbasbasbasbasbasbasbasbag68
(g84
g70
NtRp3545
(dp3546
g73
(dp3547
sg82
g3470
sg75
(lp3548
g68
(g89
g70
NtRp3549
(dp3550
g73
(dp3551
sg82
g3545
sg75
(lp3552
g68
(g69
g70
NtRp3553
(dp3554
g73
(dp3555
g81
I4
ssg82
g3549
sg75
(lp3556
g68
(g77
g70
NtRp3557
(dp3558
g73
(dp3559
g81
I3
ssg82
Nsg75
(lp3560
g68
(g84
g70
NtRp3561
(dp3562
g73
(dp3563
sg82
g3557
sg75
(lp3564
g68
(g89
g70
NtRp3565
(dp3566
g73
(dp3567
sg82
g3561
sg75
(lp3568
g68
(g69
g70
NtRp3569
(dp3570
g73
(dp3571
g81
I3
ssg82
g3565
sg75
(lp3572
g3502
(S's\x08\x00\x00\x00This App'
tRp3573
asbasbasbag68
(g84
g70
NtRp3574
(dp3575
g73
(dp3576
sg82
g3557
sg75
(lp3577
g68
(g89
g70
NtRp3578
(dp3579
g73
(dp3580
sg82
g3574
sg75
(lp3581
g68
(g69
g70
NtRp3582
(dp3583
g73
(dp3584
g81
I3
ssg82
g3578
sg75
(lp3585
g111
asbasbasbag68
(g84
g70
NtRp3586
(dp3587
g73
(dp3588
sg82
g3557
sg75
(lp3589
g68
(g89
g70
NtRp3590
(dp3591
g73
(dp3592
sg82
g3586
sg75
(lp3593
g68
(g69
g70
NtRp3594
(dp3595
g73
(dp3596
g81
I3
ssg82
g3590
sg75
(lp3597
S'/admin/default/design/datos'
p3598
asbasbasbag68
(g84
g70
NtRp3599
(dp3600
g73
(dp3601
sg82
g3557
sg75
(lp3602
g68
(g89
g70
NtRp3603
(dp3604
g73
(dp3605
sg82
g3599
sg75
(lp3606
g68
(g69
g70
NtRp3607
(dp3608
g73
(dp3609
g81
I3
ssg82
g3603
sg75
(lp3610
g68
(g77
g70
NtRp3611
(dp3612
g73
(dp3613
g81
I2
ssg82
Nsg75
(lp3614
g68
(g84
g70
NtRp3615
(dp3616
g73
(dp3617
sg82
g3611
sg75
(lp3618
g68
(g89
g70
NtRp3619
(dp3620
g73
(dp3621
sg82
g3615
sg75
(lp3622
g68
(g69
g70
NtRp3623
(dp3624
g73
(dp3625
g81
I2
ssg82
g3619
sg75
(lp3626
g68
(g77
g70
NtRp3627
(dp3628
g73
(dp3629
g81
I1
ssg82
Nsg75
(lp3630
g68
(g84
g70
NtRp3631
(dp3632
g73
(dp3633
sg82
g3627
sg75
(lp3634
g68
(g89
g70
NtRp3635
(dp3636
g73
(dp3637
sg82
g3631
sg75
(lp3638
g68
(g69
g70
NtRp3639
(dp3640
g73
(dp3641
g81
I1
ssg82
g3635
sg75
(lp3642
g3502
(S's\n\x00\x00\x00Controller'
tRp3643
asbasbasbag68
(g84
g70
NtRp3644
(dp3645
g73
(dp3646
sg82
g3627
sg75
(lp3647
g68
(g89
g70
NtRp3648
(dp3649
g73
(dp3650
sg82
g3644
sg75
(lp3651
g68
(g69
g70
NtRp3652
(dp3653
g73
(dp3654
g81
I1
ssg82
g3648
sg75
(lp3655
I00
asbasbasbag68
(g84
g70
NtRp3656
(dp3657
g73
(dp3658
sg82
g3627
sg75
(lp3659
g68
(g89
g70
NtRp3660
(dp3661
g73
(dp3662
sg82
g3656
sg75
(lp3663
g68
(g69
g70
NtRp3664
(dp3665
g73
(dp3666
g81
I1
ssg82
g3660
sg75
(lp3667
S'/admin/default/edit/datos/controllers/default.py'
p3668
asbasbasbasbasbasbasbag68
(g84
g70
NtRp3669
(dp3670
g73
(dp3671
sg82
g3611
sg75
(lp3672
g68
(g89
g70
NtRp3673
(dp3674
g73
(dp3675
sg82
g3669
sg75
(lp3676
g68
(g69
g70
NtRp3677
(dp3678
g73
(dp3679
g81
I2
ssg82
g3673
sg75
(lp3680
g68
(g77
g70
NtRp3681
(dp3682
g73
(dp3683
g81
I1
ssg82
Nsg75
(lp3684
g68
(g84
g70
NtRp3685
(dp3686
g73
(dp3687
sg82
g3681
sg75
(lp3688
g68
(g89
g70
NtRp3689
(dp3690
g73
(dp3691
sg82
g3685
sg75
(lp3692
g68
(g69
g70
NtRp3693
(dp3694
g73
(dp3695
g81
I1
ssg82
g3689
sg75
(lp3696
g3502
(S's\x04\x00\x00\x00View'
tRp3697
asbasbasbag68
(g84
g70
NtRp3698
(dp3699
g73
(dp3700
sg82
g3681
sg75
(lp3701
g68
(g89
g70
NtRp3702
(dp3703
g73
(dp3704
sg82
g3698
sg75
(lp3705
g68
(g69
g70
NtRp3706
(dp3707
g73
(dp3708
g81
I1
ssg82
g3702
sg75
(lp3709
I00
asbasbasbag68
(g84
g70
NtRp3710
(dp3711
g73
(dp3712
sg82
g3681
sg75
(lp3713
g68
(g89
g70
NtRp3714
(dp3715
g73
(dp3716
sg82
g3710
sg75
(lp3717
g68
(g69
g70
NtRp3718
(dp3719
g73
(dp3720
g81
I1
ssg82
g3714
sg75
(lp3721
S'/admin/default/edit/datos/views/default/index.html'
p3722
asbasbasbasbasbasbasbag68
(g84
g70
NtRp3723
(dp3724
g73
(dp3725
sg82
g3611
sg75
(lp3726
g68
(g89
g70
NtRp3727
(dp3728
g73
(dp3729
sg82
g3723
sg75
(lp3730
g68
(g69
g70
NtRp3731
(dp3732
g73
(dp3733
g81
I2
ssg82
g3727
sg75
(lp3734
g68
(g77
g70
NtRp3735
(dp3736
g73
(dp3737
g81
I1
ssg82
Nsg75
(lp3738
g68
(g84
g70
NtRp3739
(dp3740
g73
(dp3741
sg82
g3735
sg75
(lp3742
g68
(g89
g70
NtRp3743
(dp3744
g73
(dp3745
sg82
g3739
sg75
(lp3746
g68
(g69
g70
NtRp3747
(dp3748
g73
(dp3749
g81
I1
ssg82
g3743
sg75
(lp3750
g3502
(S's\x06\x00\x00\x00Layout'
tRp3751
asbasbasbag68
(g84
g70
NtRp3752
(dp3753
g73
(dp3754
sg82
g3735
sg75
(lp3755
g68
(g89
g70
NtRp3756
(dp3757
g73
(dp3758
sg82
g3752
sg75
(lp3759
g68
(g69
g70
NtRp3760
(dp3761
g73
(dp3762
g81
I1
ssg82
g3756
sg75
(lp3763
I00
asbasbasbag68
(g84
g70
NtRp3764
(dp3765
g73
(dp3766
sg82
g3735
sg75
(lp3767
g68
(g89
g70
NtRp3768
(dp3769
g73
(dp3770
sg82
g3764
sg75
(lp3771
g68
(g69
g70
NtRp3772
(dp3773
g73
(dp3774
g81
I1
ssg82
g3768
sg75
(lp3775
S'/admin/default/edit/datos/views/layout.html'
p3776
asbasbasbasbasbasbasbag68
(g84
g70
NtRp3777
(dp3778
g73
(dp3779
sg82
g3611
sg75
(lp3780
g68
(g89
g70
NtRp3781
(dp3782
g73
(dp3783
sg82
g3777
sg75
(lp3784
g68
(g69
g70
NtRp3785
(dp3786
g73
(dp3787
g81
I2
ssg82
g3781
sg75
(lp3788
g68
(g77
g70
NtRp3789
(dp3790
g73
(dp3791
g81
I1
ssg82
Nsg75
(lp3792
g68
(g84
g70
NtRp3793
(dp3794
g73
(dp3795
sg82
g3789
sg75
(lp3796
g68
(g89
g70
NtRp3797
(dp3798
g73
(dp3799
sg82
g3793
sg75
(lp3800
g68
(g69
g70
NtRp3801
(dp3802
g73
(dp3803
g81
I1
ssg82
g3797
sg75
(lp3804
g3502
(S's\n\x00\x00\x00Stylesheet'
tRp3805
asbasbasbag68
(g84
g70
NtRp3806
(dp3807
g73
(dp3808
sg82
g3789
sg75
(lp3809
g68
(g89
g70
NtRp3810
(dp3811
g73
(dp3812
sg82
g3806
sg75
(lp3813
g68
(g69
g70
NtRp3814
(dp3815
g73
(dp3816
g81
I1
ssg82
g3810
sg75
(lp3817
I00
asbasbasbag68
(g84
g70
NtRp3818
(dp3819
g73
(dp3820
sg82
g3789
sg75
(lp3821
g68
(g89
g70
NtRp3822
(dp3823
g73
(dp3824
sg82
g3818
sg75
(lp3825
g68
(g69
g70
NtRp3826
(dp3827
g73
(dp3828
g81
I1
ssg82
g3822
sg75
(lp3829
S'/admin/default/edit/datos/static/base.css'
p3830
asbasbasbasbasbasbasbag68
(g84
g70
NtRp3831
(dp3832
g73
(dp3833
sg82
g3611
sg75
(lp3834
g68
(g89
g70
NtRp3835
(dp3836
g73
(dp3837
sg82
g3831
sg75
(lp3838
g68
(g69
g70
NtRp3839
(dp3840
g73
(dp3841
g81
I2
ssg82
g3835
sg75
(lp3842
g68
(g77
g70
NtRp3843
(dp3844
g73
(dp3845
g81
I1
ssg82
Nsg75
(lp3846
g68
(g84
g70
NtRp3847
(dp3848
g73
(dp3849
sg82
g3843
sg75
(lp3850
g68
(g89
g70
NtRp3851
(dp3852
g73
(dp3853
sg82
g3847
sg75
(lp3854
g68
(g69
g70
NtRp3855
(dp3856
g73
(dp3857
g81
I1
ssg82
g3851
sg75
(lp3858
g3502
(S's\x08\x00\x00\x00DB Model'
tRp3859
asbasbasbag68
(g84
g70
NtRp3860
(dp3861
g73
(dp3862
sg82
g3843
sg75
(lp3863
g68
(g89
g70
NtRp3864
(dp3865
g73
(dp3866
sg82
g3860
sg75
(lp3867
g68
(g69
g70
NtRp3868
(dp3869
g73
(dp3870
g81
I1
ssg82
g3864
sg75
(lp3871
I00
asbasbasbag68
(g84
g70
NtRp3872
(dp3873
g73
(dp3874
sg82
g3843
sg75
(lp3875
g68
(g89
g70
NtRp3876
(dp3877
g73
(dp3878
sg82
g3872
sg75
(lp3879
g68
(g69
g70
NtRp3880
(dp3881
g73
(dp3882
g81
I1
ssg82
g3876
sg75
(lp3883
S'/admin/default/edit/datos/models/db.py'
p3884
asbasbasbasbasbasbasbag68
(g84
g70
NtRp3885
(dp3886
g73
(dp3887
sg82
g3611
sg75
(lp3888
g68
(g89
g70
NtRp3889
(dp3890
g73
(dp3891
sg82
g3885
sg75
(lp3892
g68
(g69
g70
NtRp3893
(dp3894
g73
(dp3895
g81
I2
ssg82
g3889
sg75
(lp3896
g68
(g77
g70
NtRp3897
(dp3898
g73
(dp3899
g81
I1
ssg82
Nsg75
(lp3900
g68
(g84
g70
NtRp3901
(dp3902
g73
(dp3903
sg82
g3897
sg75
(lp3904
g68
(g89
g70
NtRp3905
(dp3906
g73
(dp3907
sg82
g3901
sg75
(lp3908
g68
(g69
g70
NtRp3909
(dp3910
g73
(dp3911
g81
I1
ssg82
g3905
sg75
(lp3912
g3502
(S's\n\x00\x00\x00Menu Model'
tRp3913
asbasbasbag68
(g84
g70
NtRp3914
(dp3915
g73
(dp3916
sg82
g3897
sg75
(lp3917
g68
(g89
g70
NtRp3918
(dp3919
g73
(dp3920
sg82
g3914
sg75
(lp3921
g68
(g69
g70
NtRp3922
(dp3923
g73
(dp3924
g81
I1
ssg82
g3918
sg75
(lp3925
I00
asbasbasbag68
(g84
g70
NtRp3926
(dp3927
g73
(dp3928
sg82
g3897
sg75
(lp3929
g68
(g89
g70
NtRp3930
(dp3931
g73
(dp3932
sg82
g3926
sg75
(lp3933
g68
(g69
g70
NtRp3934
(dp3935
g73
(dp3936
g81
I1
ssg82
g3930
sg75
(lp3937
S'/admin/default/edit/datos/models/menu.py'
p3938
asbasbasbasbasbasbasbag68
(g84
g70
NtRp3939
(dp3940
g73
(dp3941
sg82
g3611
sg75
(lp3942
g68
(g89
g70
NtRp3943
(dp3944
g73
(dp3945
sg82
g3939
sg75
(lp3946
g68
(g69
g70
NtRp3947
(dp3948
g73
(dp3949
g81
I2
ssg82
g3943
sg75
(lp3950
g68
(g77
g70
NtRp3951
(dp3952
g73
(dp3953
g81
I1
ssg82
Nsg75
(lp3954
g68
(g84
g70
NtRp3955
(dp3956
g73
(dp3957
sg82
g3951
sg75
(lp3958
g68
(g89
g70
NtRp3959
(dp3960
g73
(dp3961
sg82
g3955
sg75
(lp3962
g68
(g69
g70
NtRp3963
(dp3964
g73
(dp3965
g81
I1
ssg82
g3959
sg75
(lp3966
g3502
(S's\x08\x00\x00\x00Database'
tRp3967
asbasbasbag68
(g84
g70
NtRp3968
(dp3969
g73
(dp3970
sg82
g3951
sg75
(lp3971
g68
(g89
g70
NtRp3972
(dp3973
g73
(dp3974
sg82
g3968
sg75
(lp3975
g68
(g69
g70
NtRp3976
(dp3977
g73
(dp3978
g81
I1
ssg82
g3972
sg75
(lp3979
I00
asbasbasbag68
(g84
g70
NtRp3980
(dp3981
g73
(dp3982
sg82
g3951
sg75
(lp3983
g68
(g89
g70
NtRp3984
(dp3985
g73
(dp3986
sg82
g3980
sg75
(lp3987
g68
(g69
g70
NtRp3988
(dp3989
g73
(dp3990
g81
I1
ssg82
g3984
sg75
(lp3991
S'/datos/appadmin/index'
p3992
asbasbasbasbasbasbasbag68
(g84
g70
NtRp3993
(dp3994
g73
(dp3995
sg82
g3611
sg75
(lp3996
g68
(g89
g70
NtRp3997
(dp3998
g73
(dp3999
sg82
g3993
sg75
(lp4000
g68
(g69
g70
NtRp4001
(dp4002
g73
(dp4003
g81
I2
ssg82
g3997
sg75
(lp4004
g68
(g77
g70
NtRp4005
(dp4006
g73
(dp4007
g81
I1
ssg82
Nsg75
(lp4008
g68
(g84
g70
NtRp4009
(dp4010
g73
(dp4011
sg82
g4005
sg75
(lp4012
g68
(g89
g70
NtRp4013
(dp4014
g73
(dp4015
sg82
g4009
sg75
(lp4016
g68
(g69
g70
NtRp4017
(dp4018
g73
(dp4019
g81
I1
ssg82
g4013
sg75
(lp4020
g3502
(S's\x06\x00\x00\x00Errors'
tRp4021
asbasbasbag68
(g84
g70
NtRp4022
(dp4023
g73
(dp4024
sg82
g4005
sg75
(lp4025
g68
(g89
g70
NtRp4026
(dp4027
g73
(dp4028
sg82
g4022
sg75
(lp4029
g68
(g69
g70
NtRp4030
(dp4031
g73
(dp4032
g81
I1
ssg82
g4026
sg75
(lp4033
I00
asbasbasbag68
(g84
g70
NtRp4034
(dp4035
g73
(dp4036
sg82
g4005
sg75
(lp4037
g68
(g89
g70
NtRp4038
(dp4039
g73
(dp4040
sg82
g4034
sg75
(lp4041
g68
(g69
g70
NtRp4042
(dp4043
g73
(dp4044
g81
I1
ssg82
g4038
sg75
(lp4045
S'/admin/default/errors/datos'
p4046
asbasbasbasbasbasbasbag68
(g84
g70
NtRp4047
(dp4048
g73
(dp4049
sg82
g3611
sg75
(lp4050
g68
(g89
g70
NtRp4051
(dp4052
g73
(dp4053
sg82
g4047
sg75
(lp4054
g68
(g69
g70
NtRp4055
(dp4056
g73
(dp4057
g81
I2
ssg82
g4051
sg75
(lp4058
g68
(g77
g70
NtRp4059
(dp4060
g73
(dp4061
g81
I1
ssg82
Nsg75
(lp4062
g68
(g84
g70
NtRp4063
(dp4064
g73
(dp4065
sg82
g4059
sg75
(lp4066
g68
(g89
g70
NtRp4067
(dp4068
g73
(dp4069
sg82
g4063
sg75
(lp4070
g68
(g69
g70
NtRp4071
(dp4072
g73
(dp4073
g81
I1
ssg82
g4067
sg75
(lp4074
g3502
(S's\x05\x00\x00\x00About'
tRp4075
asbasbasbag68
(g84
g70
NtRp4076
(dp4077
g73
(dp4078
sg82
g4059
sg75
(lp4079
g68
(g89
g70
NtRp4080
(dp4081
g73
(dp4082
sg82
g4076
sg75
(lp4083
g68
(g69
g70
NtRp4084
(dp4085
g73
(dp4086
g81
I1
ssg82
g4080
sg75
(lp4087
I00
asbasbasbag68
(g84
g70
NtRp4088
(dp4089
g73
(dp4090
sg82
g4059
sg75
(lp4091
g68
(g89
g70
NtRp4092
(dp4093
g73
(dp4094
sg82
g4088
sg75
(lp4095
g68
(g69
g70
NtRp4096
(dp4097
g73
(dp4098
g81
I1
ssg82
g4092
sg75
(lp4099
S'/admin/default/about/datos'
p4100
asbasbasbasbasbasbasbasbasbasbasbasbasbasbasbag68
(g84
g70
NtRp4101
(dp4102
g73
(dp4103
sg82
g3470
sg75
(lp4104
g68
(g89
g70
NtRp4105
(dp4106
g73
(dp4107
sg82
g4101
sg75
(lp4108
g68
(g69
g70
NtRp4109
(dp4110
g73
(dp4111
g81
I4
ssg82
g4105
sg75
(lp4112
g68
(g77
g70
NtRp4113
(dp4114
g73
(dp4115
g81
I3
ssg82
Nsg75
(lp4116
g68
(g84
g70
NtRp4117
(dp4118
g73
(dp4119
sg82
g4113
sg75
(lp4120
g68
(g89
g70
NtRp4121
(dp4122
g73
(dp4123
sg82
g4117
sg75
(lp4124
g68
(g69
g70
NtRp4125
(dp4126
g73
(dp4127
g81
I3
ssg82
g4121
sg75
(lp4128
g3502
(S's\t\x00\x00\x00Resources'
tRp4129
asbasbasbag68
(g84
g70
NtRp4130
(dp4131
g73
(dp4132
sg82
g4113
sg75
(lp4133
g68
(g89
g70
NtRp4134
(dp4135
g73
(dp4136
sg82
g4130
sg75
(lp4137
g68
(g69
g70
NtRp4138
(dp4139
g73
(dp4140
g81
I3
ssg82
g4134
sg75
(lp4141
g111
asbasbasbag68
(g84
g70
NtRp4142
(dp4143
g73
(dp4144
sg82
g4113
sg75
(lp4145
g68
(g89
g70
NtRp4146
(dp4147
g73
(dp4148
sg82
g4142
sg75
(lp4149
g68
(g69
g70
NtRp4150
(dp4151
g73
(dp4152
g81
I3
ssg82
g4146
sg75
(lp4153
S'None'
p4154
asbasbasbag68
(g84
g70
NtRp4155
(dp4156
g73
(dp4157
sg82
g4113
sg75
(lp4158
g68
(g89
g70
NtRp4159
(dp4160
g73
(dp4161
sg82
g4155
sg75
(lp4162
g68
(g69
g70
NtRp4163
(dp4164
g73
(dp4165
g81
I3
ssg82
g4159
sg75
(lp4166
g68
(g77
g70
NtRp4167
(dp4168
g73
(dp4169
g81
I2
ssg82
Nsg75
(lp4170
g68
(g84
g70
NtRp4171
(dp4172
g73
(dp4173
sg82
g4167
sg75
(lp4174
g68
(g89
g70
NtRp4175
(dp4176
g73
(dp4177
sg82
g4171
sg75
(lp4178
g68
(g69
g70
NtRp4179
(dp4180
g73
(dp4181
g81
I2
ssg82
g4175
sg75
(lp4182
g68
(g77
g70
NtRp4183
(dp4184
g73
(dp4185
g81
I1
ssg82
Nsg75
(lp4186
g68
(g84
g70
NtRp4187
(dp4188
g73
(dp4189
sg82
g4183
sg75
(lp4190
g68
(g89
g70
NtRp4191
(dp4192
g73
(dp4193
sg82
g4187
sg75
(lp4194
g68
(g69
g70
NtRp4195
(dp4196
g73
(dp4197
g81
I1
ssg82
g4191
sg75
(lp4198
g3502
(S's\r\x00\x00\x00Documentation'
tRp4199
asbasbasbag68
(g84
g70
NtRp4200
(dp4201
g73
(dp4202
sg82
g4183
sg75
(lp4203
g68
(g89
g70
NtRp4204
(dp4205
g73
(dp4206
sg82
g4200
sg75
(lp4207
g68
(g69
g70
NtRp4208
(dp4209
g73
(dp4210
g81
I1
ssg82
g4204
sg75
(lp4211
I00
asbasbasbag68
(g84
g70
NtRp4212
(dp4213
g73
(dp4214
sg82
g4183
sg75
(lp4215
g68
(g89
g70
NtRp4216
(dp4217
g73
(dp4218
sg82
g4212
sg75
(lp4219
g68
(g69
g70
NtRp4220
(dp4221
g73
(dp4222
g81
I1
ssg82
g4216
sg75
(lp4223
S'http://www.web2py.com/book'
p4224
asbasbasbag68
(g84
g70
NtRp4225
(dp4226
g73
(dp4227
sg82
g4183
sg75
(lp4228
g68
(g89
g70
NtRp4229
(dp4230
g73
(dp4231
sg82
g4225
sg75
(lp4232
g68
(g69
g70
NtRp4233
(dp4234
g73
(dp4235
g81
I1
ssg82
g4229
sg75
(lp4236
(lp4237
(g3502
(S's\x07\x00\x00\x00Preface'
tRp4238
I00
S'http://www.web2py.com/book/default/chapter/00'
tp4239
a(g3502
(S's\x0c\x00\x00\x00Introduction'
tRp4240
I00
S'http://www.web2py.com/book/default/chapter/01'
tp4241
a(g3502
(S's\x06\x00\x00\x00Python'
tRp4242
I00
S'http://www.web2py.com/book/default/chapter/02'
tp4243
a(g3502
(S's\x08\x00\x00\x00Overview'
tRp4244
I00
S'http://www.web2py.com/book/default/chapter/03'
tp4245
a(g3502
(S's\x08\x00\x00\x00The Core'
tRp4246
I00
S'http://www.web2py.com/book/default/chapter/04'
tp4247
a(g3502
(S's\t\x00\x00\x00The Views'
tRp4248
I00
S'http://www.web2py.com/book/default/chapter/05'
tp4249
a(g3502
(S's\x08\x00\x00\x00Database'
tRp4250
I00
S'http://www.web2py.com/book/default/chapter/06'
tp4251
a(g3502
(S's\x14\x00\x00\x00Forms and Validators'
tRp4252
I00
S'http://www.web2py.com/book/default/chapter/07'
tp4253
a(g3502
(S's\x0e\x00\x00\x00Access Control'
tRp4254
I00
S'http://www.web2py.com/book/default/chapter/08'
tp4255
a(g3502
(S's\x08\x00\x00\x00Services'
tRp4256
I00
S'http://www.web2py.com/book/default/chapter/09'
tp4257
a(g3502
(S's\x0c\x00\x00\x00Ajax Recipes'
tRp4258
I00
S'http://www.web2py.com/book/default/chapter/10'
tp4259
a(g3502
(S's\x12\x00\x00\x00Deployment Recipes'
tRp4260
I00
S'http://www.web2py.com/book/default/chapter/11'
tp4261
a(g3502
(S's\r\x00\x00\x00Other Recipes'
tRp4262
I00
S'http://www.web2py.com/book/default/chapter/12'
tp4263
a(g3502
(S's\r\x00\x00\x00Buy this book'
tRp4264
I00
S'http://stores.lulu.com/web2py'
tp4265
aasbasbasbasbasbasbasbag68
(g84
g70
NtRp4266
(dp4267
g73
(dp4268
sg82
g4167
sg75
(lp4269
g68
(g89
g70
NtRp4270
(dp4271
g73
(dp4272
sg82
g4266
sg75
(lp4273
g68
(g69
g70
NtRp4274
(dp4275
g73
(dp4276
g81
I2
ssg82
g4270
sg75
(lp4277
g68
(g77
g70
NtRp4278
(dp4279
g73
(dp4280
g81
I1
ssg82
Nsg75
(lp4281
g68
(g84
g70
NtRp4282
(dp4283
g73
(dp4284
sg82
g4278
sg75
(lp4285
g68
(g89
g70
NtRp4286
(dp4287
g73
(dp4288
sg82
g4282
sg75
(lp4289
g68
(g69
g70
NtRp4290
(dp4291
g73
(dp4292
g81
I1
ssg82
g4286
sg75
(lp4293
g3502
(S's\t\x00\x00\x00Community'
tRp4294
asbasbasbag68
(g84
g70
NtRp4295
(dp4296
g73
(dp4297
sg82
g4278
sg75
(lp4298
g68
(g89
g70
NtRp4299
(dp4300
g73
(dp4301
sg82
g4295
sg75
(lp4302
g68
(g69
g70
NtRp4303
(dp4304
g73
(dp4305
g81
I1
ssg82
g4299
sg75
(lp4306
I00
asbasbasbag68
(g84
g70
NtRp4307
(dp4308
g73
(dp4309
sg82
g4278
sg75
(lp4310
g68
(g89
g70
NtRp4311
(dp4312
g73
(dp4313
sg82
g4307
sg75
(lp4314
g68
(g69
g70
NtRp4315
(dp4316
g73
(dp4317
g81
I1
ssg82
g4311
sg75
(lp4318
Nasbasbasbag68
(g84
g70
NtRp4319
(dp4320
g73
(dp4321
sg82
g4278
sg75
(lp4322
g68
(g89
g70
NtRp4323
(dp4324
g73
(dp4325
sg82
g4319
sg75
(lp4326
g68
(g69
g70
NtRp4327
(dp4328
g73
(dp4329
g81
I1
ssg82
g4323
sg75
(lp4330
(lp4331
(g3502
(S's\x06\x00\x00\x00Groups'
tRp4332
I00
S'http://www.web2py.com/examples/default/usergroups'
tp4333
a(g3502
(S's\x07\x00\x00\x00Twitter'
tRp4334
I00
S'http://twitter.com/web2py'
tp4335
a(g3502
(S's\t\x00\x00\x00Live chat'
tRp4336
I00
S'http://mibbit.com/?channel=%23web2py&server=irc.mibbit.net'
tp4337
a(g3502
(S's\n\x00\x00\x00User Voice'
tRp4338
I00
S'http://web2py.uservoice.com/'
tp4339
aasbasbasbasbasbasbasbag68
(g84
g70
NtRp4340
(dp4341
g73
(dp4342
sg82
g4167
sg75
(lp4343
g68
(g89
g70
NtRp4344
(dp4345
g73
(dp4346
sg82
g4340
sg75
(lp4347
g68
(g69
g70
NtRp4348
(dp4349
g73
(dp4350
g81
I2
ssg82
g4344
sg75
(lp4351
g68
(g77
g70
NtRp4352
(dp4353
g73
(dp4354
g81
I1
ssg82
Nsg75
(lp4355
g68
(g84
g70
NtRp4356
(dp4357
g73
(dp4358
sg82
g4352
sg75
(lp4359
g68
(g89
g70
NtRp4360
(dp4361
g73
(dp4362
sg82
g4356
sg75
(lp4363
g68
(g69
g70
NtRp4364
(dp4365
g73
(dp4366
g81
I1
ssg82
g4360
sg75
(lp4367
g3502
(S's\x06\x00\x00\x00Web2py'
tRp4368
asbasbasbag68
(g84
g70
NtRp4369
(dp4370
g73
(dp4371
sg82
g4352
sg75
(lp4372
g68
(g89
g70
NtRp4373
(dp4374
g73
(dp4375
sg82
g4369
sg75
(lp4376
g68
(g69
g70
NtRp4377
(dp4378
g73
(dp4379
g81
I1
ssg82
g4373
sg75
(lp4380
I00
asbasbasbag68
(g84
g70
NtRp4381
(dp4382
g73
(dp4383
sg82
g4352
sg75
(lp4384
g68
(g89
g70
NtRp4385
(dp4386
g73
(dp4387
sg82
g4381
sg75
(lp4388
g68
(g69
g70
NtRp4389
(dp4390
g73
(dp4391
g81
I1
ssg82
g4385
sg75
(lp4392
S'http://www.web2py.com'
p4393
asbasbasbag68
(g84
g70
NtRp4394
(dp4395
g73
(dp4396
sg82
g4352
sg75
(lp4397
g68
(g89
g70
NtRp4398
(dp4399
g73
(dp4400
sg82
g4394
sg75
(lp4401
g68
(g69
g70
NtRp4402
(dp4403
g73
(dp4404
g81
I1
ssg82
g4398
sg75
(lp4405
(lp4406
(g3502
(S's\x08\x00\x00\x00Download'
tRp4407
I00
S'http://www.web2py.com/examples/default/download'
tp4408
a(g3502
(S's\x07\x00\x00\x00Support'
tRp4409
I00
S'http://www.web2py.com/examples/default/support'
tp4410
a(g3502
(S's\x0e\x00\x00\x00Quick Examples'
tRp4411
I00
S'http://web2py.com/examples/default/examples'
tp4412
a(g3502
(S's\x03\x00\x00\x00FAQ'
tRp4413
I00
S'http://web2py.com/AlterEgo'
tp4414
a(g3502
(S's\x11\x00\x00\x00Free Applications'
tRp4415
I00
S'http://web2py.com/appliances'
tp4416
a(g3502
(S's\x07\x00\x00\x00Plugins'
tRp4417
I00
S'http://web2py.com/plugins'
tp4418
a(g3502
(S's\x07\x00\x00\x00Recipes'
tRp4419
I00
S'http://web2pyslices.com/'
tp4420
a(g3502
(S's\x04\x00\x00\x00Demo'
tRp4421
I00
S'http://web2py.com/demo_admin'
tp4422
a(g3502
(S's\x08\x00\x00\x00Semantic'
tRp4423
I00
S'http://web2py.com/semantic'
tp4424
a(g3502
(S's\x07\x00\x00\x00Layouts'
tRp4425
I00
S'http://web2py.com/layouts'
tp4426
a(g3502
(S's\x06\x00\x00\x00Videos'
tRp4427
I00
S'http://www.web2py.com/examples/default/videos/'
tp4428
aasbasbasbasbasbasbasbasbasbasbasbasbasbasbasbasbasbasbasbag68
(g84
g70
NtRp4429
(dp4430
g73
(dp4431
sg82
g3009
sg75
(lp4432
g68
(g89
g70
NtRp4433
(dp4434
g73
(dp4435
g93
g94
ssg82
g4429
sg75
(lp4436
S'meta'
p4437
asbag68
(g89
g70
NtRp4438
(dp4439
g73
(dp4440
g100
g101
ssg82
g4429
sg75
(lp4441
S':'
asbag68
(g89
g70
NtRp4442
(dp4443
g73
(dp4444
sg82
g4429
sg75
(lp4445
g68
(g69
g70
NtRp4446
(dp4447
g73
(dp4448
g81
I5
ssg82
g4442
sg75
(lp4449
g68
(g77
g70
NtRp4450
(dp4451
g73
(dp4452
g81
I4
ssg82
Nsg75
(lp4453
g68
(g84
g70
NtRp4454
(dp4455
g73
(dp4456
sg82
g4450
sg75
(lp4457
g68
(g89
g70
NtRp4458
(dp4459
g73
(dp4460
g93
g94
ssg82
g4454
sg75
(lp4461
S'author'
p4462
asbag68
(g89
g70
NtRp4463
(dp4464
g73
(dp4465
g100
g101
ssg82
g4454
sg75
(lp4466
S':'
asbag68
(g89
g70
NtRp4467
(dp4468
g73
(dp4469
sg82
g4454
sg75
(lp4470
g68
(g69
g70
NtRp4471
(dp4472
g73
(dp4473
g81
I4
ssg82
g4467
sg75
(lp4474
S'you'
p4475
asbasbasbag68
(g84
g70
NtRp4476
(dp4477
g73
(dp4478
sg82
g4450
sg75
(lp4479
g68
(g89
g70
NtRp4480
(dp4481
g73
(dp4482
g93
g94
ssg82
g4476
sg75
(lp4483
S'copyright'
p4484
asbag68
(g89
g70
NtRp4485
(dp4486
g73
(dp4487
g100
g101
ssg82
g4476
sg75
(lp4488
S':'
asbag68
(g89
g70
NtRp4489
(dp4490
g73
(dp4491
sg82
g4476
sg75
(lp4492
g68
(g69
g70
NtRp4493
(dp4494
g73
(dp4495
g81
I4
ssg82
g4489
sg75
(lp4496
S'Copyright 2007-2010'
p4497
asbasbasbag68
(g84
g70
NtRp4498
(dp4499
g73
(dp4500
sg82
g4450
sg75
(lp4501
g68
(g89
g70
NtRp4502
(dp4503
g73
(dp4504
g93
g94
ssg82
g4498
sg75
(lp4505
S'description'
p4506
asbag68
(g89
g70
NtRp4507
(dp4508
g73
(dp4509
g100
g101
ssg82
g4498
sg75
(lp4510
S':'
asbag68
(g89
g70
NtRp4511
(dp4512
g73
(dp4513
sg82
g4498
sg75
(lp4514
g68
(g69
g70
NtRp4515
(dp4516
g73
(dp4517
g81
I4
ssg82
g4511
sg75
(lp4518
S'Free and open source full-stack enterprise framework for agile development of fast, scalable, secure and portable database-driven web-based applications. Written and programmable in Python'
p4519
asbasbasbag68
(g84
g70
NtRp4520
(dp4521
g73
(dp4522
sg82
g4450
sg75
(lp4523
g68
(g89
g70
NtRp4524
(dp4525
g73
(dp4526
g93
g94
ssg82
g4520
sg75
(lp4527
S'generator'
p4528
asbag68
(g89
g70
NtRp4529
(dp4530
g73
(dp4531
g100
g101
ssg82
g4520
sg75
(lp4532
S':'
asbag68
(g89
g70
NtRp4533
(dp4534
g73
(dp4535
sg82
g4520
sg75
(lp4536
g68
(g69
g70
NtRp4537
(dp4538
g73
(dp4539
g81
I4
ssg82
g4533
sg75
(lp4540
S'Web2py Enterprise Framework'
p4541
asbasbasbag68
(g84
g70
NtRp4542
(dp4543
g73
(dp4544
sg82
g4450
sg75
(lp4545
g68
(g89
g70
NtRp4546
(dp4547
g73
(dp4548
g93
g94
ssg82
g4542
sg75
(lp4549
S'keywords'
p4550
asbag68
(g89
g70
NtRp4551
(dp4552
g73
(dp4553
g100
g101
ssg82
g4542
sg75
(lp4554
S':'
asbag68
(g89
g70
NtRp4555
(dp4556
g73
(dp4557
sg82
g4542
sg75
(lp4558
g68
(g69
g70
NtRp4559
(dp4560
g73
(dp4561
g81
I4
ssg82
g4555
sg75
(lp4562
S'web2py, python, framework'
p4563
asbasbasbasbasbasbasbag68
(g84
g70
NtRp4564
(dp4565
g73
(dp4566
sg82
g3009
sg75
(lp4567
g68
(g89
g70
NtRp4568
(dp4569
g73
(dp4570
g93
g94
ssg82
g4564
sg75
(lp4571
S'postprocessing'
p4572
asbag68
(g89
g70
NtRp4573
(dp4574
g73
(dp4575
g100
g101
ssg82
g4564
sg75
(lp4576
S':'
asbag68
(g89
g70
NtRp4577
(dp4578
g73
(dp4579
sg82
g4564
sg75
(lp4580
g68
(g69
g70
NtRp4581
(dp4582
g73
(dp4583
g81
I5
ssg82
g4577
sg75
(lp4584
g68
(g77
g70
NtRp4585
(dp4586
g73
(dp4587
g81
I4
ssg82
Nsg75
(lp4588
sbasbasbasbag68
(g84
g70
NtRp4589
(dp4590
g73
(dp4591
sg82
g3009
sg75
(lp4592
g68
(g89
g70
NtRp4593
(dp4594
g73
(dp4595
g93
g94
ssg82
g4589
sg75
(lp4596
S'session_file'
p4597
asbag68
(g89
g70
NtRp4598
(dp4599
g73
(dp4600
g100
g101
ssg82
g4589
sg75
(lp4601
S':'
asbag68
(g89
g70
NtRp4602
(dp4603
g73
(dp4604
sg82
g4589
sg75
(lp4605
g68
(g69
g70
NtRp4606
(dp4607
g73
(dp4608
g81
I5
ssg82
g4602
sg75
(lp4609
S"<open file '/home/alumno/web2py/applications/datos/sessions/127.0.0.1-db62c583-5264-4eba-ba24-7cb87b43795a', mode 'rb+' at 0xa3619c0>"
p4610
asbasbasbag68
(g84
g70
NtRp4611
(dp4612
g73
(dp4613
sg82
g3009
sg75
(lp4614
g68
(g89
g70
NtRp4615
(dp4616
g73
(dp4617
g93
g94
ssg82
g4611
sg75
(lp4618
S'session_filename'
p4619
asbag68
(g89
g70
NtRp4620
(dp4621
g73
(dp4622
g100
g101
ssg82
g4611
sg75
(lp4623
S':'
asbag68
(g89
g70
NtRp4624
(dp4625
g73
(dp4626
sg82
g4611
sg75
(lp4627
g68
(g69
g70
NtRp4628
(dp4629
g73
(dp4630
g81
I5
ssg82
g4624
sg75
(lp4631
S'/home/alumno/web2py/applications/datos/sessions/127.0.0.1-db62c583-5264-4eba-ba24-7cb87b43795a'
p4632
asbasbasbag68
(g84
g70
NtRp4633
(dp4634
g73
(dp4635
sg82
g3009
sg75
(lp4636
g68
(g89
g70
NtRp4637
(dp4638
g73
(dp4639
g93
g94
ssg82
g4633
sg75
(lp4640
S'session_id'
p4641
asbag68
(g89
g70
NtRp4642
(dp4643
g73
(dp4644
g100
g101
ssg82
g4633
sg75
(lp4645
S':'
asbag68
(g89
g70
NtRp4646
(dp4647
g73
(dp4648
sg82
g4633
sg75
(lp4649
g68
(g69
g70
NtRp4650
(dp4651
g73
(dp4652
g81
I5
ssg82
g4646
sg75
(lp4653
S'127.0.0.1-db62c583-5264-4eba-ba24-7cb87b43795a'
p4654
asbasbasbag68
(g84
g70
NtRp4655
(dp4656
g73
(dp4657
sg82
g3009
sg75
(lp4658
g68
(g89
g70
NtRp4659
(dp4660
g73
(dp4661
g93
g94
ssg82
g4655
sg75
(lp4662
S'session_id_name'
p4663
asbag68
(g89
g70
NtRp4664
(dp4665
g73
(dp4666
g100
g101
ssg82
g4655
sg75
(lp4667
S':'
asbag68
(g89
g70
NtRp4668
(dp4669
g73
(dp4670
sg82
g4655
sg75
(lp4671
g68
(g69
g70
NtRp4672
(dp4673
g73
(dp4674
g81
I5
ssg82
g4668
sg75
(lp4675
g3066
asbasbasbag68
(g84
g70
NtRp4676
(dp4677
g73
(dp4678
sg82
g3009
sg75
(lp4679
g68
(g89
g70
NtRp4680
(dp4681
g73
(dp4682
g93
g94
ssg82
g4676
sg75
(lp4683
S'session_locked'
p4684
asbag68
(g89
g70
NtRp4685
(dp4686
g73
(dp4687
g100
g101
ssg82
g4676
sg75
(lp4688
S':'
asbag68
(g89
g70
NtRp4689
(dp4690
g73
(dp4691
sg82
g4676
sg75
(lp4692
g68
(g69
g70
NtRp4693
(dp4694
g73
(dp4695
g81
I5
ssg82
g4689
sg75
(lp4696
g1950
asbasbasbag68
(g84
g70
NtRp4697
(dp4698
g73
(dp4699
sg82
g3009
sg75
(lp4700
g68
(g89
g70
NtRp4701
(dp4702
g73
(dp4703
g93
g94
ssg82
g4697
sg75
(lp4704
S'session_new'
p4705
asbag68
(g89
g70
NtRp4706
(dp4707
g73
(dp4708
g100
g101
ssg82
g4697
sg75
(lp4709
S':'
asbag68
(g89
g70
NtRp4710
(dp4711
g73
(dp4712
sg82
g4697
sg75
(lp4713
g68
(g69
g70
NtRp4714
(dp4715
g73
(dp4716
g81
I5
ssg82
g4710
sg75
(lp4717
g111
asbasbasbag68
(g84
g70
NtRp4718
(dp4719
g73
(dp4720
sg82
g3009
sg75
(lp4721
g68
(g89
g70
NtRp4722
(dp4723
g73
(dp4724
g93
g94
ssg82
g4718
sg75
(lp4725
S'status'
p4726
asbag68
(g89
g70
NtRp4727
(dp4728
g73
(dp4729
g100
g101
ssg82
g4718
sg75
(lp4730
S':'
asbag68
(g89
g70
NtRp4731
(dp4732
g73
(dp4733
sg82
g4718
sg75
(lp4734
g68
(g69
g70
NtRp4735
(dp4736
g73
(dp4737
g81
I5
ssg82
g4731
sg75
(lp4738
S'200'
p4739
asbasbasbag68
(g84
g70
NtRp4740
(dp4741
g73
(dp4742
sg82
g3009
sg75
(lp4743
g68
(g89
g70
NtRp4744
(dp4745
g73
(dp4746
g93
g94
ssg82
g4740
sg75
(lp4747
S'subtitle'
p4748
asbag68
(g89
g70
NtRp4749
(dp4750
g73
(dp4751
g100
g101
ssg82
g4740
sg75
(lp4752
S':'
asbag68
(g89
g70
NtRp4753
(dp4754
g73
(dp4755
sg82
g4740
sg75
(lp4756
g68
(g69
g70
NtRp4757
(dp4758
g73
(dp4759
g81
I5
ssg82
g4753
sg75
(lp4760
g3502
(S's\r\x00\x00\x00customize me!'
tRp4761
asbasbasbag68
(g84
g70
NtRp4762
(dp4763
g73
(dp4764
sg82
g3009
sg75
(lp4765
g68
(g89
g70
NtRp4766
(dp4767
g73
(dp4768
g93
g94
ssg82
g4762
sg75
(lp4769
S'title'
p4770
asbag68
(g89
g70
NtRp4771
(dp4772
g73
(dp4773
g100
g101
ssg82
g4762
sg75
(lp4774
S':'
asbag68
(g89
g70
NtRp4775
(dp4776
g73
(dp4777
sg82
g4762
sg75
(lp4778
g68
(g69
g70
NtRp4779
(dp4780
g73
(dp4781
g81
I5
ssg82
g4775
sg75
(lp4782
g133
asbasbasbag68
(g84
g70
NtRp4783
(dp4784
g73
(dp4785
sg82
g3009
sg75
(lp4786
g68
(g89
g70
NtRp4787
(dp4788
g73
(dp4789
g93
g94
ssg82
g4783
sg75
(lp4790
g2274
asbag68
(g89
g70
NtRp4791
(dp4792
g73
(dp4793
g100
g101
ssg82
g4783
sg75
(lp4794
S':'
asbag68
(g89
g70
NtRp4795
(dp4796
g73
(dp4797
sg82
g4783
sg75
(lp4798
g68
(g69
g70
NtRp4799
(dp4800
g73
(dp4801
g81
I5
ssg82
g4795
sg75
(lp4802
g2287
asbasbasbag68
(g84
g70
NtRp4803
(dp4804
g73
(dp4805
sg82
g3009
sg75
(lp4806
g68
(g89
g70
NtRp4807
(dp4808
g73
(dp4809
g93
g94
ssg82
g4803
sg75
(lp4810
S'view'
p4811
asbag68
(g89
g70
NtRp4812
(dp4813
g73
(dp4814
g100
g101
ssg82
g4803
sg75
(lp4815
S':'
asbag68
(g89
g70
NtRp4816
(dp4817
g73
(dp4818
sg82
g4803
sg75
(lp4819
g68
(g69
g70
NtRp4820
(dp4821
g73
(dp4822
g81
I5
ssg82
g4816
sg75
(lp4823
S'default/index.html'
p4824
asbasbasbasbasbsS'locals'
p4825
(dp4826
g3
S"'/home/alumno/web2py/applications/datos/controllers/default.py'"
p4827
sg5
S"'# -*- coding: utf-8 -*-\\n# this file is released ...=crud())\\n\\nresponse._vars=response._caller(index)\\n'"
p4828
sssS'traceback'
p4829
S'Traceback (most recent call last):\n  File "/home/alumno/web2py/gluon/restricted.py", line 191, in restricted\n    ccode = compile2(code,layer)\n  File "/home/alumno/web2py/gluon/restricted.py", line 178, in compile2\n    return compile(code.rstrip().replace(\'\\r\\n\',\'\\n\')+\'\\n\', layer, \'exec\')\n  File "/home/alumno/web2py/applications/datos/controllers/default.py", line 15\n    return dict(alumnos=alumnos)\n                               ^\nIndentationError: unindent does not match any outer indentation level\n'
p4830
s.