(dp1
S'output'
p2
S''
sS'layer'
p3
S'/home/alumno/web2py/applications/datos/controllers/default.py'
p4
sS'code'
p5
S'# -*- coding: utf-8 -*-\n# this file is released under public domain and you can use without limitations\n\n#########################################################################\n## This is a samples controller\n## - index is the default action of any application\n## - user is required for authentication and authorization\n## - download is for downloading files uploaded in the db (does streaming)\n## - call exposes all registered services (none by default)\n#########################################################################\n\ndef index():\n\t#sentencia \n\talumnos = db().select(db.alumno.ALL)\n    return dict(alumnos=alumnos)\n\n\nresponse._vars=response._caller(index)\n'
p6
sS'snapshot'
p7
(dp8
S'exception'
p9
(dp10
S'__getslice__'
p11
S"<method-wrapper '__getslice__' of exceptions.IndentationError object>"
p12
sS'text'
p13
S"'    return dict(alumnos=alumnos)\\n'"
p14
sS'__str__'
p15
S"<method-wrapper '__str__' of exceptions.IndentationError object>"
p16
sS'__reduce__'
p17
S'<built-in method __reduce__ of exceptions.IndentationError object>'
p18
sS'__dict__'
p19
S'{}'
p20
sS'__sizeof__'
p21
S'<built-in method __sizeof__ of exceptions.IndentationError object>'
p22
sS'__init__'
p23
S"<method-wrapper '__init__' of exceptions.IndentationError object>"
p24
sS'__setattr__'
p25
S"<method-wrapper '__setattr__' of exceptions.IndentationError object>"
p26
sS'__reduce_ex__'
p27
S'<built-in method __reduce_ex__ of exceptions.IndentationError object>'
p28
sS'__new__'
p29
S'<built-in method __new__ of type object>'
p30
sS'__format__'
p31
S'<built-in method __format__ of exceptions.IndentationError object>'
p32
sS'__class__'
p33
S"<type 'exceptions.IndentationError'>"
p34
sS'filename'
p35
S"'/home/alumno/web2py/applications/datos/controllers/default.py'"
p36
sS'lineno'
p37
S'15'
p38
sS'msg'
p39
S"'unindent does not match any outer indentation level'"
p40
sS'__doc__'
p41
S"'Improper indentation.'"
p42
sS'__getitem__'
p43
S"<method-wrapper '__getitem__' of exceptions.IndentationError object>"
p44
sS'__setstate__'
p45
S'<built-in method __setstate__ of exceptions.IndentationError object>'
p46
sS'__getattribute__'
p47
S"<method-wrapper '__getattribute__' of exceptions.IndentationError object>"
p48
sS'print_file_and_line'
p49
S'None'
p50
sS'args'
p51
S"('unindent does not match any outer indentation level', ('/home/alumno/web2py/applications/datos/controllers/default.py', 15, 33, '    return dict(alumnos=alumnos)\\n'))"
p52
sS'__subclasshook__'
p53
S'<built-in method __subclasshook__ of type object>'
p54
sS'offset'
p55
S'33'
p56
sS'__unicode__'
p57
S'<built-in method __unicode__ of exceptions.IndentationError object>'
p58
sS'__delattr__'
p59
S"<method-wrapper '__delattr__' of exceptions.IndentationError object>"
p60
sS'__repr__'
p61
S"<method-wrapper '__repr__' of exceptions.IndentationError object>"
p62
sS'__hash__'
p63
S"<method-wrapper '__hash__' of exceptions.IndentationError object>"
p64
ssS'evalue'
p65
S'unindent does not match any outer indentation level (default.py, line 15)'
p66
sS'request'
p67
ccopy_reg
_reconstructor
p68
(cgluon.html
BEAUTIFY
p69
c__builtin__
object
p70
NtRp71
(dp72
S'attributes'
p73
(dp74
sS'components'
p75
(lp76
g68
(cgluon.html
TABLE
p77
g70
NtRp78
(dp79
g73
(dp80
S'level'
p81
I5
ssS'parent'
p82
Nsg75
(lp83
g68
(cgluon.html
TR
p84
g70
NtRp85
(dp86
g73
(dp87
sg82
g78
sg75
(lp88
g68
(cgluon.html
TD
p89
g70
NtRp90
(dp91
g73
(dp92
S'_style'
p93
S'font-weight:bold;'
p94
ssg82
g85
sg75
(lp95
S'ajax'
p96
asbag68
(g89
g70
NtRp97
(dp98
g73
(dp99
S'_valign'
p100
S'top'
p101
ssg82
g85
sg75
(lp102
S':'
asbag68
(g89
g70
NtRp103
(dp104
g73
(dp105
sg82
g85
sg75
(lp106
g68
(g69
g70
NtRp107
(dp108
g73
(dp109
g81
I5
ssg82
g103
sg75
(lp110
S'False'
p111
asbasbasbag68
(g84
g70
NtRp112
(dp113
g73
(dp114
sg82
g78
sg75
(lp115
g68
(g89
g70
NtRp116
(dp117
g73
(dp118
g93
g94
ssg82
g112
sg75
(lp119
S'application'
p120
asbag68
(g89
g70
NtRp121
(dp122
g73
(dp123
g100
g101
ssg82
g112
sg75
(lp124
S':'
asbag68
(g89
g70
NtRp125
(dp126
g73
(dp127
sg82
g112
sg75
(lp128
g68
(g69
g70
NtRp129
(dp130
g73
(dp131
g81
I5
ssg82
g125
sg75
(lp132
S'datos'
p133
asbasbasbag68
(g84
g70
NtRp134
(dp135
g73
(dp136
sg82
g78
sg75
(lp137
g68
(g89
g70
NtRp138
(dp139
g73
(dp140
g93
g94
ssg82
g134
sg75
(lp141
g51
asbag68
(g89
g70
NtRp142
(dp143
g73
(dp144
g100
g101
ssg82
g134
sg75
(lp145
S':'
asbag68
(g89
g70
NtRp146
(dp147
g73
(dp148
sg82
g134
sg75
(lp149
g68
(g69
g70
NtRp150
(dp151
g73
(dp152
g81
I5
ssg82
g146
sg75
(lp153
g68
(g77
g70
NtRp154
(dp155
g73
(dp156
g81
I4
ssg82
Nsg75
(lp157
sbasbasbasbag68
(g84
g70
NtRp158
(dp159
g73
(dp160
sg82
g78
sg75
(lp161
g68
(g89
g70
NtRp162
(dp163
g73
(dp164
g93
g94
ssg82
g158
sg75
(lp165
S'body'
p166
asbag68
(g89
g70
NtRp167
(dp168
g73
(dp169
g100
g101
ssg82
g158
sg75
(lp170
S':'
asbag68
(g89
g70
NtRp171
(dp172
g73
(dp173
sg82
g158
sg75
(lp174
g68
(g69
g70
NtRp175
(dp176
g73
(dp177
g81
I5
ssg82
g171
sg75
(lp178
S'<cStringIO.StringO object at 0x9ca90c0>'
p179
asbasbasbag68
(g84
g70
NtRp180
(dp181
g73
(dp182
sg82
g78
sg75
(lp183
g68
(g89
g70
NtRp184
(dp185
g73
(dp186
g93
g94
ssg82
g180
sg75
(lp187
S'client'
p188
asbag68
(g89
g70
NtRp189
(dp190
g73
(dp191
g100
g101
ssg82
g180
sg75
(lp192
S':'
asbag68
(g89
g70
NtRp193
(dp194
g73
(dp195
sg82
g180
sg75
(lp196
g68
(g69
g70
NtRp197
(dp198
g73
(dp199
g81
I5
ssg82
g193
sg75
(lp200
S'127.0.0.1'
p201
asbasbasbag68
(g84
g70
NtRp202
(dp203
g73
(dp204
sg82
g78
sg75
(lp205
g68
(g89
g70
NtRp206
(dp207
g73
(dp208
g93
g94
ssg82
g202
sg75
(lp209
S'controller'
p210
asbag68
(g89
g70
NtRp211
(dp212
g73
(dp213
g100
g101
ssg82
g202
sg75
(lp214
S':'
asbag68
(g89
g70
NtRp215
(dp216
g73
(dp217
sg82
g202
sg75
(lp218
g68
(g69
g70
NtRp219
(dp220
g73
(dp221
g81
I5
ssg82
g215
sg75
(lp222
S'default'
p223
asbasbasbag68
(g84
g70
NtRp224
(dp225
g73
(dp226
sg82
g78
sg75
(lp227
g68
(g89
g70
NtRp228
(dp229
g73
(dp230
g93
g94
ssg82
g224
sg75
(lp231
S'cookies'
p232
asbag68
(g89
g70
NtRp233
(dp234
g73
(dp235
g100
g101
ssg82
g224
sg75
(lp236
S':'
asbag68
(g89
g70
NtRp237
(dp238
g73
(dp239
sg82
g224
sg75
(lp240
g68
(g69
g70
NtRp241
(dp242
g73
(dp243
g81
I5
ssg82
g237
sg75
(lp244
g68
(g77
g70
NtRp245
(dp246
g73
(dp247
g81
I4
ssg82
Nsg75
(lp248
g68
(g84
g70
NtRp249
(dp250
g73
(dp251
sg82
g245
sg75
(lp252
g68
(g89
g70
NtRp253
(dp254
g73
(dp255
g93
g94
ssg82
g249
sg75
(lp256
S'adminLanguage'
p257
asbag68
(g89
g70
NtRp258
(dp259
g73
(dp260
g100
g101
ssg82
g249
sg75
(lp261
S':'
asbag68
(g89
g70
NtRp262
(dp263
g73
(dp264
sg82
g249
sg75
(lp265
g68
(g69
g70
NtRp266
(dp267
g73
(dp268
g81
I4
ssg82
g262
sg75
(lp269
g68
(g77
g70
NtRp270
(dp271
g73
(dp272
g81
I3
ssg82
Nsg75
(lp273
g68
(g84
g70
NtRp274
(dp275
g73
(dp276
sg82
g270
sg75
(lp277
g68
(g89
g70
NtRp278
(dp279
g73
(dp280
g93
g94
ssg82
g274
sg75
(lp281
S'comment'
p282
asbag68
(g89
g70
NtRp283
(dp284
g73
(dp285
g100
g101
ssg82
g274
sg75
(lp286
S':'
asbag68
(g89
g70
NtRp287
(dp288
g73
(dp289
sg82
g274
sg75
(lp290
g68
(g69
g70
NtRp291
(dp292
g73
(dp293
g81
I3
ssg82
g287
sg75
(lp294
S''
asbasbasbag68
(g84
g70
NtRp295
(dp296
g73
(dp297
sg82
g270
sg75
(lp298
g68
(g89
g70
NtRp299
(dp300
g73
(dp301
g93
g94
ssg82
g295
sg75
(lp302
S'domain'
p303
asbag68
(g89
g70
NtRp304
(dp305
g73
(dp306
g100
g101
ssg82
g295
sg75
(lp307
S':'
asbag68
(g89
g70
NtRp308
(dp309
g73
(dp310
sg82
g295
sg75
(lp311
g68
(g69
g70
NtRp312
(dp313
g73
(dp314
g81
I3
ssg82
g308
sg75
(lp315
S''
asbasbasbag68
(g84
g70
NtRp316
(dp317
g73
(dp318
sg82
g270
sg75
(lp319
g68
(g89
g70
NtRp320
(dp321
g73
(dp322
g93
g94
ssg82
g316
sg75
(lp323
S'expires'
p324
asbag68
(g89
g70
NtRp325
(dp326
g73
(dp327
g100
g101
ssg82
g316
sg75
(lp328
S':'
asbag68
(g89
g70
NtRp329
(dp330
g73
(dp331
sg82
g316
sg75
(lp332
g68
(g69
g70
NtRp333
(dp334
g73
(dp335
g81
I3
ssg82
g329
sg75
(lp336
S''
asbasbasbag68
(g84
g70
NtRp337
(dp338
g73
(dp339
sg82
g270
sg75
(lp340
g68
(g89
g70
NtRp341
(dp342
g73
(dp343
g93
g94
ssg82
g337
sg75
(lp344
S'httponly'
p345
asbag68
(g89
g70
NtRp346
(dp347
g73
(dp348
g100
g101
ssg82
g337
sg75
(lp349
S':'
asbag68
(g89
g70
NtRp350
(dp351
g73
(dp352
sg82
g337
sg75
(lp353
g68
(g69
g70
NtRp354
(dp355
g73
(dp356
g81
I3
ssg82
g350
sg75
(lp357
S''
asbasbasbag68
(g84
g70
NtRp358
(dp359
g73
(dp360
sg82
g270
sg75
(lp361
g68
(g89
g70
NtRp362
(dp363
g73
(dp364
g93
g94
ssg82
g358
sg75
(lp365
S'max-age'
p366
asbag68
(g89
g70
NtRp367
(dp368
g73
(dp369
g100
g101
ssg82
g358
sg75
(lp370
S':'
asbag68
(g89
g70
NtRp371
(dp372
g73
(dp373
sg82
g358
sg75
(lp374
g68
(g69
g70
NtRp375
(dp376
g73
(dp377
g81
I3
ssg82
g371
sg75
(lp378
S''
asbasbasbag68
(g84
g70
NtRp379
(dp380
g73
(dp381
sg82
g270
sg75
(lp382
g68
(g89
g70
NtRp383
(dp384
g73
(dp385
g93
g94
ssg82
g379
sg75
(lp386
S'path'
p387
asbag68
(g89
g70
NtRp388
(dp389
g73
(dp390
g100
g101
ssg82
g379
sg75
(lp391
S':'
asbag68
(g89
g70
NtRp392
(dp393
g73
(dp394
sg82
g379
sg75
(lp395
g68
(g69
g70
NtRp396
(dp397
g73
(dp398
g81
I3
ssg82
g392
sg75
(lp399
S''
asbasbasbag68
(g84
g70
NtRp400
(dp401
g73
(dp402
sg82
g270
sg75
(lp403
g68
(g89
g70
NtRp404
(dp405
g73
(dp406
g93
g94
ssg82
g400
sg75
(lp407
S'secure'
p408
asbag68
(g89
g70
NtRp409
(dp410
g73
(dp411
g100
g101
ssg82
g400
sg75
(lp412
S':'
asbag68
(g89
g70
NtRp413
(dp414
g73
(dp415
sg82
g400
sg75
(lp416
g68
(g69
g70
NtRp417
(dp418
g73
(dp419
g81
I3
ssg82
g413
sg75
(lp420
S''
asbasbasbag68
(g84
g70
NtRp421
(dp422
g73
(dp423
sg82
g270
sg75
(lp424
g68
(g89
g70
NtRp425
(dp426
g73
(dp427
g93
g94
ssg82
g421
sg75
(lp428
S'version'
p429
asbag68
(g89
g70
NtRp430
(dp431
g73
(dp432
g100
g101
ssg82
g421
sg75
(lp433
S':'
asbag68
(g89
g70
NtRp434
(dp435
g73
(dp436
sg82
g421
sg75
(lp437
g68
(g69
g70
NtRp438
(dp439
g73
(dp440
g81
I3
ssg82
g434
sg75
(lp441
S''
asbasbasbasbasbasbasbag68
(g84
g70
NtRp442
(dp443
g73
(dp444
sg82
g245
sg75
(lp445
g68
(g89
g70
NtRp446
(dp447
g73
(dp448
g93
g94
ssg82
g442
sg75
(lp449
S'session_id_admin'
p450
asbag68
(g89
g70
NtRp451
(dp452
g73
(dp453
g100
g101
ssg82
g442
sg75
(lp454
S':'
asbag68
(g89
g70
NtRp455
(dp456
g73
(dp457
sg82
g442
sg75
(lp458
g68
(g69
g70
NtRp459
(dp460
g73
(dp461
g81
I4
ssg82
g455
sg75
(lp462
g68
(g77
g70
NtRp463
(dp464
g73
(dp465
g81
I3
ssg82
Nsg75
(lp466
g68
(g84
g70
NtRp467
(dp468
g73
(dp469
sg82
g463
sg75
(lp470
g68
(g89
g70
NtRp471
(dp472
g73
(dp473
g93
g94
ssg82
g467
sg75
(lp474
g282
asbag68
(g89
g70
NtRp475
(dp476
g73
(dp477
g100
g101
ssg82
g467
sg75
(lp478
S':'
asbag68
(g89
g70
NtRp479
(dp480
g73
(dp481
sg82
g467
sg75
(lp482
g68
(g69
g70
NtRp483
(dp484
g73
(dp485
g81
I3
ssg82
g479
sg75
(lp486
S''
asbasbasbag68
(g84
g70
NtRp487
(dp488
g73
(dp489
sg82
g463
sg75
(lp490
g68
(g89
g70
NtRp491
(dp492
g73
(dp493
g93
g94
ssg82
g487
sg75
(lp494
g303
asbag68
(g89
g70
NtRp495
(dp496
g73
(dp497
g100
g101
ssg82
g487
sg75
(lp498
S':'
asbag68
(g89
g70
NtRp499
(dp500
g73
(dp501
sg82
g487
sg75
(lp502
g68
(g69
g70
NtRp503
(dp504
g73
(dp505
g81
I3
ssg82
g499
sg75
(lp506
S''
asbasbasbag68
(g84
g70
NtRp507
(dp508
g73
(dp509
sg82
g463
sg75
(lp510
g68
(g89
g70
NtRp511
(dp512
g73
(dp513
g93
g94
ssg82
g507
sg75
(lp514
g324
asbag68
(g89
g70
NtRp515
(dp516
g73
(dp517
g100
g101
ssg82
g507
sg75
(lp518
S':'
asbag68
(g89
g70
NtRp519
(dp520
g73
(dp521
sg82
g507
sg75
(lp522
g68
(g69
g70
NtRp523
(dp524
g73
(dp525
g81
I3
ssg82
g519
sg75
(lp526
S''
asbasbasbag68
(g84
g70
NtRp527
(dp528
g73
(dp529
sg82
g463
sg75
(lp530
g68
(g89
g70
NtRp531
(dp532
g73
(dp533
g93
g94
ssg82
g527
sg75
(lp534
g345
asbag68
(g89
g70
NtRp535
(dp536
g73
(dp537
g100
g101
ssg82
g527
sg75
(lp538
S':'
asbag68
(g89
g70
NtRp539
(dp540
g73
(dp541
sg82
g527
sg75
(lp542
g68
(g69
g70
NtRp543
(dp544
g73
(dp545
g81
I3
ssg82
g539
sg75
(lp546
S''
asbasbasbag68
(g84
g70
NtRp547
(dp548
g73
(dp549
sg82
g463
sg75
(lp550
g68
(g89
g70
NtRp551
(dp552
g73
(dp553
g93
g94
ssg82
g547
sg75
(lp554
g366
asbag68
(g89
g70
NtRp555
(dp556
g73
(dp557
g100
g101
ssg82
g547
sg75
(lp558
S':'
asbag68
(g89
g70
NtRp559
(dp560
g73
(dp561
sg82
g547
sg75
(lp562
g68
(g69
g70
NtRp563
(dp564
g73
(dp565
g81
I3
ssg82
g559
sg75
(lp566
S''
asbasbasbag68
(g84
g70
NtRp567
(dp568
g73
(dp569
sg82
g463
sg75
(lp570
g68
(g89
g70
NtRp571
(dp572
g73
(dp573
g93
g94
ssg82
g567
sg75
(lp574
g387
asbag68
(g89
g70
NtRp575
(dp576
g73
(dp577
g100
g101
ssg82
g567
sg75
(lp578
S':'
asbag68
(g89
g70
NtRp579
(dp580
g73
(dp581
sg82
g567
sg75
(lp582
g68
(g69
g70
NtRp583
(dp584
g73
(dp585
g81
I3
ssg82
g579
sg75
(lp586
S''
asbasbasbag68
(g84
g70
NtRp587
(dp588
g73
(dp589
sg82
g463
sg75
(lp590
g68
(g89
g70
NtRp591
(dp592
g73
(dp593
g93
g94
ssg82
g587
sg75
(lp594
g408
asbag68
(g89
g70
NtRp595
(dp596
g73
(dp597
g100
g101
ssg82
g587
sg75
(lp598
S':'
asbag68
(g89
g70
NtRp599
(dp600
g73
(dp601
sg82
g587
sg75
(lp602
g68
(g69
g70
NtRp603
(dp604
g73
(dp605
g81
I3
ssg82
g599
sg75
(lp606
S''
asbasbasbag68
(g84
g70
NtRp607
(dp608
g73
(dp609
sg82
g463
sg75
(lp610
g68
(g89
g70
NtRp611
(dp612
g73
(dp613
g93
g94
ssg82
g607
sg75
(lp614
g429
asbag68
(g89
g70
NtRp615
(dp616
g73
(dp617
g100
g101
ssg82
g607
sg75
(lp618
S':'
asbag68
(g89
g70
NtRp619
(dp620
g73
(dp621
sg82
g607
sg75
(lp622
g68
(g69
g70
NtRp623
(dp624
g73
(dp625
g81
I3
ssg82
g619
sg75
(lp626
S''
asbasbasbasbasbasbasbag68
(g84
g70
NtRp627
(dp628
g73
(dp629
sg82
g245
sg75
(lp630
g68
(g89
g70
NtRp631
(dp632
g73
(dp633
g93
g94
ssg82
g627
sg75
(lp634
S'session_id_datos'
p635
asbag68
(g89
g70
NtRp636
(dp637
g73
(dp638
g100
g101
ssg82
g627
sg75
(lp639
S':'
asbag68
(g89
g70
NtRp640
(dp641
g73
(dp642
sg82
g627
sg75
(lp643
g68
(g69
g70
NtRp644
(dp645
g73
(dp646
g81
I4
ssg82
g640
sg75
(lp647
g68
(g77
g70
NtRp648
(dp649
g73
(dp650
g81
I3
ssg82
Nsg75
(lp651
g68
(g84
g70
NtRp652
(dp653
g73
(dp654
sg82
g648
sg75
(lp655
g68
(g89
g70
NtRp656
(dp657
g73
(dp658
g93
g94
ssg82
g652
sg75
(lp659
g282
asbag68
(g89
g70
NtRp660
(dp661
g73
(dp662
g100
g101
ssg82
g652
sg75
(lp663
S':'
asbag68
(g89
g70
NtRp664
(dp665
g73
(dp666
sg82
g652
sg75
(lp667
g68
(g69
g70
NtRp668
(dp669
g73
(dp670
g81
I3
ssg82
g664
sg75
(lp671
S''
asbasbasbag68
(g84
g70
NtRp672
(dp673
g73
(dp674
sg82
g648
sg75
(lp675
g68
(g89
g70
NtRp676
(dp677
g73
(dp678
g93
g94
ssg82
g672
sg75
(lp679
g303
asbag68
(g89
g70
NtRp680
(dp681
g73
(dp682
g100
g101
ssg82
g672
sg75
(lp683
S':'
asbag68
(g89
g70
NtRp684
(dp685
g73
(dp686
sg82
g672
sg75
(lp687
g68
(g69
g70
NtRp688
(dp689
g73
(dp690
g81
I3
ssg82
g684
sg75
(lp691
S''
asbasbasbag68
(g84
g70
NtRp692
(dp693
g73
(dp694
sg82
g648
sg75
(lp695
g68
(g89
g70
NtRp696
(dp697
g73
(dp698
g93
g94
ssg82
g692
sg75
(lp699
g324
asbag68
(g89
g70
NtRp700
(dp701
g73
(dp702
g100
g101
ssg82
g692
sg75
(lp703
S':'
asbag68
(g89
g70
NtRp704
(dp705
g73
(dp706
sg82
g692
sg75
(lp707
g68
(g69
g70
NtRp708
(dp709
g73
(dp710
g81
I3
ssg82
g704
sg75
(lp711
S''
asbasbasbag68
(g84
g70
NtRp712
(dp713
g73
(dp714
sg82
g648
sg75
(lp715
g68
(g89
g70
NtRp716
(dp717
g73
(dp718
g93
g94
ssg82
g712
sg75
(lp719
g345
asbag68
(g89
g70
NtRp720
(dp721
g73
(dp722
g100
g101
ssg82
g712
sg75
(lp723
S':'
asbag68
(g89
g70
NtRp724
(dp725
g73
(dp726
sg82
g712
sg75
(lp727
g68
(g69
g70
NtRp728
(dp729
g73
(dp730
g81
I3
ssg82
g724
sg75
(lp731
S''
asbasbasbag68
(g84
g70
NtRp732
(dp733
g73
(dp734
sg82
g648
sg75
(lp735
g68
(g89
g70
NtRp736
(dp737
g73
(dp738
g93
g94
ssg82
g732
sg75
(lp739
g366
asbag68
(g89
g70
NtRp740
(dp741
g73
(dp742
g100
g101
ssg82
g732
sg75
(lp743
S':'
asbag68
(g89
g70
NtRp744
(dp745
g73
(dp746
sg82
g732
sg75
(lp747
g68
(g69
g70
NtRp748
(dp749
g73
(dp750
g81
I3
ssg82
g744
sg75
(lp751
S''
asbasbasbag68
(g84
g70
NtRp752
(dp753
g73
(dp754
sg82
g648
sg75
(lp755
g68
(g89
g70
NtRp756
(dp757
g73
(dp758
g93
g94
ssg82
g752
sg75
(lp759
g387
asbag68
(g89
g70
NtRp760
(dp761
g73
(dp762
g100
g101
ssg82
g752
sg75
(lp763
S':'
asbag68
(g89
g70
NtRp764
(dp765
g73
(dp766
sg82
g752
sg75
(lp767
g68
(g69
g70
NtRp768
(dp769
g73
(dp770
g81
I3
ssg82
g764
sg75
(lp771
S''
asbasbasbag68
(g84
g70
NtRp772
(dp773
g73
(dp774
sg82
g648
sg75
(lp775
g68
(g89
g70
NtRp776
(dp777
g73
(dp778
g93
g94
ssg82
g772
sg75
(lp779
g408
asbag68
(g89
g70
NtRp780
(dp781
g73
(dp782
g100
g101
ssg82
g772
sg75
(lp783
S':'
asbag68
(g89
g70
NtRp784
(dp785
g73
(dp786
sg82
g772
sg75
(lp787
g68
(g69
g70
NtRp788
(dp789
g73
(dp790
g81
I3
ssg82
g784
sg75
(lp791
S''
asbasbasbag68
(g84
g70
NtRp792
(dp793
g73
(dp794
sg82
g648
sg75
(lp795
g68
(g89
g70
NtRp796
(dp797
g73
(dp798
g93
g94
ssg82
g792
sg75
(lp799
g429
asbag68
(g89
g70
NtRp800
(dp801
g73
(dp802
g100
g101
ssg82
g792
sg75
(lp803
S':'
asbag68
(g89
g70
NtRp804
(dp805
g73
(dp806
sg82
g792
sg75
(lp807
g68
(g69
g70
NtRp808
(dp809
g73
(dp810
g81
I3
ssg82
g804
sg75
(lp811
S''
asbasbasbasbasbasbasbag68
(g84
g70
NtRp812
(dp813
g73
(dp814
sg82
g245
sg75
(lp815
g68
(g89
g70
NtRp816
(dp817
g73
(dp818
g93
g94
ssg82
g812
sg75
(lp819
S'session_id_my_web'
p820
asbag68
(g89
g70
NtRp821
(dp822
g73
(dp823
g100
g101
ssg82
g812
sg75
(lp824
S':'
asbag68
(g89
g70
NtRp825
(dp826
g73
(dp827
sg82
g812
sg75
(lp828
g68
(g69
g70
NtRp829
(dp830
g73
(dp831
g81
I4
ssg82
g825
sg75
(lp832
g68
(g77
g70
NtRp833
(dp834
g73
(dp835
g81
I3
ssg82
Nsg75
(lp836
g68
(g84
g70
NtRp837
(dp838
g73
(dp839
sg82
g833
sg75
(lp840
g68
(g89
g70
NtRp841
(dp842
g73
(dp843
g93
g94
ssg82
g837
sg75
(lp844
g282
asbag68
(g89
g70
NtRp845
(dp846
g73
(dp847
g100
g101
ssg82
g837
sg75
(lp848
S':'
asbag68
(g89
g70
NtRp849
(dp850
g73
(dp851
sg82
g837
sg75
(lp852
g68
(g69
g70
NtRp853
(dp854
g73
(dp855
g81
I3
ssg82
g849
sg75
(lp856
S''
asbasbasbag68
(g84
g70
NtRp857
(dp858
g73
(dp859
sg82
g833
sg75
(lp860
g68
(g89
g70
NtRp861
(dp862
g73
(dp863
g93
g94
ssg82
g857
sg75
(lp864
g303
asbag68
(g89
g70
NtRp865
(dp866
g73
(dp867
g100
g101
ssg82
g857
sg75
(lp868
S':'
asbag68
(g89
g70
NtRp869
(dp870
g73
(dp871
sg82
g857
sg75
(lp872
g68
(g69
g70
NtRp873
(dp874
g73
(dp875
g81
I3
ssg82
g869
sg75
(lp876
S''
asbasbasbag68
(g84
g70
NtRp877
(dp878
g73
(dp879
sg82
g833
sg75
(lp880
g68
(g89
g70
NtRp881
(dp882
g73
(dp883
g93
g94
ssg82
g877
sg75
(lp884
g324
asbag68
(g89
g70
NtRp885
(dp886
g73
(dp887
g100
g101
ssg82
g877
sg75
(lp888
S':'
asbag68
(g89
g70
NtRp889
(dp890
g73
(dp891
sg82
g877
sg75
(lp892
g68
(g69
g70
NtRp893
(dp894
g73
(dp895
g81
I3
ssg82
g889
sg75
(lp896
S''
asbasbasbag68
(g84
g70
NtRp897
(dp898
g73
(dp899
sg82
g833
sg75
(lp900
g68
(g89
g70
NtRp901
(dp902
g73
(dp903
g93
g94
ssg82
g897
sg75
(lp904
g345
asbag68
(g89
g70
NtRp905
(dp906
g73
(dp907
g100
g101
ssg82
g897
sg75
(lp908
S':'
asbag68
(g89
g70
NtRp909
(dp910
g73
(dp911
sg82
g897
sg75
(lp912
g68
(g69
g70
NtRp913
(dp914
g73
(dp915
g81
I3
ssg82
g909
sg75
(lp916
S''
asbasbasbag68
(g84
g70
NtRp917
(dp918
g73
(dp919
sg82
g833
sg75
(lp920
g68
(g89
g70
NtRp921
(dp922
g73
(dp923
g93
g94
ssg82
g917
sg75
(lp924
g366
asbag68
(g89
g70
NtRp925
(dp926
g73
(dp927
g100
g101
ssg82
g917
sg75
(lp928
S':'
asbag68
(g89
g70
NtRp929
(dp930
g73
(dp931
sg82
g917
sg75
(lp932
g68
(g69
g70
NtRp933
(dp934
g73
(dp935
g81
I3
ssg82
g929
sg75
(lp936
S''
asbasbasbag68
(g84
g70
NtRp937
(dp938
g73
(dp939
sg82
g833
sg75
(lp940
g68
(g89
g70
NtRp941
(dp942
g73
(dp943
g93
g94
ssg82
g937
sg75
(lp944
g387
asbag68
(g89
g70
NtRp945
(dp946
g73
(dp947
g100
g101
ssg82
g937
sg75
(lp948
S':'
asbag68
(g89
g70
NtRp949
(dp950
g73
(dp951
sg82
g937
sg75
(lp952
g68
(g69
g70
NtRp953
(dp954
g73
(dp955
g81
I3
ssg82
g949
sg75
(lp956
S''
asbasbasbag68
(g84
g70
NtRp957
(dp958
g73
(dp959
sg82
g833
sg75
(lp960
g68
(g89
g70
NtRp961
(dp962
g73
(dp963
g93
g94
ssg82
g957
sg75
(lp964
g408
asbag68
(g89
g70
NtRp965
(dp966
g73
(dp967
g100
g101
ssg82
g957
sg75
(lp968
S':'
asbag68
(g89
g70
NtRp969
(dp970
g73
(dp971
sg82
g957
sg75
(lp972
g68
(g69
g70
NtRp973
(dp974
g73
(dp975
g81
I3
ssg82
g969
sg75
(lp976
S''
asbasbasbag68
(g84
g70
NtRp977
(dp978
g73
(dp979
sg82
g833
sg75
(lp980
g68
(g89
g70
NtRp981
(dp982
g73
(dp983
g93
g94
ssg82
g977
sg75
(lp984
g429
asbag68
(g89
g70
NtRp985
(dp986
g73
(dp987
g100
g101
ssg82
g977
sg75
(lp988
S':'
asbag68
(g89
g70
NtRp989
(dp990
g73
(dp991
sg82
g977
sg75
(lp992
g68
(g69
g70
NtRp993
(dp994
g73
(dp995
g81
I3
ssg82
g989
sg75
(lp996
S''
asbasbasbasbasbasbasbag68
(g84
g70
NtRp997
(dp998
g73
(dp999
sg82
g245
sg75
(lp1000
g68
(g89
g70
NtRp1001
(dp1002
g73
(dp1003
g93
g94
ssg82
g997
sg75
(lp1004
S'session_id_welcome'
p1005
asbag68
(g89
g70
NtRp1006
(dp1007
g73
(dp1008
g100
g101
ssg82
g997
sg75
(lp1009
S':'
asbag68
(g89
g70
NtRp1010
(dp1011
g73
(dp1012
sg82
g997
sg75
(lp1013
g68
(g69
g70
NtRp1014
(dp1015
g73
(dp1016
g81
I4
ssg82
g1010
sg75
(lp1017
g68
(g77
g70
NtRp1018
(dp1019
g73
(dp1020
g81
I3
ssg82
Nsg75
(lp1021
g68
(g84
g70
NtRp1022
(dp1023
g73
(dp1024
sg82
g1018
sg75
(lp1025
g68
(g89
g70
NtRp1026
(dp1027
g73
(dp1028
g93
g94
ssg82
g1022
sg75
(lp1029
g282
asbag68
(g89
g70
NtRp1030
(dp1031
g73
(dp1032
g100
g101
ssg82
g1022
sg75
(lp1033
S':'
asbag68
(g89
g70
NtRp1034
(dp1035
g73
(dp1036
sg82
g1022
sg75
(lp1037
g68
(g69
g70
NtRp1038
(dp1039
g73
(dp1040
g81
I3
ssg82
g1034
sg75
(lp1041
S''
asbasbasbag68
(g84
g70
NtRp1042
(dp1043
g73
(dp1044
sg82
g1018
sg75
(lp1045
g68
(g89
g70
NtRp1046
(dp1047
g73
(dp1048
g93
g94
ssg82
g1042
sg75
(lp1049
g303
asbag68
(g89
g70
NtRp1050
(dp1051
g73
(dp1052
g100
g101
ssg82
g1042
sg75
(lp1053
S':'
asbag68
(g89
g70
NtRp1054
(dp1055
g73
(dp1056
sg82
g1042
sg75
(lp1057
g68
(g69
g70
NtRp1058
(dp1059
g73
(dp1060
g81
I3
ssg82
g1054
sg75
(lp1061
S''
asbasbasbag68
(g84
g70
NtRp1062
(dp1063
g73
(dp1064
sg82
g1018
sg75
(lp1065
g68
(g89
g70
NtRp1066
(dp1067
g73
(dp1068
g93
g94
ssg82
g1062
sg75
(lp1069
g324
asbag68
(g89
g70
NtRp1070
(dp1071
g73
(dp1072
g100
g101
ssg82
g1062
sg75
(lp1073
S':'
asbag68
(g89
g70
NtRp1074
(dp1075
g73
(dp1076
sg82
g1062
sg75
(lp1077
g68
(g69
g70
NtRp1078
(dp1079
g73
(dp1080
g81
I3
ssg82
g1074
sg75
(lp1081
S''
asbasbasbag68
(g84
g70
NtRp1082
(dp1083
g73
(dp1084
sg82
g1018
sg75
(lp1085
g68
(g89
g70
NtRp1086
(dp1087
g73
(dp1088
g93
g94
ssg82
g1082
sg75
(lp1089
g345
asbag68
(g89
g70
NtRp1090
(dp1091
g73
(dp1092
g100
g101
ssg82
g1082
sg75
(lp1093
S':'
asbag68
(g89
g70
NtRp1094
(dp1095
g73
(dp1096
sg82
g1082
sg75
(lp1097
g68
(g69
g70
NtRp1098
(dp1099
g73
(dp1100
g81
I3
ssg82
g1094
sg75
(lp1101
S''
asbasbasbag68
(g84
g70
NtRp1102
(dp1103
g73
(dp1104
sg82
g1018
sg75
(lp1105
g68
(g89
g70
NtRp1106
(dp1107
g73
(dp1108
g93
g94
ssg82
g1102
sg75
(lp1109
g366
asbag68
(g89
g70
NtRp1110
(dp1111
g73
(dp1112
g100
g101
ssg82
g1102
sg75
(lp1113
S':'
asbag68
(g89
g70
NtRp1114
(dp1115
g73
(dp1116
sg82
g1102
sg75
(lp1117
g68
(g69
g70
NtRp1118
(dp1119
g73
(dp1120
g81
I3
ssg82
g1114
sg75
(lp1121
S''
asbasbasbag68
(g84
g70
NtRp1122
(dp1123
g73
(dp1124
sg82
g1018
sg75
(lp1125
g68
(g89
g70
NtRp1126
(dp1127
g73
(dp1128
g93
g94
ssg82
g1122
sg75
(lp1129
g387
asbag68
(g89
g70
NtRp1130
(dp1131
g73
(dp1132
g100
g101
ssg82
g1122
sg75
(lp1133
S':'
asbag68
(g89
g70
NtRp1134
(dp1135
g73
(dp1136
sg82
g1122
sg75
(lp1137
g68
(g69
g70
NtRp1138
(dp1139
g73
(dp1140
g81
I3
ssg82
g1134
sg75
(lp1141
S''
asbasbasbag68
(g84
g70
NtRp1142
(dp1143
g73
(dp1144
sg82
g1018
sg75
(lp1145
g68
(g89
g70
NtRp1146
(dp1147
g73
(dp1148
g93
g94
ssg82
g1142
sg75
(lp1149
g408
asbag68
(g89
g70
NtRp1150
(dp1151
g73
(dp1152
g100
g101
ssg82
g1142
sg75
(lp1153
S':'
asbag68
(g89
g70
NtRp1154
(dp1155
g73
(dp1156
sg82
g1142
sg75
(lp1157
g68
(g69
g70
NtRp1158
(dp1159
g73
(dp1160
g81
I3
ssg82
g1154
sg75
(lp1161
S''
asbasbasbag68
(g84
g70
NtRp1162
(dp1163
g73
(dp1164
sg82
g1018
sg75
(lp1165
g68
(g89
g70
NtRp1166
(dp1167
g73
(dp1168
g93
g94
ssg82
g1162
sg75
(lp1169
g429
asbag68
(g89
g70
NtRp1170
(dp1171
g73
(dp1172
g100
g101
ssg82
g1162
sg75
(lp1173
S':'
asbag68
(g89
g70
NtRp1174
(dp1175
g73
(dp1176
sg82
g1162
sg75
(lp1177
g68
(g69
g70
NtRp1178
(dp1179
g73
(dp1180
g81
I3
ssg82
g1174
sg75
(lp1181
S''
asbasbasbasbasbasbasbasbasbasbasbag68
(g84
g70
NtRp1182
(dp1183
g73
(dp1184
sg82
g78
sg75
(lp1185
g68
(g89
g70
NtRp1186
(dp1187
g73
(dp1188
g93
g94
ssg82
g1182
sg75
(lp1189
S'env'
p1190
asbag68
(g89
g70
NtRp1191
(dp1192
g73
(dp1193
g100
g101
ssg82
g1182
sg75
(lp1194
S':'
asbag68
(g89
g70
NtRp1195
(dp1196
g73
(dp1197
sg82
g1182
sg75
(lp1198
g68
(g69
g70
NtRp1199
(dp1200
g73
(dp1201
g81
I5
ssg82
g1195
sg75
(lp1202
g68
(g77
g70
NtRp1203
(dp1204
g73
(dp1205
g81
I4
ssg82
Nsg75
(lp1206
g68
(g84
g70
NtRp1207
(dp1208
g73
(dp1209
sg82
g1203
sg75
(lp1210
g68
(g89
g70
NtRp1211
(dp1212
g73
(dp1213
g93
g94
ssg82
g1207
sg75
(lp1214
S'app_folders'
p1215
asbag68
(g89
g70
NtRp1216
(dp1217
g73
(dp1218
g100
g101
ssg82
g1207
sg75
(lp1219
S':'
asbag68
(g89
g70
NtRp1220
(dp1221
g73
(dp1222
sg82
g1207
sg75
(lp1223
g68
(g69
g70
NtRp1224
(dp1225
g73
(dp1226
g81
I4
ssg82
g1220
sg75
(lp1227
S"set(['/home/alumno/web2py/applications/admin/', '/home/alumno/web2py/applications/my_web/', '/home/alumno/web2py/applications/examples/', '/home/alumno/web2py/applications/welcome/', '/home/alumno/web2py/applications/datos/'])"
p1228
asbasbasbag68
(g84
g70
NtRp1229
(dp1230
g73
(dp1231
sg82
g1203
sg75
(lp1232
g68
(g89
g70
NtRp1233
(dp1234
g73
(dp1235
g93
g94
ssg82
g1229
sg75
(lp1236
S'applications_parent'
p1237
asbag68
(g89
g70
NtRp1238
(dp1239
g73
(dp1240
g100
g101
ssg82
g1229
sg75
(lp1241
S':'
asbag68
(g89
g70
NtRp1242
(dp1243
g73
(dp1244
sg82
g1229
sg75
(lp1245
g68
(g69
g70
NtRp1246
(dp1247
g73
(dp1248
g81
I4
ssg82
g1242
sg75
(lp1249
S'/home/alumno/web2py'
p1250
asbasbasbag68
(g84
g70
NtRp1251
(dp1252
g73
(dp1253
sg82
g1203
sg75
(lp1254
g68
(g89
g70
NtRp1255
(dp1256
g73
(dp1257
g93
g94
ssg82
g1251
sg75
(lp1258
S'cmd_args'
p1259
asbag68
(g89
g70
NtRp1260
(dp1261
g73
(dp1262
g100
g101
ssg82
g1251
sg75
(lp1263
S':'
asbag68
(g89
g70
NtRp1264
(dp1265
g73
(dp1266
sg82
g1251
sg75
(lp1267
g68
(g69
g70
NtRp1268
(dp1269
g73
(dp1270
g81
I4
ssg82
g1264
sg75
(lp1271
g68
(g77
g70
NtRp1272
(dp1273
g73
(dp1274
g81
I3
ssg82
Nsg75
(lp1275
sbasbasbasbag68
(g84
g70
NtRp1276
(dp1277
g73
(dp1278
sg82
g1203
sg75
(lp1279
g68
(g89
g70
NtRp1280
(dp1281
g73
(dp1282
g93
g94
ssg82
g1276
sg75
(lp1283
S'cmd_options'
p1284
asbag68
(g89
g70
NtRp1285
(dp1286
g73
(dp1287
g100
g101
ssg82
g1276
sg75
(lp1288
S':'
asbag68
(g89
g70
NtRp1289
(dp1290
g73
(dp1291
sg82
g1276
sg75
(lp1292
g68
(g69
g70
NtRp1293
(dp1294
g73
(dp1295
g81
I4
ssg82
g1289
sg75
(lp1296
S"<Values at 0x98648ac: {'verbose': False, 'ip': '127.0.0.1', 'shutdown_timeout': 5, 'taskbar': False, 'port': 8000, 'maxthreads': None, 'softcron': False, 'server_name': 'ubuntu-dev', 'bpython': False, 'nogui': False, 'nocron': False, 'extcron': False, 'debuglevel': 30, 'test': None, 'folder': '/home/alumno/web2py', 'config': '', 'import_models': False, 'winservice': '', 'shell': None, 'run': '', 'log_filename': 'httpserver.log', 'args': [''], 'profiler_filename': None, 'ssl_private_key': '', 'password': 'conti', 'request_queue_size': 5, 'ssl_certificate': '', 'cronjob': False, 'plain': False, 'quiet': False, 'interfaces': None, 'minthreads': None, 'timeout': 10, 'numthreads': None, 'nobanner': False, 'pid_filename': 'httpserver.pid'}>"
p1297
asbasbasbag68
(g84
g70
NtRp1298
(dp1299
g73
(dp1300
sg82
g1203
sg75
(lp1301
g68
(g89
g70
NtRp1302
(dp1303
g73
(dp1304
g93
g94
ssg82
g1298
sg75
(lp1305
S'db_sessions'
p1306
asbag68
(g89
g70
NtRp1307
(dp1308
g73
(dp1309
g100
g101
ssg82
g1298
sg75
(lp1310
S':'
asbag68
(g89
g70
NtRp1311
(dp1312
g73
(dp1313
sg82
g1298
sg75
(lp1314
g68
(g69
g70
NtRp1315
(dp1316
g73
(dp1317
g81
I4
ssg82
g1311
sg75
(lp1318
S'set([])'
p1319
asbasbasbag68
(g84
g70
NtRp1320
(dp1321
g73
(dp1322
sg82
g1203
sg75
(lp1323
g68
(g89
g70
NtRp1324
(dp1325
g73
(dp1326
g93
g94
ssg82
g1320
sg75
(lp1327
S'debugging'
p1328
asbag68
(g89
g70
NtRp1329
(dp1330
g73
(dp1331
g100
g101
ssg82
g1320
sg75
(lp1332
S':'
asbag68
(g89
g70
NtRp1333
(dp1334
g73
(dp1335
sg82
g1320
sg75
(lp1336
g68
(g69
g70
NtRp1337
(dp1338
g73
(dp1339
g81
I4
ssg82
g1333
sg75
(lp1340
g111
asbasbasbag68
(g84
g70
NtRp1341
(dp1342
g73
(dp1343
sg82
g1203
sg75
(lp1344
g68
(g89
g70
NtRp1345
(dp1346
g73
(dp1347
g93
g94
ssg82
g1341
sg75
(lp1348
S'gluon_parent'
p1349
asbag68
(g89
g70
NtRp1350
(dp1351
g73
(dp1352
g100
g101
ssg82
g1341
sg75
(lp1353
S':'
asbag68
(g89
g70
NtRp1354
(dp1355
g73
(dp1356
sg82
g1341
sg75
(lp1357
g68
(g69
g70
NtRp1358
(dp1359
g73
(dp1360
g81
I4
ssg82
g1354
sg75
(lp1361
S'/home/alumno/web2py'
p1362
asbasbasbag68
(g84
g70
NtRp1363
(dp1364
g73
(dp1365
sg82
g1203
sg75
(lp1366
g68
(g89
g70
NtRp1367
(dp1368
g73
(dp1369
g93
g94
ssg82
g1363
sg75
(lp1370
S'http_accept'
p1371
asbag68
(g89
g70
NtRp1372
(dp1373
g73
(dp1374
g100
g101
ssg82
g1363
sg75
(lp1375
S':'
asbag68
(g89
g70
NtRp1376
(dp1377
g73
(dp1378
sg82
g1363
sg75
(lp1379
g68
(g69
g70
NtRp1380
(dp1381
g73
(dp1382
g81
I4
ssg82
g1376
sg75
(lp1383
S'text/html,application/xhtml+xml,application/xml;q=0.9,*/*;q=0.8'
p1384
asbasbasbag68
(g84
g70
NtRp1385
(dp1386
g73
(dp1387
sg82
g1203
sg75
(lp1388
g68
(g89
g70
NtRp1389
(dp1390
g73
(dp1391
g93
g94
ssg82
g1385
sg75
(lp1392
S'http_accept_charset'
p1393
asbag68
(g89
g70
NtRp1394
(dp1395
g73
(dp1396
g100
g101
ssg82
g1385
sg75
(lp1397
S':'
asbag68
(g89
g70
NtRp1398
(dp1399
g73
(dp1400
sg82
g1385
sg75
(lp1401
g68
(g69
g70
NtRp1402
(dp1403
g73
(dp1404
g81
I4
ssg82
g1398
sg75
(lp1405
S'ISO-8859-1,utf-8;q=0.7,*;q=0.7'
p1406
asbasbasbag68
(g84
g70
NtRp1407
(dp1408
g73
(dp1409
sg82
g1203
sg75
(lp1410
g68
(g89
g70
NtRp1411
(dp1412
g73
(dp1413
g93
g94
ssg82
g1407
sg75
(lp1414
S'http_accept_encoding'
p1415
asbag68
(g89
g70
NtRp1416
(dp1417
g73
(dp1418
g100
g101
ssg82
g1407
sg75
(lp1419
S':'
asbag68
(g89
g70
NtRp1420
(dp1421
g73
(dp1422
sg82
g1407
sg75
(lp1423
g68
(g69
g70
NtRp1424
(dp1425
g73
(dp1426
g81
I4
ssg82
g1420
sg75
(lp1427
S'gzip, deflate'
p1428
asbasbasbag68
(g84
g70
NtRp1429
(dp1430
g73
(dp1431
sg82
g1203
sg75
(lp1432
g68
(g89
g70
NtRp1433
(dp1434
g73
(dp1435
g93
g94
ssg82
g1429
sg75
(lp1436
S'http_accept_language'
p1437
asbag68
(g89
g70
NtRp1438
(dp1439
g73
(dp1440
g100
g101
ssg82
g1429
sg75
(lp1441
S':'
asbag68
(g89
g70
NtRp1442
(dp1443
g73
(dp1444
sg82
g1429
sg75
(lp1445
g68
(g69
g70
NtRp1446
(dp1447
g73
(dp1448
g81
I4
ssg82
g1442
sg75
(lp1449
S'es-ar,es;q=0.8,en-us;q=0.5,en;q=0.3'
p1450
asbasbasbag68
(g84
g70
NtRp1451
(dp1452
g73
(dp1453
sg82
g1203
sg75
(lp1454
g68
(g89
g70
NtRp1455
(dp1456
g73
(dp1457
g93
g94
ssg82
g1451
sg75
(lp1458
S'http_cache_control'
p1459
asbag68
(g89
g70
NtRp1460
(dp1461
g73
(dp1462
g100
g101
ssg82
g1451
sg75
(lp1463
S':'
asbag68
(g89
g70
NtRp1464
(dp1465
g73
(dp1466
sg82
g1451
sg75
(lp1467
g68
(g69
g70
NtRp1468
(dp1469
g73
(dp1470
g81
I4
ssg82
g1464
sg75
(lp1471
S'max-age=0'
p1472
asbasbasbag68
(g84
g70
NtRp1473
(dp1474
g73
(dp1475
sg82
g1203
sg75
(lp1476
g68
(g89
g70
NtRp1477
(dp1478
g73
(dp1479
g93
g94
ssg82
g1473
sg75
(lp1480
S'http_connection'
p1481
asbag68
(g89
g70
NtRp1482
(dp1483
g73
(dp1484
g100
g101
ssg82
g1473
sg75
(lp1485
S':'
asbag68
(g89
g70
NtRp1486
(dp1487
g73
(dp1488
sg82
g1473
sg75
(lp1489
g68
(g69
g70
NtRp1490
(dp1491
g73
(dp1492
g81
I4
ssg82
g1486
sg75
(lp1493
S'keep-alive'
p1494
asbasbasbag68
(g84
g70
NtRp1495
(dp1496
g73
(dp1497
sg82
g1203
sg75
(lp1498
g68
(g89
g70
NtRp1499
(dp1500
g73
(dp1501
g93
g94
ssg82
g1495
sg75
(lp1502
S'http_cookie'
p1503
asbag68
(g89
g70
NtRp1504
(dp1505
g73
(dp1506
g100
g101
ssg82
g1495
sg75
(lp1507
S':'
asbag68
(g89
g70
NtRp1508
(dp1509
g73
(dp1510
sg82
g1495
sg75
(lp1511
g68
(g69
g70
NtRp1512
(dp1513
g73
(dp1514
g81
I4
ssg82
g1508
sg75
(lp1515
S'session_id_welcome=127.0.0.1-824c4b28-21fc-44f0-8193-fa896d0cf2d5; session_id_admin=127.0.0.1-f292cc01-f792-44fe-abe4-b2667851a938; adminLanguage=es-es; session_id_my_web=127.0.0.1-47c190eb-acb3-4e98-b30b-5e2f6df99186; session_id_datos=127.0.0.1-db62c583-5264-4eba-ba24-7cb87b43795a'
p1516
asbasbasbag68
(g84
g70
NtRp1517
(dp1518
g73
(dp1519
sg82
g1203
sg75
(lp1520
g68
(g89
g70
NtRp1521
(dp1522
g73
(dp1523
g93
g94
ssg82
g1517
sg75
(lp1524
S'http_host'
p1525
asbag68
(g89
g70
NtRp1526
(dp1527
g73
(dp1528
g100
g101
ssg82
g1517
sg75
(lp1529
S':'
asbag68
(g89
g70
NtRp1530
(dp1531
g73
(dp1532
sg82
g1517
sg75
(lp1533
g68
(g69
g70
NtRp1534
(dp1535
g73
(dp1536
g81
I4
ssg82
g1530
sg75
(lp1537
S'127.0.0.1:8000'
p1538
asbasbasbag68
(g84
g70
NtRp1539
(dp1540
g73
(dp1541
sg82
g1203
sg75
(lp1542
g68
(g89
g70
NtRp1543
(dp1544
g73
(dp1545
g93
g94
ssg82
g1539
sg75
(lp1546
S'http_user_agent'
p1547
asbag68
(g89
g70
NtRp1548
(dp1549
g73
(dp1550
g100
g101
ssg82
g1539
sg75
(lp1551
S':'
asbag68
(g89
g70
NtRp1552
(dp1553
g73
(dp1554
sg82
g1539
sg75
(lp1555
g68
(g69
g70
NtRp1556
(dp1557
g73
(dp1558
g81
I4
ssg82
g1552
sg75
(lp1559
S'Mozilla/5.0 (X11; Linux i686; rv:6.0) Gecko/20100101 Firefox/6.0'
p1560
asbasbasbag68
(g84
g70
NtRp1561
(dp1562
g73
(dp1563
sg82
g1203
sg75
(lp1564
g68
(g89
g70
NtRp1565
(dp1566
g73
(dp1567
g93
g94
ssg82
g1561
sg75
(lp1568
S'is_jython'
p1569
asbag68
(g89
g70
NtRp1570
(dp1571
g73
(dp1572
g100
g101
ssg82
g1561
sg75
(lp1573
S':'
asbag68
(g89
g70
NtRp1574
(dp1575
g73
(dp1576
sg82
g1561
sg75
(lp1577
g68
(g69
g70
NtRp1578
(dp1579
g73
(dp1580
g81
I4
ssg82
g1574
sg75
(lp1581
g111
asbasbasbag68
(g84
g70
NtRp1582
(dp1583
g73
(dp1584
sg82
g1203
sg75
(lp1585
g68
(g89
g70
NtRp1586
(dp1587
g73
(dp1588
g93
g94
ssg82
g1582
sg75
(lp1589
S'path_info'
p1590
asbag68
(g89
g70
NtRp1591
(dp1592
g73
(dp1593
g100
g101
ssg82
g1582
sg75
(lp1594
S':'
asbag68
(g89
g70
NtRp1595
(dp1596
g73
(dp1597
sg82
g1582
sg75
(lp1598
g68
(g69
g70
NtRp1599
(dp1600
g73
(dp1601
g81
I4
ssg82
g1595
sg75
(lp1602
S'/datos/'
p1603
asbasbasbag68
(g84
g70
NtRp1604
(dp1605
g73
(dp1606
sg82
g1203
sg75
(lp1607
g68
(g89
g70
NtRp1608
(dp1609
g73
(dp1610
g93
g94
ssg82
g1604
sg75
(lp1611
S'query_string'
p1612
asbag68
(g89
g70
NtRp1613
(dp1614
g73
(dp1615
g100
g101
ssg82
g1604
sg75
(lp1616
S':'
asbag68
(g89
g70
NtRp1617
(dp1618
g73
(dp1619
sg82
g1604
sg75
(lp1620
g68
(g69
g70
NtRp1621
(dp1622
g73
(dp1623
g81
I4
ssg82
g1617
sg75
(lp1624
S''
asbasbasbag68
(g84
g70
NtRp1625
(dp1626
g73
(dp1627
sg82
g1203
sg75
(lp1628
g68
(g89
g70
NtRp1629
(dp1630
g73
(dp1631
g93
g94
ssg82
g1625
sg75
(lp1632
S'remote_addr'
p1633
asbag68
(g89
g70
NtRp1634
(dp1635
g73
(dp1636
g100
g101
ssg82
g1625
sg75
(lp1637
S':'
asbag68
(g89
g70
NtRp1638
(dp1639
g73
(dp1640
sg82
g1625
sg75
(lp1641
g68
(g69
g70
NtRp1642
(dp1643
g73
(dp1644
g81
I4
ssg82
g1638
sg75
(lp1645
g201
asbasbasbag68
(g84
g70
NtRp1646
(dp1647
g73
(dp1648
sg82
g1203
sg75
(lp1649
g68
(g89
g70
NtRp1650
(dp1651
g73
(dp1652
g93
g94
ssg82
g1646
sg75
(lp1653
S'remote_port'
p1654
asbag68
(g89
g70
NtRp1655
(dp1656
g73
(dp1657
g100
g101
ssg82
g1646
sg75
(lp1658
S':'
asbag68
(g89
g70
NtRp1659
(dp1660
g73
(dp1661
sg82
g1646
sg75
(lp1662
g68
(g69
g70
NtRp1663
(dp1664
g73
(dp1665
g81
I4
ssg82
g1659
sg75
(lp1666
S'32905'
p1667
asbasbasbag68
(g84
g70
NtRp1668
(dp1669
g73
(dp1670
sg82
g1203
sg75
(lp1671
g68
(g89
g70
NtRp1672
(dp1673
g73
(dp1674
g93
g94
ssg82
g1668
sg75
(lp1675
S'request_method'
p1676
asbag68
(g89
g70
NtRp1677
(dp1678
g73
(dp1679
g100
g101
ssg82
g1668
sg75
(lp1680
S':'
asbag68
(g89
g70
NtRp1681
(dp1682
g73
(dp1683
sg82
g1668
sg75
(lp1684
g68
(g69
g70
NtRp1685
(dp1686
g73
(dp1687
g81
I4
ssg82
g1681
sg75
(lp1688
S'GET'
p1689
asbasbasbag68
(g84
g70
NtRp1690
(dp1691
g73
(dp1692
sg82
g1203
sg75
(lp1693
g68
(g89
g70
NtRp1694
(dp1695
g73
(dp1696
g93
g94
ssg82
g1690
sg75
(lp1697
S'script_name'
p1698
asbag68
(g89
g70
NtRp1699
(dp1700
g73
(dp1701
g100
g101
ssg82
g1690
sg75
(lp1702
S':'
asbag68
(g89
g70
NtRp1703
(dp1704
g73
(dp1705
sg82
g1690
sg75
(lp1706
g68
(g69
g70
NtRp1707
(dp1708
g73
(dp1709
g81
I4
ssg82
g1703
sg75
(lp1710
S''
asbasbasbag68
(g84
g70
NtRp1711
(dp1712
g73
(dp1713
sg82
g1203
sg75
(lp1714
g68
(g89
g70
NtRp1715
(dp1716
g73
(dp1717
g93
g94
ssg82
g1711
sg75
(lp1718
S'server_name'
p1719
asbag68
(g89
g70
NtRp1720
(dp1721
g73
(dp1722
g100
g101
ssg82
g1711
sg75
(lp1723
S':'
asbag68
(g89
g70
NtRp1724
(dp1725
g73
(dp1726
sg82
g1711
sg75
(lp1727
g68
(g69
g70
NtRp1728
(dp1729
g73
(dp1730
g81
I4
ssg82
g1724
sg75
(lp1731
S'ubuntu-dev'
p1732
asbasbasbag68
(g84
g70
NtRp1733
(dp1734
g73
(dp1735
sg82
g1203
sg75
(lp1736
g68
(g89
g70
NtRp1737
(dp1738
g73
(dp1739
g93
g94
ssg82
g1733
sg75
(lp1740
S'server_port'
p1741
asbag68
(g89
g70
NtRp1742
(dp1743
g73
(dp1744
g100
g101
ssg82
g1733
sg75
(lp1745
S':'
asbag68
(g89
g70
NtRp1746
(dp1747
g73
(dp1748
sg82
g1733
sg75
(lp1749
g68
(g69
g70
NtRp1750
(dp1751
g73
(dp1752
g81
I4
ssg82
g1746
sg75
(lp1753
S'8000'
p1754
asbasbasbag68
(g84
g70
NtRp1755
(dp1756
g73
(dp1757
sg82
g1203
sg75
(lp1758
g68
(g89
g70
NtRp1759
(dp1760
g73
(dp1761
g93
g94
ssg82
g1755
sg75
(lp1762
S'server_protocol'
p1763
asbag68
(g89
g70
NtRp1764
(dp1765
g73
(dp1766
g100
g101
ssg82
g1755
sg75
(lp1767
S':'
asbag68
(g89
g70
NtRp1768
(dp1769
g73
(dp1770
sg82
g1755
sg75
(lp1771
g68
(g69
g70
NtRp1772
(dp1773
g73
(dp1774
g81
I4
ssg82
g1768
sg75
(lp1775
S'HTTP/1.1'
p1776
asbasbasbag68
(g84
g70
NtRp1777
(dp1778
g73
(dp1779
sg82
g1203
sg75
(lp1780
g68
(g89
g70
NtRp1781
(dp1782
g73
(dp1783
g93
g94
ssg82
g1777
sg75
(lp1784
S'server_software'
p1785
asbag68
(g89
g70
NtRp1786
(dp1787
g73
(dp1788
g100
g101
ssg82
g1777
sg75
(lp1789
S':'
asbag68
(g89
g70
NtRp1790
(dp1791
g73
(dp1792
sg82
g1777
sg75
(lp1793
g68
(g69
g70
NtRp1794
(dp1795
g73
(dp1796
g81
I4
ssg82
g1790
sg75
(lp1797
S'Rocket 1.2.2'
p1798
asbasbasbag68
(g84
g70
NtRp1799
(dp1800
g73
(dp1801
sg82
g1203
sg75
(lp1802
g68
(g89
g70
NtRp1803
(dp1804
g73
(dp1805
g93
g94
ssg82
g1799
sg75
(lp1806
S'web2py_crontype'
p1807
asbag68
(g89
g70
NtRp1808
(dp1809
g73
(dp1810
g100
g101
ssg82
g1799
sg75
(lp1811
S':'
asbag68
(g89
g70
NtRp1812
(dp1813
g73
(dp1814
sg82
g1799
sg75
(lp1815
g68
(g69
g70
NtRp1816
(dp1817
g73
(dp1818
g81
I4
ssg82
g1812
sg75
(lp1819
S'hard'
p1820
asbasbasbag68
(g84
g70
NtRp1821
(dp1822
g73
(dp1823
sg82
g1203
sg75
(lp1824
g68
(g89
g70
NtRp1825
(dp1826
g73
(dp1827
g93
g94
ssg82
g1821
sg75
(lp1828
S'web2py_path'
p1829
asbag68
(g89
g70
NtRp1830
(dp1831
g73
(dp1832
g100
g101
ssg82
g1821
sg75
(lp1833
S':'
asbag68
(g89
g70
NtRp1834
(dp1835
g73
(dp1836
sg82
g1821
sg75
(lp1837
g68
(g69
g70
NtRp1838
(dp1839
g73
(dp1840
g81
I4
ssg82
g1834
sg75
(lp1841
g1250
asbasbasbag68
(g84
g70
NtRp1842
(dp1843
g73
(dp1844
sg82
g1203
sg75
(lp1845
g68
(g89
g70
NtRp1846
(dp1847
g73
(dp1848
g93
g94
ssg82
g1842
sg75
(lp1849
S'web2py_version'
p1850
asbag68
(g89
g70
NtRp1851
(dp1852
g73
(dp1853
g100
g101
ssg82
g1842
sg75
(lp1854
S':'
asbag68
(g89
g70
NtRp1855
(dp1856
g73
(dp1857
sg82
g1842
sg75
(lp1858
g68
(g69
g70
NtRp1859
(dp1860
g73
(dp1861
g81
I4
ssg82
g1855
sg75
(lp1862
S'Version 1.98.2 (2011-08-04 00:47:09)\n'
p1863
asbasbasbag68
(g84
g70
NtRp1864
(dp1865
g73
(dp1866
sg82
g1203
sg75
(lp1867
g68
(g89
g70
NtRp1868
(dp1869
g73
(dp1870
g93
g94
ssg82
g1864
sg75
(lp1871
S'wsgi_errors'
p1872
asbag68
(g89
g70
NtRp1873
(dp1874
g73
(dp1875
g100
g101
ssg82
g1864
sg75
(lp1876
S':'
asbag68
(g89
g70
NtRp1877
(dp1878
g73
(dp1879
sg82
g1864
sg75
(lp1880
g68
(g69
g70
NtRp1881
(dp1882
g73
(dp1883
g81
I4
ssg82
g1877
sg75
(lp1884
S"<open file '<stderr>', mode 'w' at 0xb76e20d0>"
p1885
asbasbasbag68
(g84
g70
NtRp1886
(dp1887
g73
(dp1888
sg82
g1203
sg75
(lp1889
g68
(g89
g70
NtRp1890
(dp1891
g73
(dp1892
g93
g94
ssg82
g1886
sg75
(lp1893
S'wsgi_file_wrapper'
p1894
asbag68
(g89
g70
NtRp1895
(dp1896
g73
(dp1897
g100
g101
ssg82
g1886
sg75
(lp1898
S':'
asbag68
(g89
g70
NtRp1899
(dp1900
g73
(dp1901
sg82
g1886
sg75
(lp1902
g68
(g69
g70
NtRp1903
(dp1904
g73
(dp1905
g81
I4
ssg82
g1899
sg75
(lp1906
S'<class gluon.rocket.FileWrapper at 0x96a132c>'
p1907
asbasbasbag68
(g84
g70
NtRp1908
(dp1909
g73
(dp1910
sg82
g1203
sg75
(lp1911
g68
(g89
g70
NtRp1912
(dp1913
g73
(dp1914
g93
g94
ssg82
g1908
sg75
(lp1915
S'wsgi_input'
p1916
asbag68
(g89
g70
NtRp1917
(dp1918
g73
(dp1919
g100
g101
ssg82
g1908
sg75
(lp1920
S':'
asbag68
(g89
g70
NtRp1921
(dp1922
g73
(dp1923
sg82
g1908
sg75
(lp1924
g68
(g69
g70
NtRp1925
(dp1926
g73
(dp1927
g81
I4
ssg82
g1921
sg75
(lp1928
S'<socket._fileobject object at 0xa07a02c>'
p1929
asbasbasbag68
(g84
g70
NtRp1930
(dp1931
g73
(dp1932
sg82
g1203
sg75
(lp1933
g68
(g89
g70
NtRp1934
(dp1935
g73
(dp1936
g93
g94
ssg82
g1930
sg75
(lp1937
S'wsgi_multiprocess'
p1938
asbag68
(g89
g70
NtRp1939
(dp1940
g73
(dp1941
g100
g101
ssg82
g1930
sg75
(lp1942
S':'
asbag68
(g89
g70
NtRp1943
(dp1944
g73
(dp1945
sg82
g1930
sg75
(lp1946
g68
(g69
g70
NtRp1947
(dp1948
g73
(dp1949
g81
I4
ssg82
g1943
sg75
(lp1950
g111
asbasbasbag68
(g84
g70
NtRp1951
(dp1952
g73
(dp1953
sg82
g1203
sg75
(lp1954
g68
(g89
g70
NtRp1955
(dp1956
g73
(dp1957
g93
g94
ssg82
g1951
sg75
(lp1958
S'wsgi_multithread'
p1959
asbag68
(g89
g70
NtRp1960
(dp1961
g73
(dp1962
g100
g101
ssg82
g1951
sg75
(lp1963
S':'
asbag68
(g89
g70
NtRp1964
(dp1965
g73
(dp1966
sg82
g1951
sg75
(lp1967
g68
(g69
g70
NtRp1968
(dp1969
g73
(dp1970
g81
I4
ssg82
g1964
sg75
(lp1971
S'True'
p1972
asbasbasbag68
(g84
g70
NtRp1973
(dp1974
g73
(dp1975
sg82
g1203
sg75
(lp1976
g68
(g89
g70
NtRp1977
(dp1978
g73
(dp1979
g93
g94
ssg82
g1973
sg75
(lp1980
S'wsgi_run_once'
p1981
asbag68
(g89
g70
NtRp1982
(dp1983
g73
(dp1984
g100
g101
ssg82
g1973
sg75
(lp1985
S':'
asbag68
(g89
g70
NtRp1986
(dp1987
g73
(dp1988
sg82
g1973
sg75
(lp1989
g68
(g69
g70
NtRp1990
(dp1991
g73
(dp1992
g81
I4
ssg82
g1986
sg75
(lp1993
g111
asbasbasbag68
(g84
g70
NtRp1994
(dp1995
g73
(dp1996
sg82
g1203
sg75
(lp1997
g68
(g89
g70
NtRp1998
(dp1999
g73
(dp2000
g93
g94
ssg82
g1994
sg75
(lp2001
S'wsgi_url_scheme'
p2002
asbag68
(g89
g70
NtRp2003
(dp2004
g73
(dp2005
g100
g101
ssg82
g1994
sg75
(lp2006
S':'
asbag68
(g89
g70
NtRp2007
(dp2008
g73
(dp2009
sg82
g1994
sg75
(lp2010
g68
(g69
g70
NtRp2011
(dp2012
g73
(dp2013
g81
I4
ssg82
g2007
sg75
(lp2014
S'http'
p2015
asbasbasbag68
(g84
g70
NtRp2016
(dp2017
g73
(dp2018
sg82
g1203
sg75
(lp2019
g68
(g89
g70
NtRp2020
(dp2021
g73
(dp2022
g93
g94
ssg82
g2016
sg75
(lp2023
S'wsgi_version'
p2024
asbag68
(g89
g70
NtRp2025
(dp2026
g73
(dp2027
g100
g101
ssg82
g2016
sg75
(lp2028
S':'
asbag68
(g89
g70
NtRp2029
(dp2030
g73
(dp2031
sg82
g2016
sg75
(lp2032
g68
(g69
g70
NtRp2033
(dp2034
g73
(dp2035
g81
I4
ssg82
g2029
sg75
(lp2036
g68
(g77
g70
NtRp2037
(dp2038
g73
(dp2039
g81
I3
ssg82
Nsg75
(lp2040
g68
(g84
g70
NtRp2041
(dp2042
g73
(dp2043
sg82
g2037
sg75
(lp2044
g68
(g89
g70
NtRp2045
(dp2046
g73
(dp2047
sg82
g2041
sg75
(lp2048
g68
(g69
g70
NtRp2049
(dp2050
g73
(dp2051
g81
I3
ssg82
g2045
sg75
(lp2052
S'1'
asbasbasbag68
(g84
g70
NtRp2053
(dp2054
g73
(dp2055
sg82
g2037
sg75
(lp2056
g68
(g89
g70
NtRp2057
(dp2058
g73
(dp2059
sg82
g2053
sg75
(lp2060
g68
(g69
g70
NtRp2061
(dp2062
g73
(dp2063
g81
I3
ssg82
g2057
sg75
(lp2064
S'0'
asbasbasbasbasbasbasbasbasbasbasbag68
(g84
g70
NtRp2065
(dp2066
g73
(dp2067
sg82
g78
sg75
(lp2068
g68
(g89
g70
NtRp2069
(dp2070
g73
(dp2071
g93
g94
ssg82
g2065
sg75
(lp2072
S'extension'
p2073
asbag68
(g89
g70
NtRp2074
(dp2075
g73
(dp2076
g100
g101
ssg82
g2065
sg75
(lp2077
S':'
asbag68
(g89
g70
NtRp2078
(dp2079
g73
(dp2080
sg82
g2065
sg75
(lp2081
g68
(g69
g70
NtRp2082
(dp2083
g73
(dp2084
g81
I5
ssg82
g2078
sg75
(lp2085
S'html'
p2086
asbasbasbag68
(g84
g70
NtRp2087
(dp2088
g73
(dp2089
sg82
g78
sg75
(lp2090
g68
(g89
g70
NtRp2091
(dp2092
g73
(dp2093
g93
g94
ssg82
g2087
sg75
(lp2094
S'folder'
p2095
asbag68
(g89
g70
NtRp2096
(dp2097
g73
(dp2098
g100
g101
ssg82
g2087
sg75
(lp2099
S':'
asbag68
(g89
g70
NtRp2100
(dp2101
g73
(dp2102
sg82
g2087
sg75
(lp2103
g68
(g69
g70
NtRp2104
(dp2105
g73
(dp2106
g81
I5
ssg82
g2100
sg75
(lp2107
S'/home/alumno/web2py/applications/datos/'
p2108
asbasbasbag68
(g84
g70
NtRp2109
(dp2110
g73
(dp2111
sg82
g78
sg75
(lp2112
g68
(g89
g70
NtRp2113
(dp2114
g73
(dp2115
g93
g94
ssg82
g2109
sg75
(lp2116
S'function'
p2117
asbag68
(g89
g70
NtRp2118
(dp2119
g73
(dp2120
g100
g101
ssg82
g2109
sg75
(lp2121
S':'
asbag68
(g89
g70
NtRp2122
(dp2123
g73
(dp2124
sg82
g2109
sg75
(lp2125
g68
(g69
g70
NtRp2126
(dp2127
g73
(dp2128
g81
I5
ssg82
g2122
sg75
(lp2129
S'index'
p2130
asbasbasbag68
(g84
g70
NtRp2131
(dp2132
g73
(dp2133
sg82
g78
sg75
(lp2134
g68
(g89
g70
NtRp2135
(dp2136
g73
(dp2137
g93
g94
ssg82
g2131
sg75
(lp2138
S'get_vars'
p2139
asbag68
(g89
g70
NtRp2140
(dp2141
g73
(dp2142
g100
g101
ssg82
g2131
sg75
(lp2143
S':'
asbag68
(g89
g70
NtRp2144
(dp2145
g73
(dp2146
sg82
g2131
sg75
(lp2147
g68
(g69
g70
NtRp2148
(dp2149
g73
(dp2150
g81
I5
ssg82
g2144
sg75
(lp2151
g68
(g77
g70
NtRp2152
(dp2153
g73
(dp2154
g81
I4
ssg82
Nsg75
(lp2155
sbasbasbasbag68
(g84
g70
NtRp2156
(dp2157
g73
(dp2158
sg82
g78
sg75
(lp2159
g68
(g89
g70
NtRp2160
(dp2161
g73
(dp2162
g93
g94
ssg82
g2156
sg75
(lp2163
S'is_https'
p2164
asbag68
(g89
g70
NtRp2165
(dp2166
g73
(dp2167
g100
g101
ssg82
g2156
sg75
(lp2168
S':'
asbag68
(g89
g70
NtRp2169
(dp2170
g73
(dp2171
sg82
g2156
sg75
(lp2172
g68
(g69
g70
NtRp2173
(dp2174
g73
(dp2175
g81
I5
ssg82
g2169
sg75
(lp2176
g111
asbasbasbag68
(g84
g70
NtRp2177
(dp2178
g73
(dp2179
sg82
g78
sg75
(lp2180
g68
(g89
g70
NtRp2181
(dp2182
g73
(dp2183
g93
g94
ssg82
g2177
sg75
(lp2184
S'is_local'
p2185
asbag68
(g89
g70
NtRp2186
(dp2187
g73
(dp2188
g100
g101
ssg82
g2177
sg75
(lp2189
S':'
asbag68
(g89
g70
NtRp2190
(dp2191
g73
(dp2192
sg82
g2177
sg75
(lp2193
g68
(g69
g70
NtRp2194
(dp2195
g73
(dp2196
g81
I5
ssg82
g2190
sg75
(lp2197
g1972
asbasbasbag68
(g84
g70
NtRp2198
(dp2199
g73
(dp2200
sg82
g78
sg75
(lp2201
g68
(g89
g70
NtRp2202
(dp2203
g73
(dp2204
g93
g94
ssg82
g2198
sg75
(lp2205
S'is_restful'
p2206
asbag68
(g89
g70
NtRp2207
(dp2208
g73
(dp2209
g100
g101
ssg82
g2198
sg75
(lp2210
S':'
asbag68
(g89
g70
NtRp2211
(dp2212
g73
(dp2213
sg82
g2198
sg75
(lp2214
g68
(g69
g70
NtRp2215
(dp2216
g73
(dp2217
g81
I5
ssg82
g2211
sg75
(lp2218
g111
asbasbasbag68
(g84
g70
NtRp2219
(dp2220
g73
(dp2221
sg82
g78
sg75
(lp2222
g68
(g89
g70
NtRp2223
(dp2224
g73
(dp2225
g93
g94
ssg82
g2219
sg75
(lp2226
S'now'
p2227
asbag68
(g89
g70
NtRp2228
(dp2229
g73
(dp2230
g100
g101
ssg82
g2219
sg75
(lp2231
S':'
asbag68
(g89
g70
NtRp2232
(dp2233
g73
(dp2234
sg82
g2219
sg75
(lp2235
g68
(g69
g70
NtRp2236
(dp2237
g73
(dp2238
g81
I5
ssg82
g2232
sg75
(lp2239
S'datetime.datetime(2011, 9, 7, 19, 56, 46, 345866)'
p2240
asbasbasbag68
(g84
g70
NtRp2241
(dp2242
g73
(dp2243
sg82
g78
sg75
(lp2244
g68
(g89
g70
NtRp2245
(dp2246
g73
(dp2247
g93
g94
ssg82
g2241
sg75
(lp2248
S'post_vars'
p2249
asbag68
(g89
g70
NtRp2250
(dp2251
g73
(dp2252
g100
g101
ssg82
g2241
sg75
(lp2253
S':'
asbag68
(g89
g70
NtRp2254
(dp2255
g73
(dp2256
sg82
g2241
sg75
(lp2257
g68
(g69
g70
NtRp2258
(dp2259
g73
(dp2260
g81
I5
ssg82
g2254
sg75
(lp2261
g68
(g77
g70
NtRp2262
(dp2263
g73
(dp2264
g81
I4
ssg82
Nsg75
(lp2265
sbasbasbasbag68
(g84
g70
NtRp2266
(dp2267
g73
(dp2268
sg82
g78
sg75
(lp2269
g68
(g89
g70
NtRp2270
(dp2271
g73
(dp2272
g93
g94
ssg82
g2266
sg75
(lp2273
S'url'
p2274
asbag68
(g89
g70
NtRp2275
(dp2276
g73
(dp2277
g100
g101
ssg82
g2266
sg75
(lp2278
S':'
asbag68
(g89
g70
NtRp2279
(dp2280
g73
(dp2281
sg82
g2266
sg75
(lp2282
g68
(g69
g70
NtRp2283
(dp2284
g73
(dp2285
g81
I5
ssg82
g2279
sg75
(lp2286
S'/datos/default/index'
p2287
asbasbasbag68
(g84
g70
NtRp2288
(dp2289
g73
(dp2290
sg82
g78
sg75
(lp2291
g68
(g89
g70
NtRp2292
(dp2293
g73
(dp2294
g93
g94
ssg82
g2288
sg75
(lp2295
S'uuid'
p2296
asbag68
(g89
g70
NtRp2297
(dp2298
g73
(dp2299
g100
g101
ssg82
g2288
sg75
(lp2300
S':'
asbag68
(g89
g70
NtRp2301
(dp2302
g73
(dp2303
sg82
g2288
sg75
(lp2304
g68
(g69
g70
NtRp2305
(dp2306
g73
(dp2307
g81
I5
ssg82
g2301
sg75
(lp2308
S'datos/127.0.0.1.2011-09-07.19-56-46.906aba84-f408-4982-a1b5-2cbfc3203468'
p2309
asbasbasbag68
(g84
g70
NtRp2310
(dp2311
g73
(dp2312
sg82
g78
sg75
(lp2313
g68
(g89
g70
NtRp2314
(dp2315
g73
(dp2316
g93
g94
ssg82
g2310
sg75
(lp2317
S'vars'
p2318
asbag68
(g89
g70
NtRp2319
(dp2320
g73
(dp2321
g100
g101
ssg82
g2310
sg75
(lp2322
S':'
asbag68
(g89
g70
NtRp2323
(dp2324
g73
(dp2325
sg82
g2310
sg75
(lp2326
g68
(g69
g70
NtRp2327
(dp2328
g73
(dp2329
g81
I5
ssg82
g2323
sg75
(lp2330
g68
(g77
g70
NtRp2331
(dp2332
g73
(dp2333
g81
I4
ssg82
Nsg75
(lp2334
sbasbasbasbag68
(g84
g70
NtRp2335
(dp2336
g73
(dp2337
sg82
g78
sg75
(lp2338
g68
(g89
g70
NtRp2339
(dp2340
g73
(dp2341
g93
g94
ssg82
g2335
sg75
(lp2342
S'wsgi'
p2343
asbag68
(g89
g70
NtRp2344
(dp2345
g73
(dp2346
g100
g101
ssg82
g2335
sg75
(lp2347
S':'
asbag68
(g89
g70
NtRp2348
(dp2349
g73
(dp2350
sg82
g2335
sg75
(lp2351
g68
(g69
g70
NtRp2352
(dp2353
g73
(dp2354
g81
I5
ssg82
g2348
sg75
(lp2355
g68
(g77
g70
NtRp2356
(dp2357
g73
(dp2358
g81
I4
ssg82
Nsg75
(lp2359
g68
(g84
g70
NtRp2360
(dp2361
g73
(dp2362
sg82
g2356
sg75
(lp2363
g68
(g89
g70
NtRp2364
(dp2365
g73
(dp2366
g93
g94
ssg82
g2360
sg75
(lp2367
S'environ'
p2368
asbag68
(g89
g70
NtRp2369
(dp2370
g73
(dp2371
g100
g101
ssg82
g2360
sg75
(lp2372
S':'
asbag68
(g89
g70
NtRp2373
(dp2374
g73
(dp2375
sg82
g2360
sg75
(lp2376
g68
(g69
g70
NtRp2377
(dp2378
g73
(dp2379
g81
I4
ssg82
g2373
sg75
(lp2380
g68
(g77
g70
NtRp2381
(dp2382
g73
(dp2383
g81
I3
ssg82
Nsg75
(lp2384
g68
(g84
g70
NtRp2385
(dp2386
g73
(dp2387
sg82
g2381
sg75
(lp2388
g68
(g89
g70
NtRp2389
(dp2390
g73
(dp2391
g93
g94
ssg82
g2385
sg75
(lp2392
S'HTTP_ACCEPT'
p2393
asbag68
(g89
g70
NtRp2394
(dp2395
g73
(dp2396
g100
g101
ssg82
g2385
sg75
(lp2397
S':'
asbag68
(g89
g70
NtRp2398
(dp2399
g73
(dp2400
sg82
g2385
sg75
(lp2401
g68
(g69
g70
NtRp2402
(dp2403
g73
(dp2404
g81
I3
ssg82
g2398
sg75
(lp2405
g1384
asbasbasbag68
(g84
g70
NtRp2406
(dp2407
g73
(dp2408
sg82
g2381
sg75
(lp2409
g68
(g89
g70
NtRp2410
(dp2411
g73
(dp2412
g93
g94
ssg82
g2406
sg75
(lp2413
S'HTTP_ACCEPT_CHARSET'
p2414
asbag68
(g89
g70
NtRp2415
(dp2416
g73
(dp2417
g100
g101
ssg82
g2406
sg75
(lp2418
S':'
asbag68
(g89
g70
NtRp2419
(dp2420
g73
(dp2421
sg82
g2406
sg75
(lp2422
g68
(g69
g70
NtRp2423
(dp2424
g73
(dp2425
g81
I3
ssg82
g2419
sg75
(lp2426
g1406
asbasbasbag68
(g84
g70
NtRp2427
(dp2428
g73
(dp2429
sg82
g2381
sg75
(lp2430
g68
(g89
g70
NtRp2431
(dp2432
g73
(dp2433
g93
g94
ssg82
g2427
sg75
(lp2434
S'HTTP_ACCEPT_ENCODING'
p2435
asbag68
(g89
g70
NtRp2436
(dp2437
g73
(dp2438
g100
g101
ssg82
g2427
sg75
(lp2439
S':'
asbag68
(g89
g70
NtRp2440
(dp2441
g73
(dp2442
sg82
g2427
sg75
(lp2443
g68
(g69
g70
NtRp2444
(dp2445
g73
(dp2446
g81
I3
ssg82
g2440
sg75
(lp2447
g1428
asbasbasbag68
(g84
g70
NtRp2448
(dp2449
g73
(dp2450
sg82
g2381
sg75
(lp2451
g68
(g89
g70
NtRp2452
(dp2453
g73
(dp2454
g93
g94
ssg82
g2448
sg75
(lp2455
S'HTTP_ACCEPT_LANGUAGE'
p2456
asbag68
(g89
g70
NtRp2457
(dp2458
g73
(dp2459
g100
g101
ssg82
g2448
sg75
(lp2460
S':'
asbag68
(g89
g70
NtRp2461
(dp2462
g73
(dp2463
sg82
g2448
sg75
(lp2464
g68
(g69
g70
NtRp2465
(dp2466
g73
(dp2467
g81
I3
ssg82
g2461
sg75
(lp2468
g1450
asbasbasbag68
(g84
g70
NtRp2469
(dp2470
g73
(dp2471
sg82
g2381
sg75
(lp2472
g68
(g89
g70
NtRp2473
(dp2474
g73
(dp2475
g93
g94
ssg82
g2469
sg75
(lp2476
S'HTTP_CACHE_CONTROL'
p2477
asbag68
(g89
g70
NtRp2478
(dp2479
g73
(dp2480
g100
g101
ssg82
g2469
sg75
(lp2481
S':'
asbag68
(g89
g70
NtRp2482
(dp2483
g73
(dp2484
sg82
g2469
sg75
(lp2485
g68
(g69
g70
NtRp2486
(dp2487
g73
(dp2488
g81
I3
ssg82
g2482
sg75
(lp2489
g1472
asbasbasbag68
(g84
g70
NtRp2490
(dp2491
g73
(dp2492
sg82
g2381
sg75
(lp2493
g68
(g89
g70
NtRp2494
(dp2495
g73
(dp2496
g93
g94
ssg82
g2490
sg75
(lp2497
S'HTTP_CONNECTION'
p2498
asbag68
(g89
g70
NtRp2499
(dp2500
g73
(dp2501
g100
g101
ssg82
g2490
sg75
(lp2502
S':'
asbag68
(g89
g70
NtRp2503
(dp2504
g73
(dp2505
sg82
g2490
sg75
(lp2506
g68
(g69
g70
NtRp2507
(dp2508
g73
(dp2509
g81
I3
ssg82
g2503
sg75
(lp2510
g1494
asbasbasbag68
(g84
g70
NtRp2511
(dp2512
g73
(dp2513
sg82
g2381
sg75
(lp2514
g68
(g89
g70
NtRp2515
(dp2516
g73
(dp2517
g93
g94
ssg82
g2511
sg75
(lp2518
S'HTTP_COOKIE'
p2519
asbag68
(g89
g70
NtRp2520
(dp2521
g73
(dp2522
g100
g101
ssg82
g2511
sg75
(lp2523
S':'
asbag68
(g89
g70
NtRp2524
(dp2525
g73
(dp2526
sg82
g2511
sg75
(lp2527
g68
(g69
g70
NtRp2528
(dp2529
g73
(dp2530
g81
I3
ssg82
g2524
sg75
(lp2531
g1516
asbasbasbag68
(g84
g70
NtRp2532
(dp2533
g73
(dp2534
sg82
g2381
sg75
(lp2535
g68
(g89
g70
NtRp2536
(dp2537
g73
(dp2538
g93
g94
ssg82
g2532
sg75
(lp2539
S'HTTP_HOST'
p2540
asbag68
(g89
g70
NtRp2541
(dp2542
g73
(dp2543
g100
g101
ssg82
g2532
sg75
(lp2544
S':'
asbag68
(g89
g70
NtRp2545
(dp2546
g73
(dp2547
sg82
g2532
sg75
(lp2548
g68
(g69
g70
NtRp2549
(dp2550
g73
(dp2551
g81
I3
ssg82
g2545
sg75
(lp2552
g1538
asbasbasbag68
(g84
g70
NtRp2553
(dp2554
g73
(dp2555
sg82
g2381
sg75
(lp2556
g68
(g89
g70
NtRp2557
(dp2558
g73
(dp2559
g93
g94
ssg82
g2553
sg75
(lp2560
S'HTTP_USER_AGENT'
p2561
asbag68
(g89
g70
NtRp2562
(dp2563
g73
(dp2564
g100
g101
ssg82
g2553
sg75
(lp2565
S':'
asbag68
(g89
g70
NtRp2566
(dp2567
g73
(dp2568
sg82
g2553
sg75
(lp2569
g68
(g69
g70
NtRp2570
(dp2571
g73
(dp2572
g81
I3
ssg82
g2566
sg75
(lp2573
g1560
asbasbasbag68
(g84
g70
NtRp2574
(dp2575
g73
(dp2576
sg82
g2381
sg75
(lp2577
g68
(g89
g70
NtRp2578
(dp2579
g73
(dp2580
g93
g94
ssg82
g2574
sg75
(lp2581
S'PATH_INFO'
p2582
asbag68
(g89
g70
NtRp2583
(dp2584
g73
(dp2585
g100
g101
ssg82
g2574
sg75
(lp2586
S':'
asbag68
(g89
g70
NtRp2587
(dp2588
g73
(dp2589
sg82
g2574
sg75
(lp2590
g68
(g69
g70
NtRp2591
(dp2592
g73
(dp2593
g81
I3
ssg82
g2587
sg75
(lp2594
g1603
asbasbasbag68
(g84
g70
NtRp2595
(dp2596
g73
(dp2597
sg82
g2381
sg75
(lp2598
g68
(g89
g70
NtRp2599
(dp2600
g73
(dp2601
g93
g94
ssg82
g2595
sg75
(lp2602
S'QUERY_STRING'
p2603
asbag68
(g89
g70
NtRp2604
(dp2605
g73
(dp2606
g100
g101
ssg82
g2595
sg75
(lp2607
S':'
asbag68
(g89
g70
NtRp2608
(dp2609
g73
(dp2610
sg82
g2595
sg75
(lp2611
g68
(g69
g70
NtRp2612
(dp2613
g73
(dp2614
g81
I3
ssg82
g2608
sg75
(lp2615
S''
asbasbasbag68
(g84
g70
NtRp2616
(dp2617
g73
(dp2618
sg82
g2381
sg75
(lp2619
g68
(g89
g70
NtRp2620
(dp2621
g73
(dp2622
g93
g94
ssg82
g2616
sg75
(lp2623
S'REMOTE_ADDR'
p2624
asbag68
(g89
g70
NtRp2625
(dp2626
g73
(dp2627
g100
g101
ssg82
g2616
sg75
(lp2628
S':'
asbag68
(g89
g70
NtRp2629
(dp2630
g73
(dp2631
sg82
g2616
sg75
(lp2632
g68
(g69
g70
NtRp2633
(dp2634
g73
(dp2635
g81
I3
ssg82
g2629
sg75
(lp2636
g201
asbasbasbag68
(g84
g70
NtRp2637
(dp2638
g73
(dp2639
sg82
g2381
sg75
(lp2640
g68
(g89
g70
NtRp2641
(dp2642
g73
(dp2643
g93
g94
ssg82
g2637
sg75
(lp2644
S'REMOTE_PORT'
p2645
asbag68
(g89
g70
NtRp2646
(dp2647
g73
(dp2648
g100
g101
ssg82
g2637
sg75
(lp2649
S':'
asbag68
(g89
g70
NtRp2650
(dp2651
g73
(dp2652
sg82
g2637
sg75
(lp2653
g68
(g69
g70
NtRp2654
(dp2655
g73
(dp2656
g81
I3
ssg82
g2650
sg75
(lp2657
g1667
asbasbasbag68
(g84
g70
NtRp2658
(dp2659
g73
(dp2660
sg82
g2381
sg75
(lp2661
g68
(g89
g70
NtRp2662
(dp2663
g73
(dp2664
g93
g94
ssg82
g2658
sg75
(lp2665
S'REQUEST_METHOD'
p2666
asbag68
(g89
g70
NtRp2667
(dp2668
g73
(dp2669
g100
g101
ssg82
g2658
sg75
(lp2670
S':'
asbag68
(g89
g70
NtRp2671
(dp2672
g73
(dp2673
sg82
g2658
sg75
(lp2674
g68
(g69
g70
NtRp2675
(dp2676
g73
(dp2677
g81
I3
ssg82
g2671
sg75
(lp2678
g1689
asbasbasbag68
(g84
g70
NtRp2679
(dp2680
g73
(dp2681
sg82
g2381
sg75
(lp2682
g68
(g89
g70
NtRp2683
(dp2684
g73
(dp2685
g93
g94
ssg82
g2679
sg75
(lp2686
S'SCRIPT_NAME'
p2687
asbag68
(g89
g70
NtRp2688
(dp2689
g73
(dp2690
g100
g101
ssg82
g2679
sg75
(lp2691
S':'
asbag68
(g89
g70
NtRp2692
(dp2693
g73
(dp2694
sg82
g2679
sg75
(lp2695
g68
(g69
g70
NtRp2696
(dp2697
g73
(dp2698
g81
I3
ssg82
g2692
sg75
(lp2699
S''
asbasbasbag68
(g84
g70
NtRp2700
(dp2701
g73
(dp2702
sg82
g2381
sg75
(lp2703
g68
(g89
g70
NtRp2704
(dp2705
g73
(dp2706
g93
g94
ssg82
g2700
sg75
(lp2707
S'SERVER_NAME'
p2708
asbag68
(g89
g70
NtRp2709
(dp2710
g73
(dp2711
g100
g101
ssg82
g2700
sg75
(lp2712
S':'
asbag68
(g89
g70
NtRp2713
(dp2714
g73
(dp2715
sg82
g2700
sg75
(lp2716
g68
(g69
g70
NtRp2717
(dp2718
g73
(dp2719
g81
I3
ssg82
g2713
sg75
(lp2720
g1732
asbasbasbag68
(g84
g70
NtRp2721
(dp2722
g73
(dp2723
sg82
g2381
sg75
(lp2724
g68
(g89
g70
NtRp2725
(dp2726
g73
(dp2727
g93
g94
ssg82
g2721
sg75
(lp2728
S'SERVER_PORT'
p2729
asbag68
(g89
g70
NtRp2730
(dp2731
g73
(dp2732
g100
g101
ssg82
g2721
sg75
(lp2733
S':'
asbag68
(g89
g70
NtRp2734
(dp2735
g73
(dp2736
sg82
g2721
sg75
(lp2737
g68
(g69
g70
NtRp2738
(dp2739
g73
(dp2740
g81
I3
ssg82
g2734
sg75
(lp2741
g1754
asbasbasbag68
(g84
g70
NtRp2742
(dp2743
g73
(dp2744
sg82
g2381
sg75
(lp2745
g68
(g89
g70
NtRp2746
(dp2747
g73
(dp2748
g93
g94
ssg82
g2742
sg75
(lp2749
S'SERVER_PROTOCOL'
p2750
asbag68
(g89
g70
NtRp2751
(dp2752
g73
(dp2753
g100
g101
ssg82
g2742
sg75
(lp2754
S':'
asbag68
(g89
g70
NtRp2755
(dp2756
g73
(dp2757
sg82
g2742
sg75
(lp2758
g68
(g69
g70
NtRp2759
(dp2760
g73
(dp2761
g81
I3
ssg82
g2755
sg75
(lp2762
g1776
asbasbasbag68
(g84
g70
NtRp2763
(dp2764
g73
(dp2765
sg82
g2381
sg75
(lp2766
g68
(g89
g70
NtRp2767
(dp2768
g73
(dp2769
g93
g94
ssg82
g2763
sg75
(lp2770
S'SERVER_SOFTWARE'
p2771
asbag68
(g89
g70
NtRp2772
(dp2773
g73
(dp2774
g100
g101
ssg82
g2763
sg75
(lp2775
S':'
asbag68
(g89
g70
NtRp2776
(dp2777
g73
(dp2778
sg82
g2763
sg75
(lp2779
g68
(g69
g70
NtRp2780
(dp2781
g73
(dp2782
g81
I3
ssg82
g2776
sg75
(lp2783
g1798
asbasbasbag68
(g84
g70
NtRp2784
(dp2785
g73
(dp2786
sg82
g2381
sg75
(lp2787
g68
(g89
g70
NtRp2788
(dp2789
g73
(dp2790
g93
g94
ssg82
g2784
sg75
(lp2791
S'wsgi.errors'
p2792
asbag68
(g89
g70
NtRp2793
(dp2794
g73
(dp2795
g100
g101
ssg82
g2784
sg75
(lp2796
S':'
asbag68
(g89
g70
NtRp2797
(dp2798
g73
(dp2799
sg82
g2784
sg75
(lp2800
g68
(g69
g70
NtRp2801
(dp2802
g73
(dp2803
g81
I3
ssg82
g2797
sg75
(lp2804
S"<open file '<stderr>', mode 'w' at 0xb76e20d0>"
p2805
asbasbasbag68
(g84
g70
NtRp2806
(dp2807
g73
(dp2808
sg82
g2381
sg75
(lp2809
g68
(g89
g70
NtRp2810
(dp2811
g73
(dp2812
g93
g94
ssg82
g2806
sg75
(lp2813
S'wsgi.file_wrapper'
p2814
asbag68
(g89
g70
NtRp2815
(dp2816
g73
(dp2817
g100
g101
ssg82
g2806
sg75
(lp2818
S':'
asbag68
(g89
g70
NtRp2819
(dp2820
g73
(dp2821
sg82
g2806
sg75
(lp2822
g68
(g69
g70
NtRp2823
(dp2824
g73
(dp2825
g81
I3
ssg82
g2819
sg75
(lp2826
S'<class gluon.rocket.FileWrapper at 0x96a132c>'
p2827
asbasbasbag68
(g84
g70
NtRp2828
(dp2829
g73
(dp2830
sg82
g2381
sg75
(lp2831
g68
(g89
g70
NtRp2832
(dp2833
g73
(dp2834
g93
g94
ssg82
g2828
sg75
(lp2835
S'wsgi.input'
p2836
asbag68
(g89
g70
NtRp2837
(dp2838
g73
(dp2839
g100
g101
ssg82
g2828
sg75
(lp2840
S':'
asbag68
(g89
g70
NtRp2841
(dp2842
g73
(dp2843
sg82
g2828
sg75
(lp2844
g68
(g69
g70
NtRp2845
(dp2846
g73
(dp2847
g81
I3
ssg82
g2841
sg75
(lp2848
S'<cStringIO.StringO object at 0x9ca90c0>'
p2849
asbasbasbag68
(g84
g70
NtRp2850
(dp2851
g73
(dp2852
sg82
g2381
sg75
(lp2853
g68
(g89
g70
NtRp2854
(dp2855
g73
(dp2856
g93
g94
ssg82
g2850
sg75
(lp2857
S'wsgi.multiprocess'
p2858
asbag68
(g89
g70
NtRp2859
(dp2860
g73
(dp2861
g100
g101
ssg82
g2850
sg75
(lp2862
S':'
asbag68
(g89
g70
NtRp2863
(dp2864
g73
(dp2865
sg82
g2850
sg75
(lp2866
g68
(g69
g70
NtRp2867
(dp2868
g73
(dp2869
g81
I3
ssg82
g2863
sg75
(lp2870
g111
asbasbasbag68
(g84
g70
NtRp2871
(dp2872
g73
(dp2873
sg82
g2381
sg75
(lp2874
g68
(g89
g70
NtRp2875
(dp2876
g73
(dp2877
g93
g94
ssg82
g2871
sg75
(lp2878
S'wsgi.multithread'
p2879
asbag68
(g89
g70
NtRp2880
(dp2881
g73
(dp2882
g100
g101
ssg82
g2871
sg75
(lp2883
S':'
asbag68
(g89
g70
NtRp2884
(dp2885
g73
(dp2886
sg82
g2871
sg75
(lp2887
g68
(g69
g70
NtRp2888
(dp2889
g73
(dp2890
g81
I3
ssg82
g2884
sg75
(lp2891
g1972
asbasbasbag68
(g84
g70
NtRp2892
(dp2893
g73
(dp2894
sg82
g2381
sg75
(lp2895
g68
(g89
g70
NtRp2896
(dp2897
g73
(dp2898
g93
g94
ssg82
g2892
sg75
(lp2899
S'wsgi.run_once'
p2900
asbag68
(g89
g70
NtRp2901
(dp2902
g73
(dp2903
g100
g101
ssg82
g2892
sg75
(lp2904
S':'
asbag68
(g89
g70
NtRp2905
(dp2906
g73
(dp2907
sg82
g2892
sg75
(lp2908
g68
(g69
g70
NtRp2909
(dp2910
g73
(dp2911
g81
I3
ssg82
g2905
sg75
(lp2912
g111
asbasbasbag68
(g84
g70
NtRp2913
(dp2914
g73
(dp2915
sg82
g2381
sg75
(lp2916
g68
(g89
g70
NtRp2917
(dp2918
g73
(dp2919
g93
g94
ssg82
g2913
sg75
(lp2920
S'wsgi.url_scheme'
p2921
asbag68
(g89
g70
NtRp2922
(dp2923
g73
(dp2924
g100
g101
ssg82
g2913
sg75
(lp2925
S':'
asbag68
(g89
g70
NtRp2926
(dp2927
g73
(dp2928
sg82
g2913
sg75
(lp2929
g68
(g69
g70
NtRp2930
(dp2931
g73
(dp2932
g81
I3
ssg82
g2926
sg75
(lp2933
g2015
asbasbasbag68
(g84
g70
NtRp2934
(dp2935
g73
(dp2936
sg82
g2381
sg75
(lp2937
g68
(g89
g70
NtRp2938
(dp2939
g73
(dp2940
g93
g94
ssg82
g2934
sg75
(lp2941
S'wsgi.version'
p2942
asbag68
(g89
g70
NtRp2943
(dp2944
g73
(dp2945
g100
g101
ssg82
g2934
sg75
(lp2946
S':'
asbag68
(g89
g70
NtRp2947
(dp2948
g73
(dp2949
sg82
g2934
sg75
(lp2950
g68
(g69
g70
NtRp2951
(dp2952
g73
(dp2953
g81
I3
ssg82
g2947
sg75
(lp2954
S'1'
asbasbasbasbasbasbasbasbasbasbasbasbasbsS'frames'
p2955
(lp2956
(dp2957
S'file'
p2958
S'/home/alumno/web2py/gluon/restricted.py'
p2959
sS'dump'
p2960
(dp2961
S'code'
p2962
S"'# -*- coding: utf-8 -*-\\n# this file is released ...lumnos)\\n\\n\\nresponse._vars=response._caller(index)\\n'"
p2963
sS'layer'
p2964
S"'/home/alumno/web2py/applications/datos/controllers/default.py'"
p2965
sS'global compile2'
p2966
S'<function compile2>'
p2967
sS'ccode'
p2968
S'undefined'
p2969
ssS'lnum'
p2970
I191
sS'lines'
p2971
(dp2972
I192
S'        exec ccode in environment'
p2973
sI193
S'    except HTTP:'
p2974
sI194
S'        raise'
p2975
sI195
S'    except Exception, error:'
p2976
sI186
S"    environment['__file__'] = layer"
p2977
sI187
S'    try:'
p2978
sI188
S'        if type(code) == types.CodeType:'
p2979
sI189
S'            ccode = code'
p2980
sI190
S'        else:'
p2981
sI191
S'            ccode = compile2(code,layer)'
p2982
ssS'call'
p2983
S"(code='# -*- coding: utf-8 -*-\\n# this file is released ...lumnos)\\n\\n\\nresponse._vars=response._caller(index)\\n', environment={'A': <class 'gluon.html.A'>, 'B': <class 'gluon.html.B'>, 'BEAUTIFY': <class 'gluon.html.BEAUTIFY'>, 'BODY': <class 'gluon.html.BODY'>, 'BR': <class 'gluon.html.BR'>, 'BUTTON': <class 'gluon.html.BUTTON'>, 'CAT': <class 'gluon.html.CAT'>, 'CENTER': <class 'gluon.html.CENTER'>, 'CLEANUP': <class 'gluon.validators.CLEANUP'>, 'CODE': <class 'gluon.html.CODE'>, ...}, layer='/home/alumno/web2py/applications/datos/controllers/default.py')"
p2984
sS'func'
p2985
S'restricted'
p2986
sa(dp2987
g2958
S'/home/alumno/web2py/gluon/restricted.py'
p2988
sg2960
(dp2989
S'builtincompile'
p2990
S'<built-in function compile>'
p2991
sS'code'
p2992
S"'# -*- coding: utf-8 -*-\\n# this file is released ...lumnos)\\n\\n\\nresponse._vars=response._caller(index)\\n'"
p2993
sS'code.rstrip'
p2994
S'<built-in method rstrip of str object>'
p2995
sS').replace'
p2996
g2969
sS'layer'
p2997
S"'/home/alumno/web2py/applications/datos/controllers/default.py'"
p2998
ssg2970
I178
sg2971
(dp2999
I173
S''
sI174
S'def compile2(code,layer):'
p3000
sI175
S'    """'
p3001
sI176
S"    The +'\\n' is necessary else compile fails when code ends in a comment."
p3002
sI177
S'    """'
p3003
sI178
S"    return compile(code.rstrip().replace('\\r\\n','\\n')+'\\n', layer, 'exec')"
p3004
sI179
S''
sI180
S"def restricted(code, environment={}, layer='Unknown'):"
p3005
sI181
S'    """'
p3006
sI182
S'    runs code in environment and returns the output. if an exception occurs'
p3007
ssg2983
S"(code='# -*- coding: utf-8 -*-\\n# this file is released ...lumnos)\\n\\n\\nresponse._vars=response._caller(index)\\n', layer='/home/alumno/web2py/applications/datos/controllers/default.py')"
p3008
sg2985
S'compile2'
p3009
sasS'pyver'
p3010
S'Python 2.6.6: /usr/bin/python'
p3011
sS'session'
p3012
g68
(g69
g70
NtRp3013
(dp3014
g73
(dp3015
sg75
(lp3016
g68
(g77
g70
NtRp3017
(dp3018
g73
(dp3019
g81
I5
ssg82
Nsg75
(lp3020
g68
(g84
g70
NtRp3021
(dp3022
g73
(dp3023
sg82
g3017
sg75
(lp3024
g68
(g89
g70
NtRp3025
(dp3026
g73
(dp3027
g93
g94
ssg82
g3021
sg75
(lp3028
S'last_query'
p3029
asbag68
(g89
g70
NtRp3030
(dp3031
g73
(dp3032
g100
g101
ssg82
g3021
sg75
(lp3033
S':'
asbag68
(g89
g70
NtRp3034
(dp3035
g73
(dp3036
sg82
g3021
sg75
(lp3037
g68
(g69
g70
NtRp3038
(dp3039
g73
(dp3040
g81
I5
ssg82
g3034
sg75
(lp3041
S'db.profesor.id>0'
p3042
asbasbasbasbasbsS'etype'
p3043
S"<type 'exceptions.IndentationError'>"
p3044
sS'date'
p3045
S'Wed Sep  7 19:56:46 2011'
p3046
sS'response'
p3047
g68
(g69
g70
NtRp3048
(dp3049
g73
(dp3050
sg75
(lp3051
g68
(g77
g70
NtRp3052
(dp3053
g73
(dp3054
g81
I5
ssg82
Nsg75
(lp3055
g68
(g84
g70
NtRp3056
(dp3057
g73
(dp3058
sg82
g3052
sg75
(lp3059
g68
(g89
g70
NtRp3060
(dp3061
g73
(dp3062
g93
g94
ssg82
g3056
sg75
(lp3063
g166
asbag68
(g89
g70
NtRp3064
(dp3065
g73
(dp3066
g100
g101
ssg82
g3056
sg75
(lp3067
S':'
asbag68
(g89
g70
NtRp3068
(dp3069
g73
(dp3070
sg82
g3056
sg75
(lp3071
g68
(g69
g70
NtRp3072
(dp3073
g73
(dp3074
g81
I5
ssg82
g3068
sg75
(lp3075
S'<cStringIO.StringO object at 0x9ca9e40>'
p3076
asbasbasbag68
(g84
g70
NtRp3077
(dp3078
g73
(dp3079
sg82
g3052
sg75
(lp3080
g68
(g89
g70
NtRp3081
(dp3082
g73
(dp3083
g93
g94
ssg82
g3077
sg75
(lp3084
g232
asbag68
(g89
g70
NtRp3085
(dp3086
g73
(dp3087
g100
g101
ssg82
g3077
sg75
(lp3088
S':'
asbag68
(g89
g70
NtRp3089
(dp3090
g73
(dp3091
sg82
g3077
sg75
(lp3092
g68
(g69
g70
NtRp3093
(dp3094
g73
(dp3095
g81
I5
ssg82
g3089
sg75
(lp3096
g68
(g77
g70
NtRp3097
(dp3098
g73
(dp3099
g81
I4
ssg82
Nsg75
(lp3100
g68
(g84
g70
NtRp3101
(dp3102
g73
(dp3103
sg82
g3097
sg75
(lp3104
g68
(g89
g70
NtRp3105
(dp3106
g73
(dp3107
g93
g94
ssg82
g3101
sg75
(lp3108
S'session_id_datos'
p3109
asbag68
(g89
g70
NtRp3110
(dp3111
g73
(dp3112
g100
g101
ssg82
g3101
sg75
(lp3113
S':'
asbag68
(g89
g70
NtRp3114
(dp3115
g73
(dp3116
sg82
g3101
sg75
(lp3117
g68
(g69
g70
NtRp3118
(dp3119
g73
(dp3120
g81
I4
ssg82
g3114
sg75
(lp3121
g68
(g77
g70
NtRp3122
(dp3123
g73
(dp3124
g81
I3
ssg82
Nsg75
(lp3125
g68
(g84
g70
NtRp3126
(dp3127
g73
(dp3128
sg82
g3122
sg75
(lp3129
g68
(g89
g70
NtRp3130
(dp3131
g73
(dp3132
g93
g94
ssg82
g3126
sg75
(lp3133
g282
asbag68
(g89
g70
NtRp3134
(dp3135
g73
(dp3136
g100
g101
ssg82
g3126
sg75
(lp3137
S':'
asbag68
(g89
g70
NtRp3138
(dp3139
g73
(dp3140
sg82
g3126
sg75
(lp3141
g68
(g69
g70
NtRp3142
(dp3143
g73
(dp3144
g81
I3
ssg82
g3138
sg75
(lp3145
S''
asbasbasbag68
(g84
g70
NtRp3146
(dp3147
g73
(dp3148
sg82
g3122
sg75
(lp3149
g68
(g89
g70
NtRp3150
(dp3151
g73
(dp3152
g93
g94
ssg82
g3146
sg75
(lp3153
g303
asbag68
(g89
g70
NtRp3154
(dp3155
g73
(dp3156
g100
g101
ssg82
g3146
sg75
(lp3157
S':'
asbag68
(g89
g70
NtRp3158
(dp3159
g73
(dp3160
sg82
g3146
sg75
(lp3161
g68
(g69
g70
NtRp3162
(dp3163
g73
(dp3164
g81
I3
ssg82
g3158
sg75
(lp3165
S''
asbasbasbag68
(g84
g70
NtRp3166
(dp3167
g73
(dp3168
sg82
g3122
sg75
(lp3169
g68
(g89
g70
NtRp3170
(dp3171
g73
(dp3172
g93
g94
ssg82
g3166
sg75
(lp3173
g324
asbag68
(g89
g70
NtRp3174
(dp3175
g73
(dp3176
g100
g101
ssg82
g3166
sg75
(lp3177
S':'
asbag68
(g89
g70
NtRp3178
(dp3179
g73
(dp3180
sg82
g3166
sg75
(lp3181
g68
(g69
g70
NtRp3182
(dp3183
g73
(dp3184
g81
I3
ssg82
g3178
sg75
(lp3185
S''
asbasbasbag68
(g84
g70
NtRp3186
(dp3187
g73
(dp3188
sg82
g3122
sg75
(lp3189
g68
(g89
g70
NtRp3190
(dp3191
g73
(dp3192
g93
g94
ssg82
g3186
sg75
(lp3193
g345
asbag68
(g89
g70
NtRp3194
(dp3195
g73
(dp3196
g100
g101
ssg82
g3186
sg75
(lp3197
S':'
asbag68
(g89
g70
NtRp3198
(dp3199
g73
(dp3200
sg82
g3186
sg75
(lp3201
g68
(g69
g70
NtRp3202
(dp3203
g73
(dp3204
g81
I3
ssg82
g3198
sg75
(lp3205
S''
asbasbasbag68
(g84
g70
NtRp3206
(dp3207
g73
(dp3208
sg82
g3122
sg75
(lp3209
g68
(g89
g70
NtRp3210
(dp3211
g73
(dp3212
g93
g94
ssg82
g3206
sg75
(lp3213
g366
asbag68
(g89
g70
NtRp3214
(dp3215
g73
(dp3216
g100
g101
ssg82
g3206
sg75
(lp3217
S':'
asbag68
(g89
g70
NtRp3218
(dp3219
g73
(dp3220
sg82
g3206
sg75
(lp3221
g68
(g69
g70
NtRp3222
(dp3223
g73
(dp3224
g81
I3
ssg82
g3218
sg75
(lp3225
S''
asbasbasbag68
(g84
g70
NtRp3226
(dp3227
g73
(dp3228
sg82
g3122
sg75
(lp3229
g68
(g89
g70
NtRp3230
(dp3231
g73
(dp3232
g93
g94
ssg82
g3226
sg75
(lp3233
g387
asbag68
(g89
g70
NtRp3234
(dp3235
g73
(dp3236
g100
g101
ssg82
g3226
sg75
(lp3237
S':'
asbag68
(g89
g70
NtRp3238
(dp3239
g73
(dp3240
sg82
g3226
sg75
(lp3241
g68
(g69
g70
NtRp3242
(dp3243
g73
(dp3244
g81
I3
ssg82
g3238
sg75
(lp3245
S'/'
asbasbasbag68
(g84
g70
NtRp3246
(dp3247
g73
(dp3248
sg82
g3122
sg75
(lp3249
g68
(g89
g70
NtRp3250
(dp3251
g73
(dp3252
g93
g94
ssg82
g3246
sg75
(lp3253
g408
asbag68
(g89
g70
NtRp3254
(dp3255
g73
(dp3256
g100
g101
ssg82
g3246
sg75
(lp3257
S':'
asbag68
(g89
g70
NtRp3258
(dp3259
g73
(dp3260
sg82
g3246
sg75
(lp3261
g68
(g69
g70
NtRp3262
(dp3263
g73
(dp3264
g81
I3
ssg82
g3258
sg75
(lp3265
S''
asbasbasbag68
(g84
g70
NtRp3266
(dp3267
g73
(dp3268
sg82
g3122
sg75
(lp3269
g68
(g89
g70
NtRp3270
(dp3271
g73
(dp3272
g93
g94
ssg82
g3266
sg75
(lp3273
g429
asbag68
(g89
g70
NtRp3274
(dp3275
g73
(dp3276
g100
g101
ssg82
g3266
sg75
(lp3277
S':'
asbag68
(g89
g70
NtRp3278
(dp3279
g73
(dp3280
sg82
g3266
sg75
(lp3281
g68
(g69
g70
NtRp3282
(dp3283
g73
(dp3284
g81
I3
ssg82
g3278
sg75
(lp3285
S''
asbasbasbasbasbasbasbasbasbasbasbag68
(g84
g70
NtRp3286
(dp3287
g73
(dp3288
sg82
g3052
sg75
(lp3289
g68
(g89
g70
NtRp3290
(dp3291
g73
(dp3292
g93
g94
ssg82
g3286
sg75
(lp3293
S'files'
p3294
asbag68
(g89
g70
NtRp3295
(dp3296
g73
(dp3297
g100
g101
ssg82
g3286
sg75
(lp3298
S':'
asbag68
(g89
g70
NtRp3299
(dp3300
g73
(dp3301
sg82
g3286
sg75
(lp3302
g68
(g69
g70
NtRp3303
(dp3304
g73
(dp3305
g81
I5
ssg82
g3299
sg75
(lp3306
g68
(g77
g70
NtRp3307
(dp3308
g73
(dp3309
g81
I4
ssg82
Nsg75
(lp3310
sbasbasbasbag68
(g84
g70
NtRp3311
(dp3312
g73
(dp3313
sg82
g3052
sg75
(lp3314
g68
(g89
g70
NtRp3315
(dp3316
g73
(dp3317
g93
g94
ssg82
g3311
sg75
(lp3318
S'flash'
p3319
asbag68
(g89
g70
NtRp3320
(dp3321
g73
(dp3322
g100
g101
ssg82
g3311
sg75
(lp3323
S':'
asbag68
(g89
g70
NtRp3324
(dp3325
g73
(dp3326
sg82
g3311
sg75
(lp3327
g68
(g69
g70
NtRp3328
(dp3329
g73
(dp3330
g81
I5
ssg82
g3324
sg75
(lp3331
S''
asbasbasbag68
(g84
g70
NtRp3332
(dp3333
g73
(dp3334
sg82
g3052
sg75
(lp3335
g68
(g89
g70
NtRp3336
(dp3337
g73
(dp3338
g93
g94
ssg82
g3332
sg75
(lp3339
S'generic_patterns'
p3340
asbag68
(g89
g70
NtRp3341
(dp3342
g73
(dp3343
g100
g101
ssg82
g3332
sg75
(lp3344
S':'
asbag68
(g89
g70
NtRp3345
(dp3346
g73
(dp3347
sg82
g3332
sg75
(lp3348
g68
(g69
g70
NtRp3349
(dp3350
g73
(dp3351
g81
I5
ssg82
g3345
sg75
(lp3352
g68
(g77
g70
NtRp3353
(dp3354
g73
(dp3355
g81
I4
ssg82
Nsg75
(lp3356
sbasbasbasbag68
(g84
g70
NtRp3357
(dp3358
g73
(dp3359
sg82
g3052
sg75
(lp3360
g68
(g89
g70
NtRp3361
(dp3362
g73
(dp3363
g93
g94
ssg82
g3357
sg75
(lp3364
S'headers'
p3365
asbag68
(g89
g70
NtRp3366
(dp3367
g73
(dp3368
g100
g101
ssg82
g3357
sg75
(lp3369
S':'
asbag68
(g89
g70
NtRp3370
(dp3371
g73
(dp3372
sg82
g3357
sg75
(lp3373
g68
(g69
g70
NtRp3374
(dp3375
g73
(dp3376
g81
I5
ssg82
g3370
sg75
(lp3377
g68
(g77
g70
NtRp3378
(dp3379
g73
(dp3380
g81
I4
ssg82
Nsg75
(lp3381
g68
(g84
g70
NtRp3382
(dp3383
g73
(dp3384
sg82
g3378
sg75
(lp3385
g68
(g89
g70
NtRp3386
(dp3387
g73
(dp3388
g93
g94
ssg82
g3382
sg75
(lp3389
S'Cache-Control'
p3390
asbag68
(g89
g70
NtRp3391
(dp3392
g73
(dp3393
g100
g101
ssg82
g3382
sg75
(lp3394
S':'
asbag68
(g89
g70
NtRp3395
(dp3396
g73
(dp3397
sg82
g3382
sg75
(lp3398
g68
(g69
g70
NtRp3399
(dp3400
g73
(dp3401
g81
I4
ssg82
g3395
sg75
(lp3402
S'no-store, no-cache, must-revalidate, post-check=0, pre-check=0'
p3403
asbasbasbag68
(g84
g70
NtRp3404
(dp3405
g73
(dp3406
sg82
g3378
sg75
(lp3407
g68
(g89
g70
NtRp3408
(dp3409
g73
(dp3410
g93
g94
ssg82
g3404
sg75
(lp3411
S'Content-Type'
p3412
asbag68
(g89
g70
NtRp3413
(dp3414
g73
(dp3415
g100
g101
ssg82
g3404
sg75
(lp3416
S':'
asbag68
(g89
g70
NtRp3417
(dp3418
g73
(dp3419
sg82
g3404
sg75
(lp3420
g68
(g69
g70
NtRp3421
(dp3422
g73
(dp3423
g81
I4
ssg82
g3417
sg75
(lp3424
S'text/html; charset=utf-8'
p3425
asbasbasbag68
(g84
g70
NtRp3426
(dp3427
g73
(dp3428
sg82
g3378
sg75
(lp3429
g68
(g89
g70
NtRp3430
(dp3431
g73
(dp3432
g93
g94
ssg82
g3426
sg75
(lp3433
S'Expires'
p3434
asbag68
(g89
g70
NtRp3435
(dp3436
g73
(dp3437
g100
g101
ssg82
g3426
sg75
(lp3438
S':'
asbag68
(g89
g70
NtRp3439
(dp3440
g73
(dp3441
sg82
g3426
sg75
(lp3442
g68
(g69
g70
NtRp3443
(dp3444
g73
(dp3445
g81
I4
ssg82
g3439
sg75
(lp3446
S'Thu, 08 Sep 2011 00:56:46 GMT'
p3447
asbasbasbag68
(g84
g70
NtRp3448
(dp3449
g73
(dp3450
sg82
g3378
sg75
(lp3451
g68
(g89
g70
NtRp3452
(dp3453
g73
(dp3454
g93
g94
ssg82
g3448
sg75
(lp3455
S'Pragma'
p3456
asbag68
(g89
g70
NtRp3457
(dp3458
g73
(dp3459
g100
g101
ssg82
g3448
sg75
(lp3460
S':'
asbag68
(g89
g70
NtRp3461
(dp3462
g73
(dp3463
sg82
g3448
sg75
(lp3464
g68
(g69
g70
NtRp3465
(dp3466
g73
(dp3467
g81
I4
ssg82
g3461
sg75
(lp3468
S'no-cache'
p3469
asbasbasbag68
(g84
g70
NtRp3470
(dp3471
g73
(dp3472
sg82
g3378
sg75
(lp3473
g68
(g89
g70
NtRp3474
(dp3475
g73
(dp3476
g93
g94
ssg82
g3470
sg75
(lp3477
S'X-Powered-By'
p3478
asbag68
(g89
g70
NtRp3479
(dp3480
g73
(dp3481
g100
g101
ssg82
g3470
sg75
(lp3482
S':'
asbag68
(g89
g70
NtRp3483
(dp3484
g73
(dp3485
sg82
g3470
sg75
(lp3486
g68
(g69
g70
NtRp3487
(dp3488
g73
(dp3489
g81
I4
ssg82
g3483
sg75
(lp3490
S'web2py'
p3491
asbasbasbasbasbasbasbag68
(g84
g70
NtRp3492
(dp3493
g73
(dp3494
sg82
g3052
sg75
(lp3495
g68
(g89
g70
NtRp3496
(dp3497
g73
(dp3498
g93
g94
ssg82
g3492
sg75
(lp3499
S'menu'
p3500
asbag68
(g89
g70
NtRp3501
(dp3502
g73
(dp3503
g100
g101
ssg82
g3492
sg75
(lp3504
S':'
asbag68
(g89
g70
NtRp3505
(dp3506
g73
(dp3507
sg82
g3492
sg75
(lp3508
g68
(g69
g70
NtRp3509
(dp3510
g73
(dp3511
g81
I5
ssg82
g3505
sg75
(lp3512
g68
(g77
g70
NtRp3513
(dp3514
g73
(dp3515
g81
I4
ssg82
Nsg75
(lp3516
g68
(g84
g70
NtRp3517
(dp3518
g73
(dp3519
sg82
g3513
sg75
(lp3520
g68
(g89
g70
NtRp3521
(dp3522
g73
(dp3523
sg82
g3517
sg75
(lp3524
g68
(g69
g70
NtRp3525
(dp3526
g73
(dp3527
g81
I4
ssg82
g3521
sg75
(lp3528
g68
(g77
g70
NtRp3529
(dp3530
g73
(dp3531
g81
I3
ssg82
Nsg75
(lp3532
g68
(g84
g70
NtRp3533
(dp3534
g73
(dp3535
sg82
g3529
sg75
(lp3536
g68
(g89
g70
NtRp3537
(dp3538
g73
(dp3539
sg82
g3533
sg75
(lp3540
g68
(g69
g70
NtRp3541
(dp3542
g73
(dp3543
g81
I3
ssg82
g3537
sg75
(lp3544
cgluon.languages
lazyT_unpickle
p3545
(S's\x04\x00\x00\x00Home'
tRp3546
asbasbasbag68
(g84
g70
NtRp3547
(dp3548
g73
(dp3549
sg82
g3529
sg75
(lp3550
g68
(g89
g70
NtRp3551
(dp3552
g73
(dp3553
sg82
g3547
sg75
(lp3554
g68
(g69
g70
NtRp3555
(dp3556
g73
(dp3557
g81
I3
ssg82
g3551
sg75
(lp3558
g111
asbasbasbag68
(g84
g70
NtRp3559
(dp3560
g73
(dp3561
sg82
g3529
sg75
(lp3562
g68
(g89
g70
NtRp3563
(dp3564
g73
(dp3565
sg82
g3559
sg75
(lp3566
g68
(g69
g70
NtRp3567
(dp3568
g73
(dp3569
g81
I3
ssg82
g3563
sg75
(lp3570
S'/datos/default/index'
p3571
asbasbasbag68
(g84
g70
NtRp3572
(dp3573
g73
(dp3574
sg82
g3529
sg75
(lp3575
g68
(g89
g70
NtRp3576
(dp3577
g73
(dp3578
sg82
g3572
sg75
(lp3579
g68
(g69
g70
NtRp3580
(dp3581
g73
(dp3582
g81
I3
ssg82
g3576
sg75
(lp3583
g68
(g77
g70
NtRp3584
(dp3585
g73
(dp3586
g81
I2
ssg82
Nsg75
(lp3587
sbasbasbasbasbasbasbasbag68
(g84
g70
NtRp3588
(dp3589
g73
(dp3590
sg82
g3513
sg75
(lp3591
g68
(g89
g70
NtRp3592
(dp3593
g73
(dp3594
sg82
g3588
sg75
(lp3595
g68
(g69
g70
NtRp3596
(dp3597
g73
(dp3598
g81
I4
ssg82
g3592
sg75
(lp3599
g68
(g77
g70
NtRp3600
(dp3601
g73
(dp3602
g81
I3
ssg82
Nsg75
(lp3603
g68
(g84
g70
NtRp3604
(dp3605
g73
(dp3606
sg82
g3600
sg75
(lp3607
g68
(g89
g70
NtRp3608
(dp3609
g73
(dp3610
sg82
g3604
sg75
(lp3611
g68
(g69
g70
NtRp3612
(dp3613
g73
(dp3614
g81
I3
ssg82
g3608
sg75
(lp3615
g3545
(S's\x08\x00\x00\x00This App'
tRp3616
asbasbasbag68
(g84
g70
NtRp3617
(dp3618
g73
(dp3619
sg82
g3600
sg75
(lp3620
g68
(g89
g70
NtRp3621
(dp3622
g73
(dp3623
sg82
g3617
sg75
(lp3624
g68
(g69
g70
NtRp3625
(dp3626
g73
(dp3627
g81
I3
ssg82
g3621
sg75
(lp3628
g111
asbasbasbag68
(g84
g70
NtRp3629
(dp3630
g73
(dp3631
sg82
g3600
sg75
(lp3632
g68
(g89
g70
NtRp3633
(dp3634
g73
(dp3635
sg82
g3629
sg75
(lp3636
g68
(g69
g70
NtRp3637
(dp3638
g73
(dp3639
g81
I3
ssg82
g3633
sg75
(lp3640
S'/admin/default/design/datos'
p3641
asbasbasbag68
(g84
g70
NtRp3642
(dp3643
g73
(dp3644
sg82
g3600
sg75
(lp3645
g68
(g89
g70
NtRp3646
(dp3647
g73
(dp3648
sg82
g3642
sg75
(lp3649
g68
(g69
g70
NtRp3650
(dp3651
g73
(dp3652
g81
I3
ssg82
g3646
sg75
(lp3653
g68
(g77
g70
NtRp3654
(dp3655
g73
(dp3656
g81
I2
ssg82
Nsg75
(lp3657
g68
(g84
g70
NtRp3658
(dp3659
g73
(dp3660
sg82
g3654
sg75
(lp3661
g68
(g89
g70
NtRp3662
(dp3663
g73
(dp3664
sg82
g3658
sg75
(lp3665
g68
(g69
g70
NtRp3666
(dp3667
g73
(dp3668
g81
I2
ssg82
g3662
sg75
(lp3669
g68
(g77
g70
NtRp3670
(dp3671
g73
(dp3672
g81
I1
ssg82
Nsg75
(lp3673
g68
(g84
g70
NtRp3674
(dp3675
g73
(dp3676
sg82
g3670
sg75
(lp3677
g68
(g89
g70
NtRp3678
(dp3679
g73
(dp3680
sg82
g3674
sg75
(lp3681
g68
(g69
g70
NtRp3682
(dp3683
g73
(dp3684
g81
I1
ssg82
g3678
sg75
(lp3685
g3545
(S's\n\x00\x00\x00Controller'
tRp3686
asbasbasbag68
(g84
g70
NtRp3687
(dp3688
g73
(dp3689
sg82
g3670
sg75
(lp3690
g68
(g89
g70
NtRp3691
(dp3692
g73
(dp3693
sg82
g3687
sg75
(lp3694
g68
(g69
g70
NtRp3695
(dp3696
g73
(dp3697
g81
I1
ssg82
g3691
sg75
(lp3698
I00
asbasbasbag68
(g84
g70
NtRp3699
(dp3700
g73
(dp3701
sg82
g3670
sg75
(lp3702
g68
(g89
g70
NtRp3703
(dp3704
g73
(dp3705
sg82
g3699
sg75
(lp3706
g68
(g69
g70
NtRp3707
(dp3708
g73
(dp3709
g81
I1
ssg82
g3703
sg75
(lp3710
S'/admin/default/edit/datos/controllers/default.py'
p3711
asbasbasbasbasbasbasbag68
(g84
g70
NtRp3712
(dp3713
g73
(dp3714
sg82
g3654
sg75
(lp3715
g68
(g89
g70
NtRp3716
(dp3717
g73
(dp3718
sg82
g3712
sg75
(lp3719
g68
(g69
g70
NtRp3720
(dp3721
g73
(dp3722
g81
I2
ssg82
g3716
sg75
(lp3723
g68
(g77
g70
NtRp3724
(dp3725
g73
(dp3726
g81
I1
ssg82
Nsg75
(lp3727
g68
(g84
g70
NtRp3728
(dp3729
g73
(dp3730
sg82
g3724
sg75
(lp3731
g68
(g89
g70
NtRp3732
(dp3733
g73
(dp3734
sg82
g3728
sg75
(lp3735
g68
(g69
g70
NtRp3736
(dp3737
g73
(dp3738
g81
I1
ssg82
g3732
sg75
(lp3739
g3545
(S's\x04\x00\x00\x00View'
tRp3740
asbasbasbag68
(g84
g70
NtRp3741
(dp3742
g73
(dp3743
sg82
g3724
sg75
(lp3744
g68
(g89
g70
NtRp3745
(dp3746
g73
(dp3747
sg82
g3741
sg75
(lp3748
g68
(g69
g70
NtRp3749
(dp3750
g73
(dp3751
g81
I1
ssg82
g3745
sg75
(lp3752
I00
asbasbasbag68
(g84
g70
NtRp3753
(dp3754
g73
(dp3755
sg82
g3724
sg75
(lp3756
g68
(g89
g70
NtRp3757
(dp3758
g73
(dp3759
sg82
g3753
sg75
(lp3760
g68
(g69
g70
NtRp3761
(dp3762
g73
(dp3763
g81
I1
ssg82
g3757
sg75
(lp3764
S'/admin/default/edit/datos/views/default/index.html'
p3765
asbasbasbasbasbasbasbag68
(g84
g70
NtRp3766
(dp3767
g73
(dp3768
sg82
g3654
sg75
(lp3769
g68
(g89
g70
NtRp3770
(dp3771
g73
(dp3772
sg82
g3766
sg75
(lp3773
g68
(g69
g70
NtRp3774
(dp3775
g73
(dp3776
g81
I2
ssg82
g3770
sg75
(lp3777
g68
(g77
g70
NtRp3778
(dp3779
g73
(dp3780
g81
I1
ssg82
Nsg75
(lp3781
g68
(g84
g70
NtRp3782
(dp3783
g73
(dp3784
sg82
g3778
sg75
(lp3785
g68
(g89
g70
NtRp3786
(dp3787
g73
(dp3788
sg82
g3782
sg75
(lp3789
g68
(g69
g70
NtRp3790
(dp3791
g73
(dp3792
g81
I1
ssg82
g3786
sg75
(lp3793
g3545
(S's\x06\x00\x00\x00Layout'
tRp3794
asbasbasbag68
(g84
g70
NtRp3795
(dp3796
g73
(dp3797
sg82
g3778
sg75
(lp3798
g68
(g89
g70
NtRp3799
(dp3800
g73
(dp3801
sg82
g3795
sg75
(lp3802
g68
(g69
g70
NtRp3803
(dp3804
g73
(dp3805
g81
I1
ssg82
g3799
sg75
(lp3806
I00
asbasbasbag68
(g84
g70
NtRp3807
(dp3808
g73
(dp3809
sg82
g3778
sg75
(lp3810
g68
(g89
g70
NtRp3811
(dp3812
g73
(dp3813
sg82
g3807
sg75
(lp3814
g68
(g69
g70
NtRp3815
(dp3816
g73
(dp3817
g81
I1
ssg82
g3811
sg75
(lp3818
S'/admin/default/edit/datos/views/layout.html'
p3819
asbasbasbasbasbasbasbag68
(g84
g70
NtRp3820
(dp3821
g73
(dp3822
sg82
g3654
sg75
(lp3823
g68
(g89
g70
NtRp3824
(dp3825
g73
(dp3826
sg82
g3820
sg75
(lp3827
g68
(g69
g70
NtRp3828
(dp3829
g73
(dp3830
g81
I2
ssg82
g3824
sg75
(lp3831
g68
(g77
g70
NtRp3832
(dp3833
g73
(dp3834
g81
I1
ssg82
Nsg75
(lp3835
g68
(g84
g70
NtRp3836
(dp3837
g73
(dp3838
sg82
g3832
sg75
(lp3839
g68
(g89
g70
NtRp3840
(dp3841
g73
(dp3842
sg82
g3836
sg75
(lp3843
g68
(g69
g70
NtRp3844
(dp3845
g73
(dp3846
g81
I1
ssg82
g3840
sg75
(lp3847
g3545
(S's\n\x00\x00\x00Stylesheet'
tRp3848
asbasbasbag68
(g84
g70
NtRp3849
(dp3850
g73
(dp3851
sg82
g3832
sg75
(lp3852
g68
(g89
g70
NtRp3853
(dp3854
g73
(dp3855
sg82
g3849
sg75
(lp3856
g68
(g69
g70
NtRp3857
(dp3858
g73
(dp3859
g81
I1
ssg82
g3853
sg75
(lp3860
I00
asbasbasbag68
(g84
g70
NtRp3861
(dp3862
g73
(dp3863
sg82
g3832
sg75
(lp3864
g68
(g89
g70
NtRp3865
(dp3866
g73
(dp3867
sg82
g3861
sg75
(lp3868
g68
(g69
g70
NtRp3869
(dp3870
g73
(dp3871
g81
I1
ssg82
g3865
sg75
(lp3872
S'/admin/default/edit/datos/static/base.css'
p3873
asbasbasbasbasbasbasbag68
(g84
g70
NtRp3874
(dp3875
g73
(dp3876
sg82
g3654
sg75
(lp3877
g68
(g89
g70
NtRp3878
(dp3879
g73
(dp3880
sg82
g3874
sg75
(lp3881
g68
(g69
g70
NtRp3882
(dp3883
g73
(dp3884
g81
I2
ssg82
g3878
sg75
(lp3885
g68
(g77
g70
NtRp3886
(dp3887
g73
(dp3888
g81
I1
ssg82
Nsg75
(lp3889
g68
(g84
g70
NtRp3890
(dp3891
g73
(dp3892
sg82
g3886
sg75
(lp3893
g68
(g89
g70
NtRp3894
(dp3895
g73
(dp3896
sg82
g3890
sg75
(lp3897
g68
(g69
g70
NtRp3898
(dp3899
g73
(dp3900
g81
I1
ssg82
g3894
sg75
(lp3901
g3545
(S's\x08\x00\x00\x00DB Model'
tRp3902
asbasbasbag68
(g84
g70
NtRp3903
(dp3904
g73
(dp3905
sg82
g3886
sg75
(lp3906
g68
(g89
g70
NtRp3907
(dp3908
g73
(dp3909
sg82
g3903
sg75
(lp3910
g68
(g69
g70
NtRp3911
(dp3912
g73
(dp3913
g81
I1
ssg82
g3907
sg75
(lp3914
I00
asbasbasbag68
(g84
g70
NtRp3915
(dp3916
g73
(dp3917
sg82
g3886
sg75
(lp3918
g68
(g89
g70
NtRp3919
(dp3920
g73
(dp3921
sg82
g3915
sg75
(lp3922
g68
(g69
g70
NtRp3923
(dp3924
g73
(dp3925
g81
I1
ssg82
g3919
sg75
(lp3926
S'/admin/default/edit/datos/models/db.py'
p3927
asbasbasbasbasbasbasbag68
(g84
g70
NtRp3928
(dp3929
g73
(dp3930
sg82
g3654
sg75
(lp3931
g68
(g89
g70
NtRp3932
(dp3933
g73
(dp3934
sg82
g3928
sg75
(lp3935
g68
(g69
g70
NtRp3936
(dp3937
g73
(dp3938
g81
I2
ssg82
g3932
sg75
(lp3939
g68
(g77
g70
NtRp3940
(dp3941
g73
(dp3942
g81
I1
ssg82
Nsg75
(lp3943
g68
(g84
g70
NtRp3944
(dp3945
g73
(dp3946
sg82
g3940
sg75
(lp3947
g68
(g89
g70
NtRp3948
(dp3949
g73
(dp3950
sg82
g3944
sg75
(lp3951
g68
(g69
g70
NtRp3952
(dp3953
g73
(dp3954
g81
I1
ssg82
g3948
sg75
(lp3955
g3545
(S's\n\x00\x00\x00Menu Model'
tRp3956
asbasbasbag68
(g84
g70
NtRp3957
(dp3958
g73
(dp3959
sg82
g3940
sg75
(lp3960
g68
(g89
g70
NtRp3961
(dp3962
g73
(dp3963
sg82
g3957
sg75
(lp3964
g68
(g69
g70
NtRp3965
(dp3966
g73
(dp3967
g81
I1
ssg82
g3961
sg75
(lp3968
I00
asbasbasbag68
(g84
g70
NtRp3969
(dp3970
g73
(dp3971
sg82
g3940
sg75
(lp3972
g68
(g89
g70
NtRp3973
(dp3974
g73
(dp3975
sg82
g3969
sg75
(lp3976
g68
(g69
g70
NtRp3977
(dp3978
g73
(dp3979
g81
I1
ssg82
g3973
sg75
(lp3980
S'/admin/default/edit/datos/models/menu.py'
p3981
asbasbasbasbasbasbasbag68
(g84
g70
NtRp3982
(dp3983
g73
(dp3984
sg82
g3654
sg75
(lp3985
g68
(g89
g70
NtRp3986
(dp3987
g73
(dp3988
sg82
g3982
sg75
(lp3989
g68
(g69
g70
NtRp3990
(dp3991
g73
(dp3992
g81
I2
ssg82
g3986
sg75
(lp3993
g68
(g77
g70
NtRp3994
(dp3995
g73
(dp3996
g81
I1
ssg82
Nsg75
(lp3997
g68
(g84
g70
NtRp3998
(dp3999
g73
(dp4000
sg82
g3994
sg75
(lp4001
g68
(g89
g70
NtRp4002
(dp4003
g73
(dp4004
sg82
g3998
sg75
(lp4005
g68
(g69
g70
NtRp4006
(dp4007
g73
(dp4008
g81
I1
ssg82
g4002
sg75
(lp4009
g3545
(S's\x08\x00\x00\x00Database'
tRp4010
asbasbasbag68
(g84
g70
NtRp4011
(dp4012
g73
(dp4013
sg82
g3994
sg75
(lp4014
g68
(g89
g70
NtRp4015
(dp4016
g73
(dp4017
sg82
g4011
sg75
(lp4018
g68
(g69
g70
NtRp4019
(dp4020
g73
(dp4021
g81
I1
ssg82
g4015
sg75
(lp4022
I00
asbasbasbag68
(g84
g70
NtRp4023
(dp4024
g73
(dp4025
sg82
g3994
sg75
(lp4026
g68
(g89
g70
NtRp4027
(dp4028
g73
(dp4029
sg82
g4023
sg75
(lp4030
g68
(g69
g70
NtRp4031
(dp4032
g73
(dp4033
g81
I1
ssg82
g4027
sg75
(lp4034
S'/datos/appadmin/index'
p4035
asbasbasbasbasbasbasbag68
(g84
g70
NtRp4036
(dp4037
g73
(dp4038
sg82
g3654
sg75
(lp4039
g68
(g89
g70
NtRp4040
(dp4041
g73
(dp4042
sg82
g4036
sg75
(lp4043
g68
(g69
g70
NtRp4044
(dp4045
g73
(dp4046
g81
I2
ssg82
g4040
sg75
(lp4047
g68
(g77
g70
NtRp4048
(dp4049
g73
(dp4050
g81
I1
ssg82
Nsg75
(lp4051
g68
(g84
g70
NtRp4052
(dp4053
g73
(dp4054
sg82
g4048
sg75
(lp4055
g68
(g89
g70
NtRp4056
(dp4057
g73
(dp4058
sg82
g4052
sg75
(lp4059
g68
(g69
g70
NtRp4060
(dp4061
g73
(dp4062
g81
I1
ssg82
g4056
sg75
(lp4063
g3545
(S's\x06\x00\x00\x00Errors'
tRp4064
asbasbasbag68
(g84
g70
NtRp4065
(dp4066
g73
(dp4067
sg82
g4048
sg75
(lp4068
g68
(g89
g70
NtRp4069
(dp4070
g73
(dp4071
sg82
g4065
sg75
(lp4072
g68
(g69
g70
NtRp4073
(dp4074
g73
(dp4075
g81
I1
ssg82
g4069
sg75
(lp4076
I00
asbasbasbag68
(g84
g70
NtRp4077
(dp4078
g73
(dp4079
sg82
g4048
sg75
(lp4080
g68
(g89
g70
NtRp4081
(dp4082
g73
(dp4083
sg82
g4077
sg75
(lp4084
g68
(g69
g70
NtRp4085
(dp4086
g73
(dp4087
g81
I1
ssg82
g4081
sg75
(lp4088
S'/admin/default/errors/datos'
p4089
asbasbasbasbasbasbasbag68
(g84
g70
NtRp4090
(dp4091
g73
(dp4092
sg82
g3654
sg75
(lp4093
g68
(g89
g70
NtRp4094
(dp4095
g73
(dp4096
sg82
g4090
sg75
(lp4097
g68
(g69
g70
NtRp4098
(dp4099
g73
(dp4100
g81
I2
ssg82
g4094
sg75
(lp4101
g68
(g77
g70
NtRp4102
(dp4103
g73
(dp4104
g81
I1
ssg82
Nsg75
(lp4105
g68
(g84
g70
NtRp4106
(dp4107
g73
(dp4108
sg82
g4102
sg75
(lp4109
g68
(g89
g70
NtRp4110
(dp4111
g73
(dp4112
sg82
g4106
sg75
(lp4113
g68
(g69
g70
NtRp4114
(dp4115
g73
(dp4116
g81
I1
ssg82
g4110
sg75
(lp4117
g3545
(S's\x05\x00\x00\x00About'
tRp4118
asbasbasbag68
(g84
g70
NtRp4119
(dp4120
g73
(dp4121
sg82
g4102
sg75
(lp4122
g68
(g89
g70
NtRp4123
(dp4124
g73
(dp4125
sg82
g4119
sg75
(lp4126
g68
(g69
g70
NtRp4127
(dp4128
g73
(dp4129
g81
I1
ssg82
g4123
sg75
(lp4130
I00
asbasbasbag68
(g84
g70
NtRp4131
(dp4132
g73
(dp4133
sg82
g4102
sg75
(lp4134
g68
(g89
g70
NtRp4135
(dp4136
g73
(dp4137
sg82
g4131
sg75
(lp4138
g68
(g69
g70
NtRp4139
(dp4140
g73
(dp4141
g81
I1
ssg82
g4135
sg75
(lp4142
S'/admin/default/about/datos'
p4143
asbasbasbasbasbasbasbasbasbasbasbasbasbasbasbag68
(g84
g70
NtRp4144
(dp4145
g73
(dp4146
sg82
g3513
sg75
(lp4147
g68
(g89
g70
NtRp4148
(dp4149
g73
(dp4150
sg82
g4144
sg75
(lp4151
g68
(g69
g70
NtRp4152
(dp4153
g73
(dp4154
g81
I4
ssg82
g4148
sg75
(lp4155
g68
(g77
g70
NtRp4156
(dp4157
g73
(dp4158
g81
I3
ssg82
Nsg75
(lp4159
g68
(g84
g70
NtRp4160
(dp4161
g73
(dp4162
sg82
g4156
sg75
(lp4163
g68
(g89
g70
NtRp4164
(dp4165
g73
(dp4166
sg82
g4160
sg75
(lp4167
g68
(g69
g70
NtRp4168
(dp4169
g73
(dp4170
g81
I3
ssg82
g4164
sg75
(lp4171
g3545
(S's\t\x00\x00\x00Resources'
tRp4172
asbasbasbag68
(g84
g70
NtRp4173
(dp4174
g73
(dp4175
sg82
g4156
sg75
(lp4176
g68
(g89
g70
NtRp4177
(dp4178
g73
(dp4179
sg82
g4173
sg75
(lp4180
g68
(g69
g70
NtRp4181
(dp4182
g73
(dp4183
g81
I3
ssg82
g4177
sg75
(lp4184
g111
asbasbasbag68
(g84
g70
NtRp4185
(dp4186
g73
(dp4187
sg82
g4156
sg75
(lp4188
g68
(g89
g70
NtRp4189
(dp4190
g73
(dp4191
sg82
g4185
sg75
(lp4192
g68
(g69
g70
NtRp4193
(dp4194
g73
(dp4195
g81
I3
ssg82
g4189
sg75
(lp4196
S'None'
p4197
asbasbasbag68
(g84
g70
NtRp4198
(dp4199
g73
(dp4200
sg82
g4156
sg75
(lp4201
g68
(g89
g70
NtRp4202
(dp4203
g73
(dp4204
sg82
g4198
sg75
(lp4205
g68
(g69
g70
NtRp4206
(dp4207
g73
(dp4208
g81
I3
ssg82
g4202
sg75
(lp4209
g68
(g77
g70
NtRp4210
(dp4211
g73
(dp4212
g81
I2
ssg82
Nsg75
(lp4213
g68
(g84
g70
NtRp4214
(dp4215
g73
(dp4216
sg82
g4210
sg75
(lp4217
g68
(g89
g70
NtRp4218
(dp4219
g73
(dp4220
sg82
g4214
sg75
(lp4221
g68
(g69
g70
NtRp4222
(dp4223
g73
(dp4224
g81
I2
ssg82
g4218
sg75
(lp4225
g68
(g77
g70
NtRp4226
(dp4227
g73
(dp4228
g81
I1
ssg82
Nsg75
(lp4229
g68
(g84
g70
NtRp4230
(dp4231
g73
(dp4232
sg82
g4226
sg75
(lp4233
g68
(g89
g70
NtRp4234
(dp4235
g73
(dp4236
sg82
g4230
sg75
(lp4237
g68
(g69
g70
NtRp4238
(dp4239
g73
(dp4240
g81
I1
ssg82
g4234
sg75
(lp4241
g3545
(S's\r\x00\x00\x00Documentation'
tRp4242
asbasbasbag68
(g84
g70
NtRp4243
(dp4244
g73
(dp4245
sg82
g4226
sg75
(lp4246
g68
(g89
g70
NtRp4247
(dp4248
g73
(dp4249
sg82
g4243
sg75
(lp4250
g68
(g69
g70
NtRp4251
(dp4252
g73
(dp4253
g81
I1
ssg82
g4247
sg75
(lp4254
I00
asbasbasbag68
(g84
g70
NtRp4255
(dp4256
g73
(dp4257
sg82
g4226
sg75
(lp4258
g68
(g89
g70
NtRp4259
(dp4260
g73
(dp4261
sg82
g4255
sg75
(lp4262
g68
(g69
g70
NtRp4263
(dp4264
g73
(dp4265
g81
I1
ssg82
g4259
sg75
(lp4266
S'http://www.web2py.com/book'
p4267
asbasbasbag68
(g84
g70
NtRp4268
(dp4269
g73
(dp4270
sg82
g4226
sg75
(lp4271
g68
(g89
g70
NtRp4272
(dp4273
g73
(dp4274
sg82
g4268
sg75
(lp4275
g68
(g69
g70
NtRp4276
(dp4277
g73
(dp4278
g81
I1
ssg82
g4272
sg75
(lp4279
(lp4280
(g3545
(S's\x07\x00\x00\x00Preface'
tRp4281
I00
S'http://www.web2py.com/book/default/chapter/00'
tp4282
a(g3545
(S's\x0c\x00\x00\x00Introduction'
tRp4283
I00
S'http://www.web2py.com/book/default/chapter/01'
tp4284
a(g3545
(S's\x06\x00\x00\x00Python'
tRp4285
I00
S'http://www.web2py.com/book/default/chapter/02'
tp4286
a(g3545
(S's\x08\x00\x00\x00Overview'
tRp4287
I00
S'http://www.web2py.com/book/default/chapter/03'
tp4288
a(g3545
(S's\x08\x00\x00\x00The Core'
tRp4289
I00
S'http://www.web2py.com/book/default/chapter/04'
tp4290
a(g3545
(S's\t\x00\x00\x00The Views'
tRp4291
I00
S'http://www.web2py.com/book/default/chapter/05'
tp4292
a(g3545
(S's\x08\x00\x00\x00Database'
tRp4293
I00
S'http://www.web2py.com/book/default/chapter/06'
tp4294
a(g3545
(S's\x14\x00\x00\x00Forms and Validators'
tRp4295
I00
S'http://www.web2py.com/book/default/chapter/07'
tp4296
a(g3545
(S's\x0e\x00\x00\x00Access Control'
tRp4297
I00
S'http://www.web2py.com/book/default/chapter/08'
tp4298
a(g3545
(S's\x08\x00\x00\x00Services'
tRp4299
I00
S'http://www.web2py.com/book/default/chapter/09'
tp4300
a(g3545
(S's\x0c\x00\x00\x00Ajax Recipes'
tRp4301
I00
S'http://www.web2py.com/book/default/chapter/10'
tp4302
a(g3545
(S's\x12\x00\x00\x00Deployment Recipes'
tRp4303
I00
S'http://www.web2py.com/book/default/chapter/11'
tp4304
a(g3545
(S's\r\x00\x00\x00Other Recipes'
tRp4305
I00
S'http://www.web2py.com/book/default/chapter/12'
tp4306
a(g3545
(S's\r\x00\x00\x00Buy this book'
tRp4307
I00
S'http://stores.lulu.com/web2py'
tp4308
aasbasbasbasbasbasbasbag68
(g84
g70
NtRp4309
(dp4310
g73
(dp4311
sg82
g4210
sg75
(lp4312
g68
(g89
g70
NtRp4313
(dp4314
g73
(dp4315
sg82
g4309
sg75
(lp4316
g68
(g69
g70
NtRp4317
(dp4318
g73
(dp4319
g81
I2
ssg82
g4313
sg75
(lp4320
g68
(g77
g70
NtRp4321
(dp4322
g73
(dp4323
g81
I1
ssg82
Nsg75
(lp4324
g68
(g84
g70
NtRp4325
(dp4326
g73
(dp4327
sg82
g4321
sg75
(lp4328
g68
(g89
g70
NtRp4329
(dp4330
g73
(dp4331
sg82
g4325
sg75
(lp4332
g68
(g69
g70
NtRp4333
(dp4334
g73
(dp4335
g81
I1
ssg82
g4329
sg75
(lp4336
g3545
(S's\t\x00\x00\x00Community'
tRp4337
asbasbasbag68
(g84
g70
NtRp4338
(dp4339
g73
(dp4340
sg82
g4321
sg75
(lp4341
g68
(g89
g70
NtRp4342
(dp4343
g73
(dp4344
sg82
g4338
sg75
(lp4345
g68
(g69
g70
NtRp4346
(dp4347
g73
(dp4348
g81
I1
ssg82
g4342
sg75
(lp4349
I00
asbasbasbag68
(g84
g70
NtRp4350
(dp4351
g73
(dp4352
sg82
g4321
sg75
(lp4353
g68
(g89
g70
NtRp4354
(dp4355
g73
(dp4356
sg82
g4350
sg75
(lp4357
g68
(g69
g70
NtRp4358
(dp4359
g73
(dp4360
g81
I1
ssg82
g4354
sg75
(lp4361
Nasbasbasbag68
(g84
g70
NtRp4362
(dp4363
g73
(dp4364
sg82
g4321
sg75
(lp4365
g68
(g89
g70
NtRp4366
(dp4367
g73
(dp4368
sg82
g4362
sg75
(lp4369
g68
(g69
g70
NtRp4370
(dp4371
g73
(dp4372
g81
I1
ssg82
g4366
sg75
(lp4373
(lp4374
(g3545
(S's\x06\x00\x00\x00Groups'
tRp4375
I00
S'http://www.web2py.com/examples/default/usergroups'
tp4376
a(g3545
(S's\x07\x00\x00\x00Twitter'
tRp4377
I00
S'http://twitter.com/web2py'
tp4378
a(g3545
(S's\t\x00\x00\x00Live chat'
tRp4379
I00
S'http://mibbit.com/?channel=%23web2py&server=irc.mibbit.net'
tp4380
a(g3545
(S's\n\x00\x00\x00User Voice'
tRp4381
I00
S'http://web2py.uservoice.com/'
tp4382
aasbasbasbasbasbasbasbag68
(g84
g70
NtRp4383
(dp4384
g73
(dp4385
sg82
g4210
sg75
(lp4386
g68
(g89
g70
NtRp4387
(dp4388
g73
(dp4389
sg82
g4383
sg75
(lp4390
g68
(g69
g70
NtRp4391
(dp4392
g73
(dp4393
g81
I2
ssg82
g4387
sg75
(lp4394
g68
(g77
g70
NtRp4395
(dp4396
g73
(dp4397
g81
I1
ssg82
Nsg75
(lp4398
g68
(g84
g70
NtRp4399
(dp4400
g73
(dp4401
sg82
g4395
sg75
(lp4402
g68
(g89
g70
NtRp4403
(dp4404
g73
(dp4405
sg82
g4399
sg75
(lp4406
g68
(g69
g70
NtRp4407
(dp4408
g73
(dp4409
g81
I1
ssg82
g4403
sg75
(lp4410
g3545
(S's\x06\x00\x00\x00Web2py'
tRp4411
asbasbasbag68
(g84
g70
NtRp4412
(dp4413
g73
(dp4414
sg82
g4395
sg75
(lp4415
g68
(g89
g70
NtRp4416
(dp4417
g73
(dp4418
sg82
g4412
sg75
(lp4419
g68
(g69
g70
NtRp4420
(dp4421
g73
(dp4422
g81
I1
ssg82
g4416
sg75
(lp4423
I00
asbasbasbag68
(g84
g70
NtRp4424
(dp4425
g73
(dp4426
sg82
g4395
sg75
(lp4427
g68
(g89
g70
NtRp4428
(dp4429
g73
(dp4430
sg82
g4424
sg75
(lp4431
g68
(g69
g70
NtRp4432
(dp4433
g73
(dp4434
g81
I1
ssg82
g4428
sg75
(lp4435
S'http://www.web2py.com'
p4436
asbasbasbag68
(g84
g70
NtRp4437
(dp4438
g73
(dp4439
sg82
g4395
sg75
(lp4440
g68
(g89
g70
NtRp4441
(dp4442
g73
(dp4443
sg82
g4437
sg75
(lp4444
g68
(g69
g70
NtRp4445
(dp4446
g73
(dp4447
g81
I1
ssg82
g4441
sg75
(lp4448
(lp4449
(g3545
(S's\x08\x00\x00\x00Download'
tRp4450
I00
S'http://www.web2py.com/examples/default/download'
tp4451
a(g3545
(S's\x07\x00\x00\x00Support'
tRp4452
I00
S'http://www.web2py.com/examples/default/support'
tp4453
a(g3545
(S's\x0e\x00\x00\x00Quick Examples'
tRp4454
I00
S'http://web2py.com/examples/default/examples'
tp4455
a(g3545
(S's\x03\x00\x00\x00FAQ'
tRp4456
I00
S'http://web2py.com/AlterEgo'
tp4457
a(g3545
(S's\x11\x00\x00\x00Free Applications'
tRp4458
I00
S'http://web2py.com/appliances'
tp4459
a(g3545
(S's\x07\x00\x00\x00Plugins'
tRp4460
I00
S'http://web2py.com/plugins'
tp4461
a(g3545
(S's\x07\x00\x00\x00Recipes'
tRp4462
I00
S'http://web2pyslices.com/'
tp4463
a(g3545
(S's\x04\x00\x00\x00Demo'
tRp4464
I00
S'http://web2py.com/demo_admin'
tp4465
a(g3545
(S's\x08\x00\x00\x00Semantic'
tRp4466
I00
S'http://web2py.com/semantic'
tp4467
a(g3545
(S's\x07\x00\x00\x00Layouts'
tRp4468
I00
S'http://web2py.com/layouts'
tp4469
a(g3545
(S's\x06\x00\x00\x00Videos'
tRp4470
I00
S'http://www.web2py.com/examples/default/videos/'
tp4471
aasbasbasbasbasbasbasbasbasbasbasbasbasbasbasbasbasbasbasbag68
(g84
g70
NtRp4472
(dp4473
g73
(dp4474
sg82
g3052
sg75
(lp4475
g68
(g89
g70
NtRp4476
(dp4477
g73
(dp4478
g93
g94
ssg82
g4472
sg75
(lp4479
S'meta'
p4480
asbag68
(g89
g70
NtRp4481
(dp4482
g73
(dp4483
g100
g101
ssg82
g4472
sg75
(lp4484
S':'
asbag68
(g89
g70
NtRp4485
(dp4486
g73
(dp4487
sg82
g4472
sg75
(lp4488
g68
(g69
g70
NtRp4489
(dp4490
g73
(dp4491
g81
I5
ssg82
g4485
sg75
(lp4492
g68
(g77
g70
NtRp4493
(dp4494
g73
(dp4495
g81
I4
ssg82
Nsg75
(lp4496
g68
(g84
g70
NtRp4497
(dp4498
g73
(dp4499
sg82
g4493
sg75
(lp4500
g68
(g89
g70
NtRp4501
(dp4502
g73
(dp4503
g93
g94
ssg82
g4497
sg75
(lp4504
S'author'
p4505
asbag68
(g89
g70
NtRp4506
(dp4507
g73
(dp4508
g100
g101
ssg82
g4497
sg75
(lp4509
S':'
asbag68
(g89
g70
NtRp4510
(dp4511
g73
(dp4512
sg82
g4497
sg75
(lp4513
g68
(g69
g70
NtRp4514
(dp4515
g73
(dp4516
g81
I4
ssg82
g4510
sg75
(lp4517
S'you'
p4518
asbasbasbag68
(g84
g70
NtRp4519
(dp4520
g73
(dp4521
sg82
g4493
sg75
(lp4522
g68
(g89
g70
NtRp4523
(dp4524
g73
(dp4525
g93
g94
ssg82
g4519
sg75
(lp4526
S'copyright'
p4527
asbag68
(g89
g70
NtRp4528
(dp4529
g73
(dp4530
g100
g101
ssg82
g4519
sg75
(lp4531
S':'
asbag68
(g89
g70
NtRp4532
(dp4533
g73
(dp4534
sg82
g4519
sg75
(lp4535
g68
(g69
g70
NtRp4536
(dp4537
g73
(dp4538
g81
I4
ssg82
g4532
sg75
(lp4539
S'Copyright 2007-2010'
p4540
asbasbasbag68
(g84
g70
NtRp4541
(dp4542
g73
(dp4543
sg82
g4493
sg75
(lp4544
g68
(g89
g70
NtRp4545
(dp4546
g73
(dp4547
g93
g94
ssg82
g4541
sg75
(lp4548
S'description'
p4549
asbag68
(g89
g70
NtRp4550
(dp4551
g73
(dp4552
g100
g101
ssg82
g4541
sg75
(lp4553
S':'
asbag68
(g89
g70
NtRp4554
(dp4555
g73
(dp4556
sg82
g4541
sg75
(lp4557
g68
(g69
g70
NtRp4558
(dp4559
g73
(dp4560
g81
I4
ssg82
g4554
sg75
(lp4561
S'Free and open source full-stack enterprise framework for agile development of fast, scalable, secure and portable database-driven web-based applications. Written and programmable in Python'
p4562
asbasbasbag68
(g84
g70
NtRp4563
(dp4564
g73
(dp4565
sg82
g4493
sg75
(lp4566
g68
(g89
g70
NtRp4567
(dp4568
g73
(dp4569
g93
g94
ssg82
g4563
sg75
(lp4570
S'generator'
p4571
asbag68
(g89
g70
NtRp4572
(dp4573
g73
(dp4574
g100
g101
ssg82
g4563
sg75
(lp4575
S':'
asbag68
(g89
g70
NtRp4576
(dp4577
g73
(dp4578
sg82
g4563
sg75
(lp4579
g68
(g69
g70
NtRp4580
(dp4581
g73
(dp4582
g81
I4
ssg82
g4576
sg75
(lp4583
S'Web2py Enterprise Framework'
p4584
asbasbasbag68
(g84
g70
NtRp4585
(dp4586
g73
(dp4587
sg82
g4493
sg75
(lp4588
g68
(g89
g70
NtRp4589
(dp4590
g73
(dp4591
g93
g94
ssg82
g4585
sg75
(lp4592
S'keywords'
p4593
asbag68
(g89
g70
NtRp4594
(dp4595
g73
(dp4596
g100
g101
ssg82
g4585
sg75
(lp4597
S':'
asbag68
(g89
g70
NtRp4598
(dp4599
g73
(dp4600
sg82
g4585
sg75
(lp4601
g68
(g69
g70
NtRp4602
(dp4603
g73
(dp4604
g81
I4
ssg82
g4598
sg75
(lp4605
S'web2py, python, framework'
p4606
asbasbasbasbasbasbasbag68
(g84
g70
NtRp4607
(dp4608
g73
(dp4609
sg82
g3052
sg75
(lp4610
g68
(g89
g70
NtRp4611
(dp4612
g73
(dp4613
g93
g94
ssg82
g4607
sg75
(lp4614
S'postprocessing'
p4615
asbag68
(g89
g70
NtRp4616
(dp4617
g73
(dp4618
g100
g101
ssg82
g4607
sg75
(lp4619
S':'
asbag68
(g89
g70
NtRp4620
(dp4621
g73
(dp4622
sg82
g4607
sg75
(lp4623
g68
(g69
g70
NtRp4624
(dp4625
g73
(dp4626
g81
I5
ssg82
g4620
sg75
(lp4627
g68
(g77
g70
NtRp4628
(dp4629
g73
(dp4630
g81
I4
ssg82
Nsg75
(lp4631
sbasbasbasbag68
(g84
g70
NtRp4632
(dp4633
g73
(dp4634
sg82
g3052
sg75
(lp4635
g68
(g89
g70
NtRp4636
(dp4637
g73
(dp4638
g93
g94
ssg82
g4632
sg75
(lp4639
S'session_file'
p4640
asbag68
(g89
g70
NtRp4641
(dp4642
g73
(dp4643
g100
g101
ssg82
g4632
sg75
(lp4644
S':'
asbag68
(g89
g70
NtRp4645
(dp4646
g73
(dp4647
sg82
g4632
sg75
(lp4648
g68
(g69
g70
NtRp4649
(dp4650
g73
(dp4651
g81
I5
ssg82
g4645
sg75
(lp4652
S"<open file '/home/alumno/web2py/applications/datos/sessions/127.0.0.1-db62c583-5264-4eba-ba24-7cb87b43795a', mode 'rb+' at 0xa361e90>"
p4653
asbasbasbag68
(g84
g70
NtRp4654
(dp4655
g73
(dp4656
sg82
g3052
sg75
(lp4657
g68
(g89
g70
NtRp4658
(dp4659
g73
(dp4660
g93
g94
ssg82
g4654
sg75
(lp4661
S'session_filename'
p4662
asbag68
(g89
g70
NtRp4663
(dp4664
g73
(dp4665
g100
g101
ssg82
g4654
sg75
(lp4666
S':'
asbag68
(g89
g70
NtRp4667
(dp4668
g73
(dp4669
sg82
g4654
sg75
(lp4670
g68
(g69
g70
NtRp4671
(dp4672
g73
(dp4673
g81
I5
ssg82
g4667
sg75
(lp4674
S'/home/alumno/web2py/applications/datos/sessions/127.0.0.1-db62c583-5264-4eba-ba24-7cb87b43795a'
p4675
asbasbasbag68
(g84
g70
NtRp4676
(dp4677
g73
(dp4678
sg82
g3052
sg75
(lp4679
g68
(g89
g70
NtRp4680
(dp4681
g73
(dp4682
g93
g94
ssg82
g4676
sg75
(lp4683
S'session_id'
p4684
asbag68
(g89
g70
NtRp4685
(dp4686
g73
(dp4687
g100
g101
ssg82
g4676
sg75
(lp4688
S':'
asbag68
(g89
g70
NtRp4689
(dp4690
g73
(dp4691
sg82
g4676
sg75
(lp4692
g68
(g69
g70
NtRp4693
(dp4694
g73
(dp4695
g81
I5
ssg82
g4689
sg75
(lp4696
S'127.0.0.1-db62c583-5264-4eba-ba24-7cb87b43795a'
p4697
asbasbasbag68
(g84
g70
NtRp4698
(dp4699
g73
(dp4700
sg82
g3052
sg75
(lp4701
g68
(g89
g70
NtRp4702
(dp4703
g73
(dp4704
g93
g94
ssg82
g4698
sg75
(lp4705
S'session_id_name'
p4706
asbag68
(g89
g70
NtRp4707
(dp4708
g73
(dp4709
g100
g101
ssg82
g4698
sg75
(lp4710
S':'
asbag68
(g89
g70
NtRp4711
(dp4712
g73
(dp4713
sg82
g4698
sg75
(lp4714
g68
(g69
g70
NtRp4715
(dp4716
g73
(dp4717
g81
I5
ssg82
g4711
sg75
(lp4718
g3109
asbasbasbag68
(g84
g70
NtRp4719
(dp4720
g73
(dp4721
sg82
g3052
sg75
(lp4722
g68
(g89
g70
NtRp4723
(dp4724
g73
(dp4725
g93
g94
ssg82
g4719
sg75
(lp4726
S'session_locked'
p4727
asbag68
(g89
g70
NtRp4728
(dp4729
g73
(dp4730
g100
g101
ssg82
g4719
sg75
(lp4731
S':'
asbag68
(g89
g70
NtRp4732
(dp4733
g73
(dp4734
sg82
g4719
sg75
(lp4735
g68
(g69
g70
NtRp4736
(dp4737
g73
(dp4738
g81
I5
ssg82
g4732
sg75
(lp4739
g1972
asbasbasbag68
(g84
g70
NtRp4740
(dp4741
g73
(dp4742
sg82
g3052
sg75
(lp4743
g68
(g89
g70
NtRp4744
(dp4745
g73
(dp4746
g93
g94
ssg82
g4740
sg75
(lp4747
S'session_new'
p4748
asbag68
(g89
g70
NtRp4749
(dp4750
g73
(dp4751
g100
g101
ssg82
g4740
sg75
(lp4752
S':'
asbag68
(g89
g70
NtRp4753
(dp4754
g73
(dp4755
sg82
g4740
sg75
(lp4756
g68
(g69
g70
NtRp4757
(dp4758
g73
(dp4759
g81
I5
ssg82
g4753
sg75
(lp4760
g111
asbasbasbag68
(g84
g70
NtRp4761
(dp4762
g73
(dp4763
sg82
g3052
sg75
(lp4764
g68
(g89
g70
NtRp4765
(dp4766
g73
(dp4767
g93
g94
ssg82
g4761
sg75
(lp4768
S'status'
p4769
asbag68
(g89
g70
NtRp4770
(dp4771
g73
(dp4772
g100
g101
ssg82
g4761
sg75
(lp4773
S':'
asbag68
(g89
g70
NtRp4774
(dp4775
g73
(dp4776
sg82
g4761
sg75
(lp4777
g68
(g69
g70
NtRp4778
(dp4779
g73
(dp4780
g81
I5
ssg82
g4774
sg75
(lp4781
S'200'
p4782
asbasbasbag68
(g84
g70
NtRp4783
(dp4784
g73
(dp4785
sg82
g3052
sg75
(lp4786
g68
(g89
g70
NtRp4787
(dp4788
g73
(dp4789
g93
g94
ssg82
g4783
sg75
(lp4790
S'subtitle'
p4791
asbag68
(g89
g70
NtRp4792
(dp4793
g73
(dp4794
g100
g101
ssg82
g4783
sg75
(lp4795
S':'
asbag68
(g89
g70
NtRp4796
(dp4797
g73
(dp4798
sg82
g4783
sg75
(lp4799
g68
(g69
g70
NtRp4800
(dp4801
g73
(dp4802
g81
I5
ssg82
g4796
sg75
(lp4803
g3545
(S's\r\x00\x00\x00customize me!'
tRp4804
asbasbasbag68
(g84
g70
NtRp4805
(dp4806
g73
(dp4807
sg82
g3052
sg75
(lp4808
g68
(g89
g70
NtRp4809
(dp4810
g73
(dp4811
g93
g94
ssg82
g4805
sg75
(lp4812
S'title'
p4813
asbag68
(g89
g70
NtRp4814
(dp4815
g73
(dp4816
g100
g101
ssg82
g4805
sg75
(lp4817
S':'
asbag68
(g89
g70
NtRp4818
(dp4819
g73
(dp4820
sg82
g4805
sg75
(lp4821
g68
(g69
g70
NtRp4822
(dp4823
g73
(dp4824
g81
I5
ssg82
g4818
sg75
(lp4825
g133
asbasbasbag68
(g84
g70
NtRp4826
(dp4827
g73
(dp4828
sg82
g3052
sg75
(lp4829
g68
(g89
g70
NtRp4830
(dp4831
g73
(dp4832
g93
g94
ssg82
g4826
sg75
(lp4833
g2296
asbag68
(g89
g70
NtRp4834
(dp4835
g73
(dp4836
g100
g101
ssg82
g4826
sg75
(lp4837
S':'
asbag68
(g89
g70
NtRp4838
(dp4839
g73
(dp4840
sg82
g4826
sg75
(lp4841
g68
(g69
g70
NtRp4842
(dp4843
g73
(dp4844
g81
I5
ssg82
g4838
sg75
(lp4845
g2309
asbasbasbag68
(g84
g70
NtRp4846
(dp4847
g73
(dp4848
sg82
g3052
sg75
(lp4849
g68
(g89
g70
NtRp4850
(dp4851
g73
(dp4852
g93
g94
ssg82
g4846
sg75
(lp4853
S'view'
p4854
asbag68
(g89
g70
NtRp4855
(dp4856
g73
(dp4857
g100
g101
ssg82
g4846
sg75
(lp4858
S':'
asbag68
(g89
g70
NtRp4859
(dp4860
g73
(dp4861
sg82
g4846
sg75
(lp4862
g68
(g69
g70
NtRp4863
(dp4864
g73
(dp4865
g81
I5
ssg82
g4859
sg75
(lp4866
S'default/index.html'
p4867
asbasbasbasbasbsS'locals'
p4868
(dp4869
g3
S"'/home/alumno/web2py/applications/datos/controllers/default.py'"
p4870
sg5
S"'# -*- coding: utf-8 -*-\\n# this file is released ...lumnos)\\n\\n\\nresponse._vars=response._caller(index)\\n'"
p4871
sssS'traceback'
p4872
S'Traceback (most recent call last):\n  File "/home/alumno/web2py/gluon/restricted.py", line 191, in restricted\n    ccode = compile2(code,layer)\n  File "/home/alumno/web2py/gluon/restricted.py", line 178, in compile2\n    return compile(code.rstrip().replace(\'\\r\\n\',\'\\n\')+\'\\n\', layer, \'exec\')\n  File "/home/alumno/web2py/applications/datos/controllers/default.py", line 15\n    return dict(alumnos=alumnos)\n                               ^\nIndentationError: unindent does not match any outer indentation level\n'
p4873
s.