(dp1
S'output'
p2
S''
sS'layer'
p3
S'/home/alumno/web2py/applications/datos/controllers/default.py'
p4
sS'code'
p5
S'# -*- coding: utf-8 -*-\n# this file is released under public domain and you can use without limitations\n\n#########################################################################\n## This is a samples controller\n## - index is the default action of any application\n## - user is required for authentication and authorization\n## - download is for downloading files uploaded in the db (does streaming)\n## - call exposes all registered services (none by default)\n#########################################################################\n\ndef index():\n    """\n    example action using the internationalization operator T and flash\n    rendered by views/default/index.html or views/generic.html\n    """\n    return dict(message=T(\'Hello World\'))\n\ndef user():\n    """\n    exposes:\n    http://..../[app]/default/user/login\n    http://..../[app]/default/user/logout\n    http://..../[app]/default/user/register\n    http://..../[app]/default/user/profile\n    http://..../[app]/default/user/retrieve_password\n    http://..../[app]/default/user/change_password\n    use @auth.requires_login()\n        @auth.requires_membership(\'group name\')\n        @auth.requires_permission(\'read\',\'table name\',record_id)\n    to decorate functions that need access control\n    """\n    return dict(form=auth())\n\n\ndef download():\n    """\n    allows downloading of uploaded files\n    http://..../[app]/default/download/[filename]\n    """\n    return response.download(request,db)\n\n\ndef call():\n    """\n    exposes services. for example:\n    http://..../[app]/default/call/jsonrpc\n    decorate with @services.jsonrpc the functions to expose\n    supports xml, json, xmlrpc, jsonrpc, amfrpc, rss, csv\n    """\n    return service()\n\n\n@auth.requires_signature()\ndef data():\n    """\n    http://..../[app]/default/data/tables\n    http://..../[app]/default/data/create/[table]\n    http://..../[app]/default/data/read/[table]/[id]\n    http://..../[app]/default/data/update/[table]/[id]\n    http://..../[app]/default/data/delete/[table]/[id[\n    http://..../[app]/default/data/select/[table]\n    http://..../[app]/default/data/search/[table]\n    but URLs bust be signed, i.e. linked with\n      A(\'table\',_href=URL(\'data/tables\',user_signature=True))\n    or with the signed load operator\n      LOAD(\'default\',\'data.load\',args=\'tables\',ajax=True,user_signature=True)\n    """\n    return dict(form=crud())\n\nresponse._vars=response._caller(index)\n'
p6
sS'snapshot'
p7
(dp8
S'exception'
p9
(dp10
S'__hash__'
p11
S"<method-wrapper '__hash__' of exceptions.NameError object>"
p12
sS'__setattr__'
p13
S"<method-wrapper '__setattr__' of exceptions.NameError object>"
p14
sS'__reduce_ex__'
p15
S'<built-in method __reduce_ex__ of exceptions.NameError object>'
p16
sS'__getslice__'
p17
S"<method-wrapper '__getslice__' of exceptions.NameError object>"
p18
sS'__getitem__'
p19
S"<method-wrapper '__getitem__' of exceptions.NameError object>"
p20
sS'__setstate__'
p21
S'<built-in method __setstate__ of exceptions.NameError object>'
p22
sS'__reduce__'
p23
S'<built-in method __reduce__ of exceptions.NameError object>'
p24
sS'__str__'
p25
S"<method-wrapper '__str__' of exceptions.NameError object>"
p26
sS'__format__'
p27
S'<built-in method __format__ of exceptions.NameError object>'
p28
sS'__getattribute__'
p29
S"<method-wrapper '__getattribute__' of exceptions.NameError object>"
p30
sS'__class__'
p31
S"<type 'exceptions.NameError'>"
p32
sS'__unicode__'
p33
S'<built-in method __unicode__ of exceptions.NameError object>'
p34
sS'__delattr__'
p35
S"<method-wrapper '__delattr__' of exceptions.NameError object>"
p36
sS'__subclasshook__'
p37
S'<built-in method __subclasshook__ of type object>'
p38
sS'__repr__'
p39
S"<method-wrapper '__repr__' of exceptions.NameError object>"
p40
sS'args'
p41
S'("name \'auth\' is not defined",)'
p42
sS'__dict__'
p43
S'{}'
p44
sS'__sizeof__'
p45
S'<built-in method __sizeof__ of exceptions.NameError object>'
p46
sS'__doc__'
p47
S"'Name not found globally.'"
p48
sS'__init__'
p49
S"<method-wrapper '__init__' of exceptions.NameError object>"
p50
sS'__new__'
p51
S'<built-in method __new__ of type object>'
p52
ssS'evalue'
p53
S"name 'auth' is not defined"
p54
sS'request'
p55
ccopy_reg
_reconstructor
p56
(cgluon.html
BEAUTIFY
p57
c__builtin__
object
p58
NtRp59
(dp60
S'attributes'
p61
(dp62
sS'components'
p63
(lp64
g56
(cgluon.html
TABLE
p65
g58
NtRp66
(dp67
g61
(dp68
S'level'
p69
I5
ssS'parent'
p70
Nsg63
(lp71
g56
(cgluon.html
TR
p72
g58
NtRp73
(dp74
g61
(dp75
sg70
g66
sg63
(lp76
g56
(cgluon.html
TD
p77
g58
NtRp78
(dp79
g61
(dp80
S'_style'
p81
S'font-weight:bold;'
p82
ssg70
g73
sg63
(lp83
S'ajax'
p84
asbag56
(g77
g58
NtRp85
(dp86
g61
(dp87
S'_valign'
p88
S'top'
p89
ssg70
g73
sg63
(lp90
S':'
asbag56
(g77
g58
NtRp91
(dp92
g61
(dp93
sg70
g73
sg63
(lp94
g56
(g57
g58
NtRp95
(dp96
g61
(dp97
g69
I5
ssg70
g91
sg63
(lp98
S'False'
p99
asbasbasbag56
(g72
g58
NtRp100
(dp101
g61
(dp102
sg70
g66
sg63
(lp103
g56
(g77
g58
NtRp104
(dp105
g61
(dp106
g81
g82
ssg70
g100
sg63
(lp107
S'application'
p108
asbag56
(g77
g58
NtRp109
(dp110
g61
(dp111
g88
g89
ssg70
g100
sg63
(lp112
S':'
asbag56
(g77
g58
NtRp113
(dp114
g61
(dp115
sg70
g100
sg63
(lp116
g56
(g57
g58
NtRp117
(dp118
g61
(dp119
g69
I5
ssg70
g113
sg63
(lp120
S'datos'
p121
asbasbasbag56
(g72
g58
NtRp122
(dp123
g61
(dp124
sg70
g66
sg63
(lp125
g56
(g77
g58
NtRp126
(dp127
g61
(dp128
g81
g82
ssg70
g122
sg63
(lp129
g41
asbag56
(g77
g58
NtRp130
(dp131
g61
(dp132
g88
g89
ssg70
g122
sg63
(lp133
S':'
asbag56
(g77
g58
NtRp134
(dp135
g61
(dp136
sg70
g122
sg63
(lp137
g56
(g57
g58
NtRp138
(dp139
g61
(dp140
g69
I5
ssg70
g134
sg63
(lp141
g56
(g65
g58
NtRp142
(dp143
g61
(dp144
g69
I4
ssg70
Nsg63
(lp145
sbasbasbasbag56
(g72
g58
NtRp146
(dp147
g61
(dp148
sg70
g66
sg63
(lp149
g56
(g77
g58
NtRp150
(dp151
g61
(dp152
g81
g82
ssg70
g146
sg63
(lp153
S'body'
p154
asbag56
(g77
g58
NtRp155
(dp156
g61
(dp157
g88
g89
ssg70
g146
sg63
(lp158
S':'
asbag56
(g77
g58
NtRp159
(dp160
g61
(dp161
sg70
g146
sg63
(lp162
g56
(g57
g58
NtRp163
(dp164
g61
(dp165
g69
I5
ssg70
g159
sg63
(lp166
S'<cStringIO.StringO object at 0x9dd3c00>'
p167
asbasbasbag56
(g72
g58
NtRp168
(dp169
g61
(dp170
sg70
g66
sg63
(lp171
g56
(g77
g58
NtRp172
(dp173
g61
(dp174
g81
g82
ssg70
g168
sg63
(lp175
S'client'
p176
asbag56
(g77
g58
NtRp177
(dp178
g61
(dp179
g88
g89
ssg70
g168
sg63
(lp180
S':'
asbag56
(g77
g58
NtRp181
(dp182
g61
(dp183
sg70
g168
sg63
(lp184
g56
(g57
g58
NtRp185
(dp186
g61
(dp187
g69
I5
ssg70
g181
sg63
(lp188
S'127.0.0.1'
p189
asbasbasbag56
(g72
g58
NtRp190
(dp191
g61
(dp192
sg70
g66
sg63
(lp193
g56
(g77
g58
NtRp194
(dp195
g61
(dp196
g81
g82
ssg70
g190
sg63
(lp197
S'controller'
p198
asbag56
(g77
g58
NtRp199
(dp200
g61
(dp201
g88
g89
ssg70
g190
sg63
(lp202
S':'
asbag56
(g77
g58
NtRp203
(dp204
g61
(dp205
sg70
g190
sg63
(lp206
g56
(g57
g58
NtRp207
(dp208
g61
(dp209
g69
I5
ssg70
g203
sg63
(lp210
S'default'
p211
asbasbasbag56
(g72
g58
NtRp212
(dp213
g61
(dp214
sg70
g66
sg63
(lp215
g56
(g77
g58
NtRp216
(dp217
g61
(dp218
g81
g82
ssg70
g212
sg63
(lp219
S'cookies'
p220
asbag56
(g77
g58
NtRp221
(dp222
g61
(dp223
g88
g89
ssg70
g212
sg63
(lp224
S':'
asbag56
(g77
g58
NtRp225
(dp226
g61
(dp227
sg70
g212
sg63
(lp228
g56
(g57
g58
NtRp229
(dp230
g61
(dp231
g69
I5
ssg70
g225
sg63
(lp232
g56
(g65
g58
NtRp233
(dp234
g61
(dp235
g69
I4
ssg70
Nsg63
(lp236
g56
(g72
g58
NtRp237
(dp238
g61
(dp239
sg70
g233
sg63
(lp240
g56
(g77
g58
NtRp241
(dp242
g61
(dp243
g81
g82
ssg70
g237
sg63
(lp244
S'adminLanguage'
p245
asbag56
(g77
g58
NtRp246
(dp247
g61
(dp248
g88
g89
ssg70
g237
sg63
(lp249
S':'
asbag56
(g77
g58
NtRp250
(dp251
g61
(dp252
sg70
g237
sg63
(lp253
g56
(g57
g58
NtRp254
(dp255
g61
(dp256
g69
I4
ssg70
g250
sg63
(lp257
g56
(g65
g58
NtRp258
(dp259
g61
(dp260
g69
I3
ssg70
Nsg63
(lp261
g56
(g72
g58
NtRp262
(dp263
g61
(dp264
sg70
g258
sg63
(lp265
g56
(g77
g58
NtRp266
(dp267
g61
(dp268
g81
g82
ssg70
g262
sg63
(lp269
S'comment'
p270
asbag56
(g77
g58
NtRp271
(dp272
g61
(dp273
g88
g89
ssg70
g262
sg63
(lp274
S':'
asbag56
(g77
g58
NtRp275
(dp276
g61
(dp277
sg70
g262
sg63
(lp278
g56
(g57
g58
NtRp279
(dp280
g61
(dp281
g69
I3
ssg70
g275
sg63
(lp282
S''
asbasbasbag56
(g72
g58
NtRp283
(dp284
g61
(dp285
sg70
g258
sg63
(lp286
g56
(g77
g58
NtRp287
(dp288
g61
(dp289
g81
g82
ssg70
g283
sg63
(lp290
S'domain'
p291
asbag56
(g77
g58
NtRp292
(dp293
g61
(dp294
g88
g89
ssg70
g283
sg63
(lp295
S':'
asbag56
(g77
g58
NtRp296
(dp297
g61
(dp298
sg70
g283
sg63
(lp299
g56
(g57
g58
NtRp300
(dp301
g61
(dp302
g69
I3
ssg70
g296
sg63
(lp303
S''
asbasbasbag56
(g72
g58
NtRp304
(dp305
g61
(dp306
sg70
g258
sg63
(lp307
g56
(g77
g58
NtRp308
(dp309
g61
(dp310
g81
g82
ssg70
g304
sg63
(lp311
S'expires'
p312
asbag56
(g77
g58
NtRp313
(dp314
g61
(dp315
g88
g89
ssg70
g304
sg63
(lp316
S':'
asbag56
(g77
g58
NtRp317
(dp318
g61
(dp319
sg70
g304
sg63
(lp320
g56
(g57
g58
NtRp321
(dp322
g61
(dp323
g69
I3
ssg70
g317
sg63
(lp324
S''
asbasbasbag56
(g72
g58
NtRp325
(dp326
g61
(dp327
sg70
g258
sg63
(lp328
g56
(g77
g58
NtRp329
(dp330
g61
(dp331
g81
g82
ssg70
g325
sg63
(lp332
S'httponly'
p333
asbag56
(g77
g58
NtRp334
(dp335
g61
(dp336
g88
g89
ssg70
g325
sg63
(lp337
S':'
asbag56
(g77
g58
NtRp338
(dp339
g61
(dp340
sg70
g325
sg63
(lp341
g56
(g57
g58
NtRp342
(dp343
g61
(dp344
g69
I3
ssg70
g338
sg63
(lp345
S''
asbasbasbag56
(g72
g58
NtRp346
(dp347
g61
(dp348
sg70
g258
sg63
(lp349
g56
(g77
g58
NtRp350
(dp351
g61
(dp352
g81
g82
ssg70
g346
sg63
(lp353
S'max-age'
p354
asbag56
(g77
g58
NtRp355
(dp356
g61
(dp357
g88
g89
ssg70
g346
sg63
(lp358
S':'
asbag56
(g77
g58
NtRp359
(dp360
g61
(dp361
sg70
g346
sg63
(lp362
g56
(g57
g58
NtRp363
(dp364
g61
(dp365
g69
I3
ssg70
g359
sg63
(lp366
S''
asbasbasbag56
(g72
g58
NtRp367
(dp368
g61
(dp369
sg70
g258
sg63
(lp370
g56
(g77
g58
NtRp371
(dp372
g61
(dp373
g81
g82
ssg70
g367
sg63
(lp374
S'path'
p375
asbag56
(g77
g58
NtRp376
(dp377
g61
(dp378
g88
g89
ssg70
g367
sg63
(lp379
S':'
asbag56
(g77
g58
NtRp380
(dp381
g61
(dp382
sg70
g367
sg63
(lp383
g56
(g57
g58
NtRp384
(dp385
g61
(dp386
g69
I3
ssg70
g380
sg63
(lp387
S''
asbasbasbag56
(g72
g58
NtRp388
(dp389
g61
(dp390
sg70
g258
sg63
(lp391
g56
(g77
g58
NtRp392
(dp393
g61
(dp394
g81
g82
ssg70
g388
sg63
(lp395
S'secure'
p396
asbag56
(g77
g58
NtRp397
(dp398
g61
(dp399
g88
g89
ssg70
g388
sg63
(lp400
S':'
asbag56
(g77
g58
NtRp401
(dp402
g61
(dp403
sg70
g388
sg63
(lp404
g56
(g57
g58
NtRp405
(dp406
g61
(dp407
g69
I3
ssg70
g401
sg63
(lp408
S''
asbasbasbag56
(g72
g58
NtRp409
(dp410
g61
(dp411
sg70
g258
sg63
(lp412
g56
(g77
g58
NtRp413
(dp414
g61
(dp415
g81
g82
ssg70
g409
sg63
(lp416
S'version'
p417
asbag56
(g77
g58
NtRp418
(dp419
g61
(dp420
g88
g89
ssg70
g409
sg63
(lp421
S':'
asbag56
(g77
g58
NtRp422
(dp423
g61
(dp424
sg70
g409
sg63
(lp425
g56
(g57
g58
NtRp426
(dp427
g61
(dp428
g69
I3
ssg70
g422
sg63
(lp429
S''
asbasbasbasbasbasbasbag56
(g72
g58
NtRp430
(dp431
g61
(dp432
sg70
g233
sg63
(lp433
g56
(g77
g58
NtRp434
(dp435
g61
(dp436
g81
g82
ssg70
g430
sg63
(lp437
S'session_id_admin'
p438
asbag56
(g77
g58
NtRp439
(dp440
g61
(dp441
g88
g89
ssg70
g430
sg63
(lp442
S':'
asbag56
(g77
g58
NtRp443
(dp444
g61
(dp445
sg70
g430
sg63
(lp446
g56
(g57
g58
NtRp447
(dp448
g61
(dp449
g69
I4
ssg70
g443
sg63
(lp450
g56
(g65
g58
NtRp451
(dp452
g61
(dp453
g69
I3
ssg70
Nsg63
(lp454
g56
(g72
g58
NtRp455
(dp456
g61
(dp457
sg70
g451
sg63
(lp458
g56
(g77
g58
NtRp459
(dp460
g61
(dp461
g81
g82
ssg70
g455
sg63
(lp462
g270
asbag56
(g77
g58
NtRp463
(dp464
g61
(dp465
g88
g89
ssg70
g455
sg63
(lp466
S':'
asbag56
(g77
g58
NtRp467
(dp468
g61
(dp469
sg70
g455
sg63
(lp470
g56
(g57
g58
NtRp471
(dp472
g61
(dp473
g69
I3
ssg70
g467
sg63
(lp474
S''
asbasbasbag56
(g72
g58
NtRp475
(dp476
g61
(dp477
sg70
g451
sg63
(lp478
g56
(g77
g58
NtRp479
(dp480
g61
(dp481
g81
g82
ssg70
g475
sg63
(lp482
g291
asbag56
(g77
g58
NtRp483
(dp484
g61
(dp485
g88
g89
ssg70
g475
sg63
(lp486
S':'
asbag56
(g77
g58
NtRp487
(dp488
g61
(dp489
sg70
g475
sg63
(lp490
g56
(g57
g58
NtRp491
(dp492
g61
(dp493
g69
I3
ssg70
g487
sg63
(lp494
S''
asbasbasbag56
(g72
g58
NtRp495
(dp496
g61
(dp497
sg70
g451
sg63
(lp498
g56
(g77
g58
NtRp499
(dp500
g61
(dp501
g81
g82
ssg70
g495
sg63
(lp502
g312
asbag56
(g77
g58
NtRp503
(dp504
g61
(dp505
g88
g89
ssg70
g495
sg63
(lp506
S':'
asbag56
(g77
g58
NtRp507
(dp508
g61
(dp509
sg70
g495
sg63
(lp510
g56
(g57
g58
NtRp511
(dp512
g61
(dp513
g69
I3
ssg70
g507
sg63
(lp514
S''
asbasbasbag56
(g72
g58
NtRp515
(dp516
g61
(dp517
sg70
g451
sg63
(lp518
g56
(g77
g58
NtRp519
(dp520
g61
(dp521
g81
g82
ssg70
g515
sg63
(lp522
g333
asbag56
(g77
g58
NtRp523
(dp524
g61
(dp525
g88
g89
ssg70
g515
sg63
(lp526
S':'
asbag56
(g77
g58
NtRp527
(dp528
g61
(dp529
sg70
g515
sg63
(lp530
g56
(g57
g58
NtRp531
(dp532
g61
(dp533
g69
I3
ssg70
g527
sg63
(lp534
S''
asbasbasbag56
(g72
g58
NtRp535
(dp536
g61
(dp537
sg70
g451
sg63
(lp538
g56
(g77
g58
NtRp539
(dp540
g61
(dp541
g81
g82
ssg70
g535
sg63
(lp542
g354
asbag56
(g77
g58
NtRp543
(dp544
g61
(dp545
g88
g89
ssg70
g535
sg63
(lp546
S':'
asbag56
(g77
g58
NtRp547
(dp548
g61
(dp549
sg70
g535
sg63
(lp550
g56
(g57
g58
NtRp551
(dp552
g61
(dp553
g69
I3
ssg70
g547
sg63
(lp554
S''
asbasbasbag56
(g72
g58
NtRp555
(dp556
g61
(dp557
sg70
g451
sg63
(lp558
g56
(g77
g58
NtRp559
(dp560
g61
(dp561
g81
g82
ssg70
g555
sg63
(lp562
g375
asbag56
(g77
g58
NtRp563
(dp564
g61
(dp565
g88
g89
ssg70
g555
sg63
(lp566
S':'
asbag56
(g77
g58
NtRp567
(dp568
g61
(dp569
sg70
g555
sg63
(lp570
g56
(g57
g58
NtRp571
(dp572
g61
(dp573
g69
I3
ssg70
g567
sg63
(lp574
S''
asbasbasbag56
(g72
g58
NtRp575
(dp576
g61
(dp577
sg70
g451
sg63
(lp578
g56
(g77
g58
NtRp579
(dp580
g61
(dp581
g81
g82
ssg70
g575
sg63
(lp582
g396
asbag56
(g77
g58
NtRp583
(dp584
g61
(dp585
g88
g89
ssg70
g575
sg63
(lp586
S':'
asbag56
(g77
g58
NtRp587
(dp588
g61
(dp589
sg70
g575
sg63
(lp590
g56
(g57
g58
NtRp591
(dp592
g61
(dp593
g69
I3
ssg70
g587
sg63
(lp594
S''
asbasbasbag56
(g72
g58
NtRp595
(dp596
g61
(dp597
sg70
g451
sg63
(lp598
g56
(g77
g58
NtRp599
(dp600
g61
(dp601
g81
g82
ssg70
g595
sg63
(lp602
g417
asbag56
(g77
g58
NtRp603
(dp604
g61
(dp605
g88
g89
ssg70
g595
sg63
(lp606
S':'
asbag56
(g77
g58
NtRp607
(dp608
g61
(dp609
sg70
g595
sg63
(lp610
g56
(g57
g58
NtRp611
(dp612
g61
(dp613
g69
I3
ssg70
g607
sg63
(lp614
S''
asbasbasbasbasbasbasbag56
(g72
g58
NtRp615
(dp616
g61
(dp617
sg70
g233
sg63
(lp618
g56
(g77
g58
NtRp619
(dp620
g61
(dp621
g81
g82
ssg70
g615
sg63
(lp622
S'session_id_datos'
p623
asbag56
(g77
g58
NtRp624
(dp625
g61
(dp626
g88
g89
ssg70
g615
sg63
(lp627
S':'
asbag56
(g77
g58
NtRp628
(dp629
g61
(dp630
sg70
g615
sg63
(lp631
g56
(g57
g58
NtRp632
(dp633
g61
(dp634
g69
I4
ssg70
g628
sg63
(lp635
g56
(g65
g58
NtRp636
(dp637
g61
(dp638
g69
I3
ssg70
Nsg63
(lp639
g56
(g72
g58
NtRp640
(dp641
g61
(dp642
sg70
g636
sg63
(lp643
g56
(g77
g58
NtRp644
(dp645
g61
(dp646
g81
g82
ssg70
g640
sg63
(lp647
g270
asbag56
(g77
g58
NtRp648
(dp649
g61
(dp650
g88
g89
ssg70
g640
sg63
(lp651
S':'
asbag56
(g77
g58
NtRp652
(dp653
g61
(dp654
sg70
g640
sg63
(lp655
g56
(g57
g58
NtRp656
(dp657
g61
(dp658
g69
I3
ssg70
g652
sg63
(lp659
S''
asbasbasbag56
(g72
g58
NtRp660
(dp661
g61
(dp662
sg70
g636
sg63
(lp663
g56
(g77
g58
NtRp664
(dp665
g61
(dp666
g81
g82
ssg70
g660
sg63
(lp667
g291
asbag56
(g77
g58
NtRp668
(dp669
g61
(dp670
g88
g89
ssg70
g660
sg63
(lp671
S':'
asbag56
(g77
g58
NtRp672
(dp673
g61
(dp674
sg70
g660
sg63
(lp675
g56
(g57
g58
NtRp676
(dp677
g61
(dp678
g69
I3
ssg70
g672
sg63
(lp679
S''
asbasbasbag56
(g72
g58
NtRp680
(dp681
g61
(dp682
sg70
g636
sg63
(lp683
g56
(g77
g58
NtRp684
(dp685
g61
(dp686
g81
g82
ssg70
g680
sg63
(lp687
g312
asbag56
(g77
g58
NtRp688
(dp689
g61
(dp690
g88
g89
ssg70
g680
sg63
(lp691
S':'
asbag56
(g77
g58
NtRp692
(dp693
g61
(dp694
sg70
g680
sg63
(lp695
g56
(g57
g58
NtRp696
(dp697
g61
(dp698
g69
I3
ssg70
g692
sg63
(lp699
S''
asbasbasbag56
(g72
g58
NtRp700
(dp701
g61
(dp702
sg70
g636
sg63
(lp703
g56
(g77
g58
NtRp704
(dp705
g61
(dp706
g81
g82
ssg70
g700
sg63
(lp707
g333
asbag56
(g77
g58
NtRp708
(dp709
g61
(dp710
g88
g89
ssg70
g700
sg63
(lp711
S':'
asbag56
(g77
g58
NtRp712
(dp713
g61
(dp714
sg70
g700
sg63
(lp715
g56
(g57
g58
NtRp716
(dp717
g61
(dp718
g69
I3
ssg70
g712
sg63
(lp719
S''
asbasbasbag56
(g72
g58
NtRp720
(dp721
g61
(dp722
sg70
g636
sg63
(lp723
g56
(g77
g58
NtRp724
(dp725
g61
(dp726
g81
g82
ssg70
g720
sg63
(lp727
g354
asbag56
(g77
g58
NtRp728
(dp729
g61
(dp730
g88
g89
ssg70
g720
sg63
(lp731
S':'
asbag56
(g77
g58
NtRp732
(dp733
g61
(dp734
sg70
g720
sg63
(lp735
g56
(g57
g58
NtRp736
(dp737
g61
(dp738
g69
I3
ssg70
g732
sg63
(lp739
S''
asbasbasbag56
(g72
g58
NtRp740
(dp741
g61
(dp742
sg70
g636
sg63
(lp743
g56
(g77
g58
NtRp744
(dp745
g61
(dp746
g81
g82
ssg70
g740
sg63
(lp747
g375
asbag56
(g77
g58
NtRp748
(dp749
g61
(dp750
g88
g89
ssg70
g740
sg63
(lp751
S':'
asbag56
(g77
g58
NtRp752
(dp753
g61
(dp754
sg70
g740
sg63
(lp755
g56
(g57
g58
NtRp756
(dp757
g61
(dp758
g69
I3
ssg70
g752
sg63
(lp759
S''
asbasbasbag56
(g72
g58
NtRp760
(dp761
g61
(dp762
sg70
g636
sg63
(lp763
g56
(g77
g58
NtRp764
(dp765
g61
(dp766
g81
g82
ssg70
g760
sg63
(lp767
g396
asbag56
(g77
g58
NtRp768
(dp769
g61
(dp770
g88
g89
ssg70
g760
sg63
(lp771
S':'
asbag56
(g77
g58
NtRp772
(dp773
g61
(dp774
sg70
g760
sg63
(lp775
g56
(g57
g58
NtRp776
(dp777
g61
(dp778
g69
I3
ssg70
g772
sg63
(lp779
S''
asbasbasbag56
(g72
g58
NtRp780
(dp781
g61
(dp782
sg70
g636
sg63
(lp783
g56
(g77
g58
NtRp784
(dp785
g61
(dp786
g81
g82
ssg70
g780
sg63
(lp787
g417
asbag56
(g77
g58
NtRp788
(dp789
g61
(dp790
g88
g89
ssg70
g780
sg63
(lp791
S':'
asbag56
(g77
g58
NtRp792
(dp793
g61
(dp794
sg70
g780
sg63
(lp795
g56
(g57
g58
NtRp796
(dp797
g61
(dp798
g69
I3
ssg70
g792
sg63
(lp799
S''
asbasbasbasbasbasbasbag56
(g72
g58
NtRp800
(dp801
g61
(dp802
sg70
g233
sg63
(lp803
g56
(g77
g58
NtRp804
(dp805
g61
(dp806
g81
g82
ssg70
g800
sg63
(lp807
S'session_id_my_web'
p808
asbag56
(g77
g58
NtRp809
(dp810
g61
(dp811
g88
g89
ssg70
g800
sg63
(lp812
S':'
asbag56
(g77
g58
NtRp813
(dp814
g61
(dp815
sg70
g800
sg63
(lp816
g56
(g57
g58
NtRp817
(dp818
g61
(dp819
g69
I4
ssg70
g813
sg63
(lp820
g56
(g65
g58
NtRp821
(dp822
g61
(dp823
g69
I3
ssg70
Nsg63
(lp824
g56
(g72
g58
NtRp825
(dp826
g61
(dp827
sg70
g821
sg63
(lp828
g56
(g77
g58
NtRp829
(dp830
g61
(dp831
g81
g82
ssg70
g825
sg63
(lp832
g270
asbag56
(g77
g58
NtRp833
(dp834
g61
(dp835
g88
g89
ssg70
g825
sg63
(lp836
S':'
asbag56
(g77
g58
NtRp837
(dp838
g61
(dp839
sg70
g825
sg63
(lp840
g56
(g57
g58
NtRp841
(dp842
g61
(dp843
g69
I3
ssg70
g837
sg63
(lp844
S''
asbasbasbag56
(g72
g58
NtRp845
(dp846
g61
(dp847
sg70
g821
sg63
(lp848
g56
(g77
g58
NtRp849
(dp850
g61
(dp851
g81
g82
ssg70
g845
sg63
(lp852
g291
asbag56
(g77
g58
NtRp853
(dp854
g61
(dp855
g88
g89
ssg70
g845
sg63
(lp856
S':'
asbag56
(g77
g58
NtRp857
(dp858
g61
(dp859
sg70
g845
sg63
(lp860
g56
(g57
g58
NtRp861
(dp862
g61
(dp863
g69
I3
ssg70
g857
sg63
(lp864
S''
asbasbasbag56
(g72
g58
NtRp865
(dp866
g61
(dp867
sg70
g821
sg63
(lp868
g56
(g77
g58
NtRp869
(dp870
g61
(dp871
g81
g82
ssg70
g865
sg63
(lp872
g312
asbag56
(g77
g58
NtRp873
(dp874
g61
(dp875
g88
g89
ssg70
g865
sg63
(lp876
S':'
asbag56
(g77
g58
NtRp877
(dp878
g61
(dp879
sg70
g865
sg63
(lp880
g56
(g57
g58
NtRp881
(dp882
g61
(dp883
g69
I3
ssg70
g877
sg63
(lp884
S''
asbasbasbag56
(g72
g58
NtRp885
(dp886
g61
(dp887
sg70
g821
sg63
(lp888
g56
(g77
g58
NtRp889
(dp890
g61
(dp891
g81
g82
ssg70
g885
sg63
(lp892
g333
asbag56
(g77
g58
NtRp893
(dp894
g61
(dp895
g88
g89
ssg70
g885
sg63
(lp896
S':'
asbag56
(g77
g58
NtRp897
(dp898
g61
(dp899
sg70
g885
sg63
(lp900
g56
(g57
g58
NtRp901
(dp902
g61
(dp903
g69
I3
ssg70
g897
sg63
(lp904
S''
asbasbasbag56
(g72
g58
NtRp905
(dp906
g61
(dp907
sg70
g821
sg63
(lp908
g56
(g77
g58
NtRp909
(dp910
g61
(dp911
g81
g82
ssg70
g905
sg63
(lp912
g354
asbag56
(g77
g58
NtRp913
(dp914
g61
(dp915
g88
g89
ssg70
g905
sg63
(lp916
S':'
asbag56
(g77
g58
NtRp917
(dp918
g61
(dp919
sg70
g905
sg63
(lp920
g56
(g57
g58
NtRp921
(dp922
g61
(dp923
g69
I3
ssg70
g917
sg63
(lp924
S''
asbasbasbag56
(g72
g58
NtRp925
(dp926
g61
(dp927
sg70
g821
sg63
(lp928
g56
(g77
g58
NtRp929
(dp930
g61
(dp931
g81
g82
ssg70
g925
sg63
(lp932
g375
asbag56
(g77
g58
NtRp933
(dp934
g61
(dp935
g88
g89
ssg70
g925
sg63
(lp936
S':'
asbag56
(g77
g58
NtRp937
(dp938
g61
(dp939
sg70
g925
sg63
(lp940
g56
(g57
g58
NtRp941
(dp942
g61
(dp943
g69
I3
ssg70
g937
sg63
(lp944
S''
asbasbasbag56
(g72
g58
NtRp945
(dp946
g61
(dp947
sg70
g821
sg63
(lp948
g56
(g77
g58
NtRp949
(dp950
g61
(dp951
g81
g82
ssg70
g945
sg63
(lp952
g396
asbag56
(g77
g58
NtRp953
(dp954
g61
(dp955
g88
g89
ssg70
g945
sg63
(lp956
S':'
asbag56
(g77
g58
NtRp957
(dp958
g61
(dp959
sg70
g945
sg63
(lp960
g56
(g57
g58
NtRp961
(dp962
g61
(dp963
g69
I3
ssg70
g957
sg63
(lp964
S''
asbasbasbag56
(g72
g58
NtRp965
(dp966
g61
(dp967
sg70
g821
sg63
(lp968
g56
(g77
g58
NtRp969
(dp970
g61
(dp971
g81
g82
ssg70
g965
sg63
(lp972
g417
asbag56
(g77
g58
NtRp973
(dp974
g61
(dp975
g88
g89
ssg70
g965
sg63
(lp976
S':'
asbag56
(g77
g58
NtRp977
(dp978
g61
(dp979
sg70
g965
sg63
(lp980
g56
(g57
g58
NtRp981
(dp982
g61
(dp983
g69
I3
ssg70
g977
sg63
(lp984
S''
asbasbasbasbasbasbasbag56
(g72
g58
NtRp985
(dp986
g61
(dp987
sg70
g233
sg63
(lp988
g56
(g77
g58
NtRp989
(dp990
g61
(dp991
g81
g82
ssg70
g985
sg63
(lp992
S'session_id_welcome'
p993
asbag56
(g77
g58
NtRp994
(dp995
g61
(dp996
g88
g89
ssg70
g985
sg63
(lp997
S':'
asbag56
(g77
g58
NtRp998
(dp999
g61
(dp1000
sg70
g985
sg63
(lp1001
g56
(g57
g58
NtRp1002
(dp1003
g61
(dp1004
g69
I4
ssg70
g998
sg63
(lp1005
g56
(g65
g58
NtRp1006
(dp1007
g61
(dp1008
g69
I3
ssg70
Nsg63
(lp1009
g56
(g72
g58
NtRp1010
(dp1011
g61
(dp1012
sg70
g1006
sg63
(lp1013
g56
(g77
g58
NtRp1014
(dp1015
g61
(dp1016
g81
g82
ssg70
g1010
sg63
(lp1017
g270
asbag56
(g77
g58
NtRp1018
(dp1019
g61
(dp1020
g88
g89
ssg70
g1010
sg63
(lp1021
S':'
asbag56
(g77
g58
NtRp1022
(dp1023
g61
(dp1024
sg70
g1010
sg63
(lp1025
g56
(g57
g58
NtRp1026
(dp1027
g61
(dp1028
g69
I3
ssg70
g1022
sg63
(lp1029
S''
asbasbasbag56
(g72
g58
NtRp1030
(dp1031
g61
(dp1032
sg70
g1006
sg63
(lp1033
g56
(g77
g58
NtRp1034
(dp1035
g61
(dp1036
g81
g82
ssg70
g1030
sg63
(lp1037
g291
asbag56
(g77
g58
NtRp1038
(dp1039
g61
(dp1040
g88
g89
ssg70
g1030
sg63
(lp1041
S':'
asbag56
(g77
g58
NtRp1042
(dp1043
g61
(dp1044
sg70
g1030
sg63
(lp1045
g56
(g57
g58
NtRp1046
(dp1047
g61
(dp1048
g69
I3
ssg70
g1042
sg63
(lp1049
S''
asbasbasbag56
(g72
g58
NtRp1050
(dp1051
g61
(dp1052
sg70
g1006
sg63
(lp1053
g56
(g77
g58
NtRp1054
(dp1055
g61
(dp1056
g81
g82
ssg70
g1050
sg63
(lp1057
g312
asbag56
(g77
g58
NtRp1058
(dp1059
g61
(dp1060
g88
g89
ssg70
g1050
sg63
(lp1061
S':'
asbag56
(g77
g58
NtRp1062
(dp1063
g61
(dp1064
sg70
g1050
sg63
(lp1065
g56
(g57
g58
NtRp1066
(dp1067
g61
(dp1068
g69
I3
ssg70
g1062
sg63
(lp1069
S''
asbasbasbag56
(g72
g58
NtRp1070
(dp1071
g61
(dp1072
sg70
g1006
sg63
(lp1073
g56
(g77
g58
NtRp1074
(dp1075
g61
(dp1076
g81
g82
ssg70
g1070
sg63
(lp1077
g333
asbag56
(g77
g58
NtRp1078
(dp1079
g61
(dp1080
g88
g89
ssg70
g1070
sg63
(lp1081
S':'
asbag56
(g77
g58
NtRp1082
(dp1083
g61
(dp1084
sg70
g1070
sg63
(lp1085
g56
(g57
g58
NtRp1086
(dp1087
g61
(dp1088
g69
I3
ssg70
g1082
sg63
(lp1089
S''
asbasbasbag56
(g72
g58
NtRp1090
(dp1091
g61
(dp1092
sg70
g1006
sg63
(lp1093
g56
(g77
g58
NtRp1094
(dp1095
g61
(dp1096
g81
g82
ssg70
g1090
sg63
(lp1097
g354
asbag56
(g77
g58
NtRp1098
(dp1099
g61
(dp1100
g88
g89
ssg70
g1090
sg63
(lp1101
S':'
asbag56
(g77
g58
NtRp1102
(dp1103
g61
(dp1104
sg70
g1090
sg63
(lp1105
g56
(g57
g58
NtRp1106
(dp1107
g61
(dp1108
g69
I3
ssg70
g1102
sg63
(lp1109
S''
asbasbasbag56
(g72
g58
NtRp1110
(dp1111
g61
(dp1112
sg70
g1006
sg63
(lp1113
g56
(g77
g58
NtRp1114
(dp1115
g61
(dp1116
g81
g82
ssg70
g1110
sg63
(lp1117
g375
asbag56
(g77
g58
NtRp1118
(dp1119
g61
(dp1120
g88
g89
ssg70
g1110
sg63
(lp1121
S':'
asbag56
(g77
g58
NtRp1122
(dp1123
g61
(dp1124
sg70
g1110
sg63
(lp1125
g56
(g57
g58
NtRp1126
(dp1127
g61
(dp1128
g69
I3
ssg70
g1122
sg63
(lp1129
S''
asbasbasbag56
(g72
g58
NtRp1130
(dp1131
g61
(dp1132
sg70
g1006
sg63
(lp1133
g56
(g77
g58
NtRp1134
(dp1135
g61
(dp1136
g81
g82
ssg70
g1130
sg63
(lp1137
g396
asbag56
(g77
g58
NtRp1138
(dp1139
g61
(dp1140
g88
g89
ssg70
g1130
sg63
(lp1141
S':'
asbag56
(g77
g58
NtRp1142
(dp1143
g61
(dp1144
sg70
g1130
sg63
(lp1145
g56
(g57
g58
NtRp1146
(dp1147
g61
(dp1148
g69
I3
ssg70
g1142
sg63
(lp1149
S''
asbasbasbag56
(g72
g58
NtRp1150
(dp1151
g61
(dp1152
sg70
g1006
sg63
(lp1153
g56
(g77
g58
NtRp1154
(dp1155
g61
(dp1156
g81
g82
ssg70
g1150
sg63
(lp1157
g417
asbag56
(g77
g58
NtRp1158
(dp1159
g61
(dp1160
g88
g89
ssg70
g1150
sg63
(lp1161
S':'
asbag56
(g77
g58
NtRp1162
(dp1163
g61
(dp1164
sg70
g1150
sg63
(lp1165
g56
(g57
g58
NtRp1166
(dp1167
g61
(dp1168
g69
I3
ssg70
g1162
sg63
(lp1169
S''
asbasbasbasbasbasbasbasbasbasbasbag56
(g72
g58
NtRp1170
(dp1171
g61
(dp1172
sg70
g66
sg63
(lp1173
g56
(g77
g58
NtRp1174
(dp1175
g61
(dp1176
g81
g82
ssg70
g1170
sg63
(lp1177
S'env'
p1178
asbag56
(g77
g58
NtRp1179
(dp1180
g61
(dp1181
g88
g89
ssg70
g1170
sg63
(lp1182
S':'
asbag56
(g77
g58
NtRp1183
(dp1184
g61
(dp1185
sg70
g1170
sg63
(lp1186
g56
(g57
g58
NtRp1187
(dp1188
g61
(dp1189
g69
I5
ssg70
g1183
sg63
(lp1190
g56
(g65
g58
NtRp1191
(dp1192
g61
(dp1193
g69
I4
ssg70
Nsg63
(lp1194
g56
(g72
g58
NtRp1195
(dp1196
g61
(dp1197
sg70
g1191
sg63
(lp1198
g56
(g77
g58
NtRp1199
(dp1200
g61
(dp1201
g81
g82
ssg70
g1195
sg63
(lp1202
S'app_folders'
p1203
asbag56
(g77
g58
NtRp1204
(dp1205
g61
(dp1206
g88
g89
ssg70
g1195
sg63
(lp1207
S':'
asbag56
(g77
g58
NtRp1208
(dp1209
g61
(dp1210
sg70
g1195
sg63
(lp1211
g56
(g57
g58
NtRp1212
(dp1213
g61
(dp1214
g69
I4
ssg70
g1208
sg63
(lp1215
S"set(['/home/alumno/web2py/applications/admin/', '/home/alumno/web2py/applications/my_web/', '/home/alumno/web2py/applications/examples/', '/home/alumno/web2py/applications/welcome/', '/home/alumno/web2py/applications/datos/'])"
p1216
asbasbasbag56
(g72
g58
NtRp1217
(dp1218
g61
(dp1219
sg70
g1191
sg63
(lp1220
g56
(g77
g58
NtRp1221
(dp1222
g61
(dp1223
g81
g82
ssg70
g1217
sg63
(lp1224
S'applications_parent'
p1225
asbag56
(g77
g58
NtRp1226
(dp1227
g61
(dp1228
g88
g89
ssg70
g1217
sg63
(lp1229
S':'
asbag56
(g77
g58
NtRp1230
(dp1231
g61
(dp1232
sg70
g1217
sg63
(lp1233
g56
(g57
g58
NtRp1234
(dp1235
g61
(dp1236
g69
I4
ssg70
g1230
sg63
(lp1237
S'/home/alumno/web2py'
p1238
asbasbasbag56
(g72
g58
NtRp1239
(dp1240
g61
(dp1241
sg70
g1191
sg63
(lp1242
g56
(g77
g58
NtRp1243
(dp1244
g61
(dp1245
g81
g82
ssg70
g1239
sg63
(lp1246
S'cmd_args'
p1247
asbag56
(g77
g58
NtRp1248
(dp1249
g61
(dp1250
g88
g89
ssg70
g1239
sg63
(lp1251
S':'
asbag56
(g77
g58
NtRp1252
(dp1253
g61
(dp1254
sg70
g1239
sg63
(lp1255
g56
(g57
g58
NtRp1256
(dp1257
g61
(dp1258
g69
I4
ssg70
g1252
sg63
(lp1259
g56
(g65
g58
NtRp1260
(dp1261
g61
(dp1262
g69
I3
ssg70
Nsg63
(lp1263
sbasbasbasbag56
(g72
g58
NtRp1264
(dp1265
g61
(dp1266
sg70
g1191
sg63
(lp1267
g56
(g77
g58
NtRp1268
(dp1269
g61
(dp1270
g81
g82
ssg70
g1264
sg63
(lp1271
S'cmd_options'
p1272
asbag56
(g77
g58
NtRp1273
(dp1274
g61
(dp1275
g88
g89
ssg70
g1264
sg63
(lp1276
S':'
asbag56
(g77
g58
NtRp1277
(dp1278
g61
(dp1279
sg70
g1264
sg63
(lp1280
g56
(g57
g58
NtRp1281
(dp1282
g61
(dp1283
g69
I4
ssg70
g1277
sg63
(lp1284
S"<Values at 0x98648ac: {'verbose': False, 'ip': '127.0.0.1', 'shutdown_timeout': 5, 'taskbar': False, 'port': 8000, 'maxthreads': None, 'softcron': False, 'server_name': 'ubuntu-dev', 'bpython': False, 'nogui': False, 'nocron': False, 'extcron': False, 'debuglevel': 30, 'test': None, 'folder': '/home/alumno/web2py', 'config': '', 'import_models': False, 'winservice': '', 'shell': None, 'run': '', 'log_filename': 'httpserver.log', 'args': [''], 'profiler_filename': None, 'ssl_private_key': '', 'password': 'conti', 'request_queue_size': 5, 'ssl_certificate': '', 'cronjob': False, 'plain': False, 'quiet': False, 'interfaces': None, 'minthreads': None, 'timeout': 10, 'numthreads': None, 'nobanner': False, 'pid_filename': 'httpserver.pid'}>"
p1285
asbasbasbag56
(g72
g58
NtRp1286
(dp1287
g61
(dp1288
sg70
g1191
sg63
(lp1289
g56
(g77
g58
NtRp1290
(dp1291
g61
(dp1292
g81
g82
ssg70
g1286
sg63
(lp1293
S'db_sessions'
p1294
asbag56
(g77
g58
NtRp1295
(dp1296
g61
(dp1297
g88
g89
ssg70
g1286
sg63
(lp1298
S':'
asbag56
(g77
g58
NtRp1299
(dp1300
g61
(dp1301
sg70
g1286
sg63
(lp1302
g56
(g57
g58
NtRp1303
(dp1304
g61
(dp1305
g69
I4
ssg70
g1299
sg63
(lp1306
S'set([])'
p1307
asbasbasbag56
(g72
g58
NtRp1308
(dp1309
g61
(dp1310
sg70
g1191
sg63
(lp1311
g56
(g77
g58
NtRp1312
(dp1313
g61
(dp1314
g81
g82
ssg70
g1308
sg63
(lp1315
S'debugging'
p1316
asbag56
(g77
g58
NtRp1317
(dp1318
g61
(dp1319
g88
g89
ssg70
g1308
sg63
(lp1320
S':'
asbag56
(g77
g58
NtRp1321
(dp1322
g61
(dp1323
sg70
g1308
sg63
(lp1324
g56
(g57
g58
NtRp1325
(dp1326
g61
(dp1327
g69
I4
ssg70
g1321
sg63
(lp1328
g99
asbasbasbag56
(g72
g58
NtRp1329
(dp1330
g61
(dp1331
sg70
g1191
sg63
(lp1332
g56
(g77
g58
NtRp1333
(dp1334
g61
(dp1335
g81
g82
ssg70
g1329
sg63
(lp1336
S'gluon_parent'
p1337
asbag56
(g77
g58
NtRp1338
(dp1339
g61
(dp1340
g88
g89
ssg70
g1329
sg63
(lp1341
S':'
asbag56
(g77
g58
NtRp1342
(dp1343
g61
(dp1344
sg70
g1329
sg63
(lp1345
g56
(g57
g58
NtRp1346
(dp1347
g61
(dp1348
g69
I4
ssg70
g1342
sg63
(lp1349
S'/home/alumno/web2py'
p1350
asbasbasbag56
(g72
g58
NtRp1351
(dp1352
g61
(dp1353
sg70
g1191
sg63
(lp1354
g56
(g77
g58
NtRp1355
(dp1356
g61
(dp1357
g81
g82
ssg70
g1351
sg63
(lp1358
S'http_accept'
p1359
asbag56
(g77
g58
NtRp1360
(dp1361
g61
(dp1362
g88
g89
ssg70
g1351
sg63
(lp1363
S':'
asbag56
(g77
g58
NtRp1364
(dp1365
g61
(dp1366
sg70
g1351
sg63
(lp1367
g56
(g57
g58
NtRp1368
(dp1369
g61
(dp1370
g69
I4
ssg70
g1364
sg63
(lp1371
S'text/html,application/xhtml+xml,application/xml;q=0.9,*/*;q=0.8'
p1372
asbasbasbag56
(g72
g58
NtRp1373
(dp1374
g61
(dp1375
sg70
g1191
sg63
(lp1376
g56
(g77
g58
NtRp1377
(dp1378
g61
(dp1379
g81
g82
ssg70
g1373
sg63
(lp1380
S'http_accept_charset'
p1381
asbag56
(g77
g58
NtRp1382
(dp1383
g61
(dp1384
g88
g89
ssg70
g1373
sg63
(lp1385
S':'
asbag56
(g77
g58
NtRp1386
(dp1387
g61
(dp1388
sg70
g1373
sg63
(lp1389
g56
(g57
g58
NtRp1390
(dp1391
g61
(dp1392
g69
I4
ssg70
g1386
sg63
(lp1393
S'ISO-8859-1,utf-8;q=0.7,*;q=0.7'
p1394
asbasbasbag56
(g72
g58
NtRp1395
(dp1396
g61
(dp1397
sg70
g1191
sg63
(lp1398
g56
(g77
g58
NtRp1399
(dp1400
g61
(dp1401
g81
g82
ssg70
g1395
sg63
(lp1402
S'http_accept_encoding'
p1403
asbag56
(g77
g58
NtRp1404
(dp1405
g61
(dp1406
g88
g89
ssg70
g1395
sg63
(lp1407
S':'
asbag56
(g77
g58
NtRp1408
(dp1409
g61
(dp1410
sg70
g1395
sg63
(lp1411
g56
(g57
g58
NtRp1412
(dp1413
g61
(dp1414
g69
I4
ssg70
g1408
sg63
(lp1415
S'gzip, deflate'
p1416
asbasbasbag56
(g72
g58
NtRp1417
(dp1418
g61
(dp1419
sg70
g1191
sg63
(lp1420
g56
(g77
g58
NtRp1421
(dp1422
g61
(dp1423
g81
g82
ssg70
g1417
sg63
(lp1424
S'http_accept_language'
p1425
asbag56
(g77
g58
NtRp1426
(dp1427
g61
(dp1428
g88
g89
ssg70
g1417
sg63
(lp1429
S':'
asbag56
(g77
g58
NtRp1430
(dp1431
g61
(dp1432
sg70
g1417
sg63
(lp1433
g56
(g57
g58
NtRp1434
(dp1435
g61
(dp1436
g69
I4
ssg70
g1430
sg63
(lp1437
S'es-ar,es;q=0.8,en-us;q=0.5,en;q=0.3'
p1438
asbasbasbag56
(g72
g58
NtRp1439
(dp1440
g61
(dp1441
sg70
g1191
sg63
(lp1442
g56
(g77
g58
NtRp1443
(dp1444
g61
(dp1445
g81
g82
ssg70
g1439
sg63
(lp1446
S'http_connection'
p1447
asbag56
(g77
g58
NtRp1448
(dp1449
g61
(dp1450
g88
g89
ssg70
g1439
sg63
(lp1451
S':'
asbag56
(g77
g58
NtRp1452
(dp1453
g61
(dp1454
sg70
g1439
sg63
(lp1455
g56
(g57
g58
NtRp1456
(dp1457
g61
(dp1458
g69
I4
ssg70
g1452
sg63
(lp1459
S'keep-alive'
p1460
asbasbasbag56
(g72
g58
NtRp1461
(dp1462
g61
(dp1463
sg70
g1191
sg63
(lp1464
g56
(g77
g58
NtRp1465
(dp1466
g61
(dp1467
g81
g82
ssg70
g1461
sg63
(lp1468
S'http_cookie'
p1469
asbag56
(g77
g58
NtRp1470
(dp1471
g61
(dp1472
g88
g89
ssg70
g1461
sg63
(lp1473
S':'
asbag56
(g77
g58
NtRp1474
(dp1475
g61
(dp1476
sg70
g1461
sg63
(lp1477
g56
(g57
g58
NtRp1478
(dp1479
g61
(dp1480
g69
I4
ssg70
g1474
sg63
(lp1481
S'session_id_welcome=127.0.0.1-9343e020-27e9-405b-976b-ed09849043e4; session_id_admin=127.0.0.1-f292cc01-f792-44fe-abe4-b2667851a938; adminLanguage=es-es; session_id_my_web=127.0.0.1-47c190eb-acb3-4e98-b30b-5e2f6df99186; session_id_datos=127.0.0.1-db62c583-5264-4eba-ba24-7cb87b43795a'
p1482
asbasbasbag56
(g72
g58
NtRp1483
(dp1484
g61
(dp1485
sg70
g1191
sg63
(lp1486
g56
(g77
g58
NtRp1487
(dp1488
g61
(dp1489
g81
g82
ssg70
g1483
sg63
(lp1490
S'http_host'
p1491
asbag56
(g77
g58
NtRp1492
(dp1493
g61
(dp1494
g88
g89
ssg70
g1483
sg63
(lp1495
S':'
asbag56
(g77
g58
NtRp1496
(dp1497
g61
(dp1498
sg70
g1483
sg63
(lp1499
g56
(g57
g58
NtRp1500
(dp1501
g61
(dp1502
g69
I4
ssg70
g1496
sg63
(lp1503
S'127.0.0.1:8000'
p1504
asbasbasbag56
(g72
g58
NtRp1505
(dp1506
g61
(dp1507
sg70
g1191
sg63
(lp1508
g56
(g77
g58
NtRp1509
(dp1510
g61
(dp1511
g81
g82
ssg70
g1505
sg63
(lp1512
S'http_user_agent'
p1513
asbag56
(g77
g58
NtRp1514
(dp1515
g61
(dp1516
g88
g89
ssg70
g1505
sg63
(lp1517
S':'
asbag56
(g77
g58
NtRp1518
(dp1519
g61
(dp1520
sg70
g1505
sg63
(lp1521
g56
(g57
g58
NtRp1522
(dp1523
g61
(dp1524
g69
I4
ssg70
g1518
sg63
(lp1525
S'Mozilla/5.0 (X11; Linux i686; rv:6.0) Gecko/20100101 Firefox/6.0'
p1526
asbasbasbag56
(g72
g58
NtRp1527
(dp1528
g61
(dp1529
sg70
g1191
sg63
(lp1530
g56
(g77
g58
NtRp1531
(dp1532
g61
(dp1533
g81
g82
ssg70
g1527
sg63
(lp1534
S'is_jython'
p1535
asbag56
(g77
g58
NtRp1536
(dp1537
g61
(dp1538
g88
g89
ssg70
g1527
sg63
(lp1539
S':'
asbag56
(g77
g58
NtRp1540
(dp1541
g61
(dp1542
sg70
g1527
sg63
(lp1543
g56
(g57
g58
NtRp1544
(dp1545
g61
(dp1546
g69
I4
ssg70
g1540
sg63
(lp1547
g99
asbasbasbag56
(g72
g58
NtRp1548
(dp1549
g61
(dp1550
sg70
g1191
sg63
(lp1551
g56
(g77
g58
NtRp1552
(dp1553
g61
(dp1554
g81
g82
ssg70
g1548
sg63
(lp1555
S'path_info'
p1556
asbag56
(g77
g58
NtRp1557
(dp1558
g61
(dp1559
g88
g89
ssg70
g1548
sg63
(lp1560
S':'
asbag56
(g77
g58
NtRp1561
(dp1562
g61
(dp1563
sg70
g1548
sg63
(lp1564
g56
(g57
g58
NtRp1565
(dp1566
g61
(dp1567
g69
I4
ssg70
g1561
sg63
(lp1568
S'/datos'
p1569
asbasbasbag56
(g72
g58
NtRp1570
(dp1571
g61
(dp1572
sg70
g1191
sg63
(lp1573
g56
(g77
g58
NtRp1574
(dp1575
g61
(dp1576
g81
g82
ssg70
g1570
sg63
(lp1577
S'query_string'
p1578
asbag56
(g77
g58
NtRp1579
(dp1580
g61
(dp1581
g88
g89
ssg70
g1570
sg63
(lp1582
S':'
asbag56
(g77
g58
NtRp1583
(dp1584
g61
(dp1585
sg70
g1570
sg63
(lp1586
g56
(g57
g58
NtRp1587
(dp1588
g61
(dp1589
g69
I4
ssg70
g1583
sg63
(lp1590
S''
asbasbasbag56
(g72
g58
NtRp1591
(dp1592
g61
(dp1593
sg70
g1191
sg63
(lp1594
g56
(g77
g58
NtRp1595
(dp1596
g61
(dp1597
g81
g82
ssg70
g1591
sg63
(lp1598
S'remote_addr'
p1599
asbag56
(g77
g58
NtRp1600
(dp1601
g61
(dp1602
g88
g89
ssg70
g1591
sg63
(lp1603
S':'
asbag56
(g77
g58
NtRp1604
(dp1605
g61
(dp1606
sg70
g1591
sg63
(lp1607
g56
(g57
g58
NtRp1608
(dp1609
g61
(dp1610
g69
I4
ssg70
g1604
sg63
(lp1611
g189
asbasbasbag56
(g72
g58
NtRp1612
(dp1613
g61
(dp1614
sg70
g1191
sg63
(lp1615
g56
(g77
g58
NtRp1616
(dp1617
g61
(dp1618
g81
g82
ssg70
g1612
sg63
(lp1619
S'remote_port'
p1620
asbag56
(g77
g58
NtRp1621
(dp1622
g61
(dp1623
g88
g89
ssg70
g1612
sg63
(lp1624
S':'
asbag56
(g77
g58
NtRp1625
(dp1626
g61
(dp1627
sg70
g1612
sg63
(lp1628
g56
(g57
g58
NtRp1629
(dp1630
g61
(dp1631
g69
I4
ssg70
g1625
sg63
(lp1632
S'53204'
p1633
asbasbasbag56
(g72
g58
NtRp1634
(dp1635
g61
(dp1636
sg70
g1191
sg63
(lp1637
g56
(g77
g58
NtRp1638
(dp1639
g61
(dp1640
g81
g82
ssg70
g1634
sg63
(lp1641
S'request_method'
p1642
asbag56
(g77
g58
NtRp1643
(dp1644
g61
(dp1645
g88
g89
ssg70
g1634
sg63
(lp1646
S':'
asbag56
(g77
g58
NtRp1647
(dp1648
g61
(dp1649
sg70
g1634
sg63
(lp1650
g56
(g57
g58
NtRp1651
(dp1652
g61
(dp1653
g69
I4
ssg70
g1647
sg63
(lp1654
S'GET'
p1655
asbasbasbag56
(g72
g58
NtRp1656
(dp1657
g61
(dp1658
sg70
g1191
sg63
(lp1659
g56
(g77
g58
NtRp1660
(dp1661
g61
(dp1662
g81
g82
ssg70
g1656
sg63
(lp1663
S'script_name'
p1664
asbag56
(g77
g58
NtRp1665
(dp1666
g61
(dp1667
g88
g89
ssg70
g1656
sg63
(lp1668
S':'
asbag56
(g77
g58
NtRp1669
(dp1670
g61
(dp1671
sg70
g1656
sg63
(lp1672
g56
(g57
g58
NtRp1673
(dp1674
g61
(dp1675
g69
I4
ssg70
g1669
sg63
(lp1676
S''
asbasbasbag56
(g72
g58
NtRp1677
(dp1678
g61
(dp1679
sg70
g1191
sg63
(lp1680
g56
(g77
g58
NtRp1681
(dp1682
g61
(dp1683
g81
g82
ssg70
g1677
sg63
(lp1684
S'server_name'
p1685
asbag56
(g77
g58
NtRp1686
(dp1687
g61
(dp1688
g88
g89
ssg70
g1677
sg63
(lp1689
S':'
asbag56
(g77
g58
NtRp1690
(dp1691
g61
(dp1692
sg70
g1677
sg63
(lp1693
g56
(g57
g58
NtRp1694
(dp1695
g61
(dp1696
g69
I4
ssg70
g1690
sg63
(lp1697
S'ubuntu-dev'
p1698
asbasbasbag56
(g72
g58
NtRp1699
(dp1700
g61
(dp1701
sg70
g1191
sg63
(lp1702
g56
(g77
g58
NtRp1703
(dp1704
g61
(dp1705
g81
g82
ssg70
g1699
sg63
(lp1706
S'server_port'
p1707
asbag56
(g77
g58
NtRp1708
(dp1709
g61
(dp1710
g88
g89
ssg70
g1699
sg63
(lp1711
S':'
asbag56
(g77
g58
NtRp1712
(dp1713
g61
(dp1714
sg70
g1699
sg63
(lp1715
g56
(g57
g58
NtRp1716
(dp1717
g61
(dp1718
g69
I4
ssg70
g1712
sg63
(lp1719
S'8000'
p1720
asbasbasbag56
(g72
g58
NtRp1721
(dp1722
g61
(dp1723
sg70
g1191
sg63
(lp1724
g56
(g77
g58
NtRp1725
(dp1726
g61
(dp1727
g81
g82
ssg70
g1721
sg63
(lp1728
S'server_protocol'
p1729
asbag56
(g77
g58
NtRp1730
(dp1731
g61
(dp1732
g88
g89
ssg70
g1721
sg63
(lp1733
S':'
asbag56
(g77
g58
NtRp1734
(dp1735
g61
(dp1736
sg70
g1721
sg63
(lp1737
g56
(g57
g58
NtRp1738
(dp1739
g61
(dp1740
g69
I4
ssg70
g1734
sg63
(lp1741
S'HTTP/1.1'
p1742
asbasbasbag56
(g72
g58
NtRp1743
(dp1744
g61
(dp1745
sg70
g1191
sg63
(lp1746
g56
(g77
g58
NtRp1747
(dp1748
g61
(dp1749
g81
g82
ssg70
g1743
sg63
(lp1750
S'server_software'
p1751
asbag56
(g77
g58
NtRp1752
(dp1753
g61
(dp1754
g88
g89
ssg70
g1743
sg63
(lp1755
S':'
asbag56
(g77
g58
NtRp1756
(dp1757
g61
(dp1758
sg70
g1743
sg63
(lp1759
g56
(g57
g58
NtRp1760
(dp1761
g61
(dp1762
g69
I4
ssg70
g1756
sg63
(lp1763
S'Rocket 1.2.2'
p1764
asbasbasbag56
(g72
g58
NtRp1765
(dp1766
g61
(dp1767
sg70
g1191
sg63
(lp1768
g56
(g77
g58
NtRp1769
(dp1770
g61
(dp1771
g81
g82
ssg70
g1765
sg63
(lp1772
S'web2py_crontype'
p1773
asbag56
(g77
g58
NtRp1774
(dp1775
g61
(dp1776
g88
g89
ssg70
g1765
sg63
(lp1777
S':'
asbag56
(g77
g58
NtRp1778
(dp1779
g61
(dp1780
sg70
g1765
sg63
(lp1781
g56
(g57
g58
NtRp1782
(dp1783
g61
(dp1784
g69
I4
ssg70
g1778
sg63
(lp1785
S'hard'
p1786
asbasbasbag56
(g72
g58
NtRp1787
(dp1788
g61
(dp1789
sg70
g1191
sg63
(lp1790
g56
(g77
g58
NtRp1791
(dp1792
g61
(dp1793
g81
g82
ssg70
g1787
sg63
(lp1794
S'web2py_path'
p1795
asbag56
(g77
g58
NtRp1796
(dp1797
g61
(dp1798
g88
g89
ssg70
g1787
sg63
(lp1799
S':'
asbag56
(g77
g58
NtRp1800
(dp1801
g61
(dp1802
sg70
g1787
sg63
(lp1803
g56
(g57
g58
NtRp1804
(dp1805
g61
(dp1806
g69
I4
ssg70
g1800
sg63
(lp1807
g1238
asbasbasbag56
(g72
g58
NtRp1808
(dp1809
g61
(dp1810
sg70
g1191
sg63
(lp1811
g56
(g77
g58
NtRp1812
(dp1813
g61
(dp1814
g81
g82
ssg70
g1808
sg63
(lp1815
S'web2py_version'
p1816
asbag56
(g77
g58
NtRp1817
(dp1818
g61
(dp1819
g88
g89
ssg70
g1808
sg63
(lp1820
S':'
asbag56
(g77
g58
NtRp1821
(dp1822
g61
(dp1823
sg70
g1808
sg63
(lp1824
g56
(g57
g58
NtRp1825
(dp1826
g61
(dp1827
g69
I4
ssg70
g1821
sg63
(lp1828
S'Version 1.98.2 (2011-08-04 00:47:09)\n'
p1829
asbasbasbag56
(g72
g58
NtRp1830
(dp1831
g61
(dp1832
sg70
g1191
sg63
(lp1833
g56
(g77
g58
NtRp1834
(dp1835
g61
(dp1836
g81
g82
ssg70
g1830
sg63
(lp1837
S'wsgi_errors'
p1838
asbag56
(g77
g58
NtRp1839
(dp1840
g61
(dp1841
g88
g89
ssg70
g1830
sg63
(lp1842
S':'
asbag56
(g77
g58
NtRp1843
(dp1844
g61
(dp1845
sg70
g1830
sg63
(lp1846
g56
(g57
g58
NtRp1847
(dp1848
g61
(dp1849
g69
I4
ssg70
g1843
sg63
(lp1850
S"<open file '<stderr>', mode 'w' at 0xb76e20d0>"
p1851
asbasbasbag56
(g72
g58
NtRp1852
(dp1853
g61
(dp1854
sg70
g1191
sg63
(lp1855
g56
(g77
g58
NtRp1856
(dp1857
g61
(dp1858
g81
g82
ssg70
g1852
sg63
(lp1859
S'wsgi_file_wrapper'
p1860
asbag56
(g77
g58
NtRp1861
(dp1862
g61
(dp1863
g88
g89
ssg70
g1852
sg63
(lp1864
S':'
asbag56
(g77
g58
NtRp1865
(dp1866
g61
(dp1867
sg70
g1852
sg63
(lp1868
g56
(g57
g58
NtRp1869
(dp1870
g61
(dp1871
g69
I4
ssg70
g1865
sg63
(lp1872
S'<class gluon.rocket.FileWrapper at 0x96a132c>'
p1873
asbasbasbag56
(g72
g58
NtRp1874
(dp1875
g61
(dp1876
sg70
g1191
sg63
(lp1877
g56
(g77
g58
NtRp1878
(dp1879
g61
(dp1880
g81
g82
ssg70
g1874
sg63
(lp1881
S'wsgi_input'
p1882
asbag56
(g77
g58
NtRp1883
(dp1884
g61
(dp1885
g88
g89
ssg70
g1874
sg63
(lp1886
S':'
asbag56
(g77
g58
NtRp1887
(dp1888
g61
(dp1889
sg70
g1874
sg63
(lp1890
g56
(g57
g58
NtRp1891
(dp1892
g61
(dp1893
g69
I4
ssg70
g1887
sg63
(lp1894
S'<socket._fileobject object at 0x9bf82ac>'
p1895
asbasbasbag56
(g72
g58
NtRp1896
(dp1897
g61
(dp1898
sg70
g1191
sg63
(lp1899
g56
(g77
g58
NtRp1900
(dp1901
g61
(dp1902
g81
g82
ssg70
g1896
sg63
(lp1903
S'wsgi_multiprocess'
p1904
asbag56
(g77
g58
NtRp1905
(dp1906
g61
(dp1907
g88
g89
ssg70
g1896
sg63
(lp1908
S':'
asbag56
(g77
g58
NtRp1909
(dp1910
g61
(dp1911
sg70
g1896
sg63
(lp1912
g56
(g57
g58
NtRp1913
(dp1914
g61
(dp1915
g69
I4
ssg70
g1909
sg63
(lp1916
g99
asbasbasbag56
(g72
g58
NtRp1917
(dp1918
g61
(dp1919
sg70
g1191
sg63
(lp1920
g56
(g77
g58
NtRp1921
(dp1922
g61
(dp1923
g81
g82
ssg70
g1917
sg63
(lp1924
S'wsgi_multithread'
p1925
asbag56
(g77
g58
NtRp1926
(dp1927
g61
(dp1928
g88
g89
ssg70
g1917
sg63
(lp1929
S':'
asbag56
(g77
g58
NtRp1930
(dp1931
g61
(dp1932
sg70
g1917
sg63
(lp1933
g56
(g57
g58
NtRp1934
(dp1935
g61
(dp1936
g69
I4
ssg70
g1930
sg63
(lp1937
S'True'
p1938
asbasbasbag56
(g72
g58
NtRp1939
(dp1940
g61
(dp1941
sg70
g1191
sg63
(lp1942
g56
(g77
g58
NtRp1943
(dp1944
g61
(dp1945
g81
g82
ssg70
g1939
sg63
(lp1946
S'wsgi_run_once'
p1947
asbag56
(g77
g58
NtRp1948
(dp1949
g61
(dp1950
g88
g89
ssg70
g1939
sg63
(lp1951
S':'
asbag56
(g77
g58
NtRp1952
(dp1953
g61
(dp1954
sg70
g1939
sg63
(lp1955
g56
(g57
g58
NtRp1956
(dp1957
g61
(dp1958
g69
I4
ssg70
g1952
sg63
(lp1959
g99
asbasbasbag56
(g72
g58
NtRp1960
(dp1961
g61
(dp1962
sg70
g1191
sg63
(lp1963
g56
(g77
g58
NtRp1964
(dp1965
g61
(dp1966
g81
g82
ssg70
g1960
sg63
(lp1967
S'wsgi_url_scheme'
p1968
asbag56
(g77
g58
NtRp1969
(dp1970
g61
(dp1971
g88
g89
ssg70
g1960
sg63
(lp1972
S':'
asbag56
(g77
g58
NtRp1973
(dp1974
g61
(dp1975
sg70
g1960
sg63
(lp1976
g56
(g57
g58
NtRp1977
(dp1978
g61
(dp1979
g69
I4
ssg70
g1973
sg63
(lp1980
S'http'
p1981
asbasbasbag56
(g72
g58
NtRp1982
(dp1983
g61
(dp1984
sg70
g1191
sg63
(lp1985
g56
(g77
g58
NtRp1986
(dp1987
g61
(dp1988
g81
g82
ssg70
g1982
sg63
(lp1989
S'wsgi_version'
p1990
asbag56
(g77
g58
NtRp1991
(dp1992
g61
(dp1993
g88
g89
ssg70
g1982
sg63
(lp1994
S':'
asbag56
(g77
g58
NtRp1995
(dp1996
g61
(dp1997
sg70
g1982
sg63
(lp1998
g56
(g57
g58
NtRp1999
(dp2000
g61
(dp2001
g69
I4
ssg70
g1995
sg63
(lp2002
g56
(g65
g58
NtRp2003
(dp2004
g61
(dp2005
g69
I3
ssg70
Nsg63
(lp2006
g56
(g72
g58
NtRp2007
(dp2008
g61
(dp2009
sg70
g2003
sg63
(lp2010
g56
(g77
g58
NtRp2011
(dp2012
g61
(dp2013
sg70
g2007
sg63
(lp2014
g56
(g57
g58
NtRp2015
(dp2016
g61
(dp2017
g69
I3
ssg70
g2011
sg63
(lp2018
S'1'
asbasbasbag56
(g72
g58
NtRp2019
(dp2020
g61
(dp2021
sg70
g2003
sg63
(lp2022
g56
(g77
g58
NtRp2023
(dp2024
g61
(dp2025
sg70
g2019
sg63
(lp2026
g56
(g57
g58
NtRp2027
(dp2028
g61
(dp2029
g69
I3
ssg70
g2023
sg63
(lp2030
S'0'
asbasbasbasbasbasbasbasbasbasbasbag56
(g72
g58
NtRp2031
(dp2032
g61
(dp2033
sg70
g66
sg63
(lp2034
g56
(g77
g58
NtRp2035
(dp2036
g61
(dp2037
g81
g82
ssg70
g2031
sg63
(lp2038
S'extension'
p2039
asbag56
(g77
g58
NtRp2040
(dp2041
g61
(dp2042
g88
g89
ssg70
g2031
sg63
(lp2043
S':'
asbag56
(g77
g58
NtRp2044
(dp2045
g61
(dp2046
sg70
g2031
sg63
(lp2047
g56
(g57
g58
NtRp2048
(dp2049
g61
(dp2050
g69
I5
ssg70
g2044
sg63
(lp2051
S'html'
p2052
asbasbasbag56
(g72
g58
NtRp2053
(dp2054
g61
(dp2055
sg70
g66
sg63
(lp2056
g56
(g77
g58
NtRp2057
(dp2058
g61
(dp2059
g81
g82
ssg70
g2053
sg63
(lp2060
S'folder'
p2061
asbag56
(g77
g58
NtRp2062
(dp2063
g61
(dp2064
g88
g89
ssg70
g2053
sg63
(lp2065
S':'
asbag56
(g77
g58
NtRp2066
(dp2067
g61
(dp2068
sg70
g2053
sg63
(lp2069
g56
(g57
g58
NtRp2070
(dp2071
g61
(dp2072
g69
I5
ssg70
g2066
sg63
(lp2073
S'/home/alumno/web2py/applications/datos/'
p2074
asbasbasbag56
(g72
g58
NtRp2075
(dp2076
g61
(dp2077
sg70
g66
sg63
(lp2078
g56
(g77
g58
NtRp2079
(dp2080
g61
(dp2081
g81
g82
ssg70
g2075
sg63
(lp2082
S'function'
p2083
asbag56
(g77
g58
NtRp2084
(dp2085
g61
(dp2086
g88
g89
ssg70
g2075
sg63
(lp2087
S':'
asbag56
(g77
g58
NtRp2088
(dp2089
g61
(dp2090
sg70
g2075
sg63
(lp2091
g56
(g57
g58
NtRp2092
(dp2093
g61
(dp2094
g69
I5
ssg70
g2088
sg63
(lp2095
S'index'
p2096
asbasbasbag56
(g72
g58
NtRp2097
(dp2098
g61
(dp2099
sg70
g66
sg63
(lp2100
g56
(g77
g58
NtRp2101
(dp2102
g61
(dp2103
g81
g82
ssg70
g2097
sg63
(lp2104
S'get_vars'
p2105
asbag56
(g77
g58
NtRp2106
(dp2107
g61
(dp2108
g88
g89
ssg70
g2097
sg63
(lp2109
S':'
asbag56
(g77
g58
NtRp2110
(dp2111
g61
(dp2112
sg70
g2097
sg63
(lp2113
g56
(g57
g58
NtRp2114
(dp2115
g61
(dp2116
g69
I5
ssg70
g2110
sg63
(lp2117
g56
(g65
g58
NtRp2118
(dp2119
g61
(dp2120
g69
I4
ssg70
Nsg63
(lp2121
sbasbasbasbag56
(g72
g58
NtRp2122
(dp2123
g61
(dp2124
sg70
g66
sg63
(lp2125
g56
(g77
g58
NtRp2126
(dp2127
g61
(dp2128
g81
g82
ssg70
g2122
sg63
(lp2129
S'is_https'
p2130
asbag56
(g77
g58
NtRp2131
(dp2132
g61
(dp2133
g88
g89
ssg70
g2122
sg63
(lp2134
S':'
asbag56
(g77
g58
NtRp2135
(dp2136
g61
(dp2137
sg70
g2122
sg63
(lp2138
g56
(g57
g58
NtRp2139
(dp2140
g61
(dp2141
g69
I5
ssg70
g2135
sg63
(lp2142
g99
asbasbasbag56
(g72
g58
NtRp2143
(dp2144
g61
(dp2145
sg70
g66
sg63
(lp2146
g56
(g77
g58
NtRp2147
(dp2148
g61
(dp2149
g81
g82
ssg70
g2143
sg63
(lp2150
S'is_local'
p2151
asbag56
(g77
g58
NtRp2152
(dp2153
g61
(dp2154
g88
g89
ssg70
g2143
sg63
(lp2155
S':'
asbag56
(g77
g58
NtRp2156
(dp2157
g61
(dp2158
sg70
g2143
sg63
(lp2159
g56
(g57
g58
NtRp2160
(dp2161
g61
(dp2162
g69
I5
ssg70
g2156
sg63
(lp2163
g1938
asbasbasbag56
(g72
g58
NtRp2164
(dp2165
g61
(dp2166
sg70
g66
sg63
(lp2167
g56
(g77
g58
NtRp2168
(dp2169
g61
(dp2170
g81
g82
ssg70
g2164
sg63
(lp2171
S'is_restful'
p2172
asbag56
(g77
g58
NtRp2173
(dp2174
g61
(dp2175
g88
g89
ssg70
g2164
sg63
(lp2176
S':'
asbag56
(g77
g58
NtRp2177
(dp2178
g61
(dp2179
sg70
g2164
sg63
(lp2180
g56
(g57
g58
NtRp2181
(dp2182
g61
(dp2183
g69
I5
ssg70
g2177
sg63
(lp2184
g99
asbasbasbag56
(g72
g58
NtRp2185
(dp2186
g61
(dp2187
sg70
g66
sg63
(lp2188
g56
(g77
g58
NtRp2189
(dp2190
g61
(dp2191
g81
g82
ssg70
g2185
sg63
(lp2192
S'now'
p2193
asbag56
(g77
g58
NtRp2194
(dp2195
g61
(dp2196
g88
g89
ssg70
g2185
sg63
(lp2197
S':'
asbag56
(g77
g58
NtRp2198
(dp2199
g61
(dp2200
sg70
g2185
sg63
(lp2201
g56
(g57
g58
NtRp2202
(dp2203
g61
(dp2204
g69
I5
ssg70
g2198
sg63
(lp2205
S'datetime.datetime(2011, 9, 7, 19, 52, 16, 294965)'
p2206
asbasbasbag56
(g72
g58
NtRp2207
(dp2208
g61
(dp2209
sg70
g66
sg63
(lp2210
g56
(g77
g58
NtRp2211
(dp2212
g61
(dp2213
g81
g82
ssg70
g2207
sg63
(lp2214
S'post_vars'
p2215
asbag56
(g77
g58
NtRp2216
(dp2217
g61
(dp2218
g88
g89
ssg70
g2207
sg63
(lp2219
S':'
asbag56
(g77
g58
NtRp2220
(dp2221
g61
(dp2222
sg70
g2207
sg63
(lp2223
g56
(g57
g58
NtRp2224
(dp2225
g61
(dp2226
g69
I5
ssg70
g2220
sg63
(lp2227
g56
(g65
g58
NtRp2228
(dp2229
g61
(dp2230
g69
I4
ssg70
Nsg63
(lp2231
sbasbasbasbag56
(g72
g58
NtRp2232
(dp2233
g61
(dp2234
sg70
g66
sg63
(lp2235
g56
(g77
g58
NtRp2236
(dp2237
g61
(dp2238
g81
g82
ssg70
g2232
sg63
(lp2239
S'url'
p2240
asbag56
(g77
g58
NtRp2241
(dp2242
g61
(dp2243
g88
g89
ssg70
g2232
sg63
(lp2244
S':'
asbag56
(g77
g58
NtRp2245
(dp2246
g61
(dp2247
sg70
g2232
sg63
(lp2248
g56
(g57
g58
NtRp2249
(dp2250
g61
(dp2251
g69
I5
ssg70
g2245
sg63
(lp2252
S'/datos/default/index'
p2253
asbasbasbag56
(g72
g58
NtRp2254
(dp2255
g61
(dp2256
sg70
g66
sg63
(lp2257
g56
(g77
g58
NtRp2258
(dp2259
g61
(dp2260
g81
g82
ssg70
g2254
sg63
(lp2261
S'uuid'
p2262
asbag56
(g77
g58
NtRp2263
(dp2264
g61
(dp2265
g88
g89
ssg70
g2254
sg63
(lp2266
S':'
asbag56
(g77
g58
NtRp2267
(dp2268
g61
(dp2269
sg70
g2254
sg63
(lp2270
g56
(g57
g58
NtRp2271
(dp2272
g61
(dp2273
g69
I5
ssg70
g2267
sg63
(lp2274
S'datos/127.0.0.1.2011-09-07.19-52-16.ba43c40c-19b1-4c2f-bab1-f0c8fc42597e'
p2275
asbasbasbag56
(g72
g58
NtRp2276
(dp2277
g61
(dp2278
sg70
g66
sg63
(lp2279
g56
(g77
g58
NtRp2280
(dp2281
g61
(dp2282
g81
g82
ssg70
g2276
sg63
(lp2283
S'vars'
p2284
asbag56
(g77
g58
NtRp2285
(dp2286
g61
(dp2287
g88
g89
ssg70
g2276
sg63
(lp2288
S':'
asbag56
(g77
g58
NtRp2289
(dp2290
g61
(dp2291
sg70
g2276
sg63
(lp2292
g56
(g57
g58
NtRp2293
(dp2294
g61
(dp2295
g69
I5
ssg70
g2289
sg63
(lp2296
g56
(g65
g58
NtRp2297
(dp2298
g61
(dp2299
g69
I4
ssg70
Nsg63
(lp2300
sbasbasbasbag56
(g72
g58
NtRp2301
(dp2302
g61
(dp2303
sg70
g66
sg63
(lp2304
g56
(g77
g58
NtRp2305
(dp2306
g61
(dp2307
g81
g82
ssg70
g2301
sg63
(lp2308
S'wsgi'
p2309
asbag56
(g77
g58
NtRp2310
(dp2311
g61
(dp2312
g88
g89
ssg70
g2301
sg63
(lp2313
S':'
asbag56
(g77
g58
NtRp2314
(dp2315
g61
(dp2316
sg70
g2301
sg63
(lp2317
g56
(g57
g58
NtRp2318
(dp2319
g61
(dp2320
g69
I5
ssg70
g2314
sg63
(lp2321
g56
(g65
g58
NtRp2322
(dp2323
g61
(dp2324
g69
I4
ssg70
Nsg63
(lp2325
g56
(g72
g58
NtRp2326
(dp2327
g61
(dp2328
sg70
g2322
sg63
(lp2329
g56
(g77
g58
NtRp2330
(dp2331
g61
(dp2332
g81
g82
ssg70
g2326
sg63
(lp2333
S'environ'
p2334
asbag56
(g77
g58
NtRp2335
(dp2336
g61
(dp2337
g88
g89
ssg70
g2326
sg63
(lp2338
S':'
asbag56
(g77
g58
NtRp2339
(dp2340
g61
(dp2341
sg70
g2326
sg63
(lp2342
g56
(g57
g58
NtRp2343
(dp2344
g61
(dp2345
g69
I4
ssg70
g2339
sg63
(lp2346
g56
(g65
g58
NtRp2347
(dp2348
g61
(dp2349
g69
I3
ssg70
Nsg63
(lp2350
g56
(g72
g58
NtRp2351
(dp2352
g61
(dp2353
sg70
g2347
sg63
(lp2354
g56
(g77
g58
NtRp2355
(dp2356
g61
(dp2357
g81
g82
ssg70
g2351
sg63
(lp2358
S'HTTP_ACCEPT'
p2359
asbag56
(g77
g58
NtRp2360
(dp2361
g61
(dp2362
g88
g89
ssg70
g2351
sg63
(lp2363
S':'
asbag56
(g77
g58
NtRp2364
(dp2365
g61
(dp2366
sg70
g2351
sg63
(lp2367
g56
(g57
g58
NtRp2368
(dp2369
g61
(dp2370
g69
I3
ssg70
g2364
sg63
(lp2371
g1372
asbasbasbag56
(g72
g58
NtRp2372
(dp2373
g61
(dp2374
sg70
g2347
sg63
(lp2375
g56
(g77
g58
NtRp2376
(dp2377
g61
(dp2378
g81
g82
ssg70
g2372
sg63
(lp2379
S'HTTP_ACCEPT_CHARSET'
p2380
asbag56
(g77
g58
NtRp2381
(dp2382
g61
(dp2383
g88
g89
ssg70
g2372
sg63
(lp2384
S':'
asbag56
(g77
g58
NtRp2385
(dp2386
g61
(dp2387
sg70
g2372
sg63
(lp2388
g56
(g57
g58
NtRp2389
(dp2390
g61
(dp2391
g69
I3
ssg70
g2385
sg63
(lp2392
g1394
asbasbasbag56
(g72
g58
NtRp2393
(dp2394
g61
(dp2395
sg70
g2347
sg63
(lp2396
g56
(g77
g58
NtRp2397
(dp2398
g61
(dp2399
g81
g82
ssg70
g2393
sg63
(lp2400
S'HTTP_ACCEPT_ENCODING'
p2401
asbag56
(g77
g58
NtRp2402
(dp2403
g61
(dp2404
g88
g89
ssg70
g2393
sg63
(lp2405
S':'
asbag56
(g77
g58
NtRp2406
(dp2407
g61
(dp2408
sg70
g2393
sg63
(lp2409
g56
(g57
g58
NtRp2410
(dp2411
g61
(dp2412
g69
I3
ssg70
g2406
sg63
(lp2413
g1416
asbasbasbag56
(g72
g58
NtRp2414
(dp2415
g61
(dp2416
sg70
g2347
sg63
(lp2417
g56
(g77
g58
NtRp2418
(dp2419
g61
(dp2420
g81
g82
ssg70
g2414
sg63
(lp2421
S'HTTP_ACCEPT_LANGUAGE'
p2422
asbag56
(g77
g58
NtRp2423
(dp2424
g61
(dp2425
g88
g89
ssg70
g2414
sg63
(lp2426
S':'
asbag56
(g77
g58
NtRp2427
(dp2428
g61
(dp2429
sg70
g2414
sg63
(lp2430
g56
(g57
g58
NtRp2431
(dp2432
g61
(dp2433
g69
I3
ssg70
g2427
sg63
(lp2434
g1438
asbasbasbag56
(g72
g58
NtRp2435
(dp2436
g61
(dp2437
sg70
g2347
sg63
(lp2438
g56
(g77
g58
NtRp2439
(dp2440
g61
(dp2441
g81
g82
ssg70
g2435
sg63
(lp2442
S'HTTP_CONNECTION'
p2443
asbag56
(g77
g58
NtRp2444
(dp2445
g61
(dp2446
g88
g89
ssg70
g2435
sg63
(lp2447
S':'
asbag56
(g77
g58
NtRp2448
(dp2449
g61
(dp2450
sg70
g2435
sg63
(lp2451
g56
(g57
g58
NtRp2452
(dp2453
g61
(dp2454
g69
I3
ssg70
g2448
sg63
(lp2455
g1460
asbasbasbag56
(g72
g58
NtRp2456
(dp2457
g61
(dp2458
sg70
g2347
sg63
(lp2459
g56
(g77
g58
NtRp2460
(dp2461
g61
(dp2462
g81
g82
ssg70
g2456
sg63
(lp2463
S'HTTP_COOKIE'
p2464
asbag56
(g77
g58
NtRp2465
(dp2466
g61
(dp2467
g88
g89
ssg70
g2456
sg63
(lp2468
S':'
asbag56
(g77
g58
NtRp2469
(dp2470
g61
(dp2471
sg70
g2456
sg63
(lp2472
g56
(g57
g58
NtRp2473
(dp2474
g61
(dp2475
g69
I3
ssg70
g2469
sg63
(lp2476
g1482
asbasbasbag56
(g72
g58
NtRp2477
(dp2478
g61
(dp2479
sg70
g2347
sg63
(lp2480
g56
(g77
g58
NtRp2481
(dp2482
g61
(dp2483
g81
g82
ssg70
g2477
sg63
(lp2484
S'HTTP_HOST'
p2485
asbag56
(g77
g58
NtRp2486
(dp2487
g61
(dp2488
g88
g89
ssg70
g2477
sg63
(lp2489
S':'
asbag56
(g77
g58
NtRp2490
(dp2491
g61
(dp2492
sg70
g2477
sg63
(lp2493
g56
(g57
g58
NtRp2494
(dp2495
g61
(dp2496
g69
I3
ssg70
g2490
sg63
(lp2497
g1504
asbasbasbag56
(g72
g58
NtRp2498
(dp2499
g61
(dp2500
sg70
g2347
sg63
(lp2501
g56
(g77
g58
NtRp2502
(dp2503
g61
(dp2504
g81
g82
ssg70
g2498
sg63
(lp2505
S'HTTP_USER_AGENT'
p2506
asbag56
(g77
g58
NtRp2507
(dp2508
g61
(dp2509
g88
g89
ssg70
g2498
sg63
(lp2510
S':'
asbag56
(g77
g58
NtRp2511
(dp2512
g61
(dp2513
sg70
g2498
sg63
(lp2514
g56
(g57
g58
NtRp2515
(dp2516
g61
(dp2517
g69
I3
ssg70
g2511
sg63
(lp2518
g1526
asbasbasbag56
(g72
g58
NtRp2519
(dp2520
g61
(dp2521
sg70
g2347
sg63
(lp2522
g56
(g77
g58
NtRp2523
(dp2524
g61
(dp2525
g81
g82
ssg70
g2519
sg63
(lp2526
S'PATH_INFO'
p2527
asbag56
(g77
g58
NtRp2528
(dp2529
g61
(dp2530
g88
g89
ssg70
g2519
sg63
(lp2531
S':'
asbag56
(g77
g58
NtRp2532
(dp2533
g61
(dp2534
sg70
g2519
sg63
(lp2535
g56
(g57
g58
NtRp2536
(dp2537
g61
(dp2538
g69
I3
ssg70
g2532
sg63
(lp2539
g1569
asbasbasbag56
(g72
g58
NtRp2540
(dp2541
g61
(dp2542
sg70
g2347
sg63
(lp2543
g56
(g77
g58
NtRp2544
(dp2545
g61
(dp2546
g81
g82
ssg70
g2540
sg63
(lp2547
S'QUERY_STRING'
p2548
asbag56
(g77
g58
NtRp2549
(dp2550
g61
(dp2551
g88
g89
ssg70
g2540
sg63
(lp2552
S':'
asbag56
(g77
g58
NtRp2553
(dp2554
g61
(dp2555
sg70
g2540
sg63
(lp2556
g56
(g57
g58
NtRp2557
(dp2558
g61
(dp2559
g69
I3
ssg70
g2553
sg63
(lp2560
S''
asbasbasbag56
(g72
g58
NtRp2561
(dp2562
g61
(dp2563
sg70
g2347
sg63
(lp2564
g56
(g77
g58
NtRp2565
(dp2566
g61
(dp2567
g81
g82
ssg70
g2561
sg63
(lp2568
S'REMOTE_ADDR'
p2569
asbag56
(g77
g58
NtRp2570
(dp2571
g61
(dp2572
g88
g89
ssg70
g2561
sg63
(lp2573
S':'
asbag56
(g77
g58
NtRp2574
(dp2575
g61
(dp2576
sg70
g2561
sg63
(lp2577
g56
(g57
g58
NtRp2578
(dp2579
g61
(dp2580
g69
I3
ssg70
g2574
sg63
(lp2581
g189
asbasbasbag56
(g72
g58
NtRp2582
(dp2583
g61
(dp2584
sg70
g2347
sg63
(lp2585
g56
(g77
g58
NtRp2586
(dp2587
g61
(dp2588
g81
g82
ssg70
g2582
sg63
(lp2589
S'REMOTE_PORT'
p2590
asbag56
(g77
g58
NtRp2591
(dp2592
g61
(dp2593
g88
g89
ssg70
g2582
sg63
(lp2594
S':'
asbag56
(g77
g58
NtRp2595
(dp2596
g61
(dp2597
sg70
g2582
sg63
(lp2598
g56
(g57
g58
NtRp2599
(dp2600
g61
(dp2601
g69
I3
ssg70
g2595
sg63
(lp2602
g1633
asbasbasbag56
(g72
g58
NtRp2603
(dp2604
g61
(dp2605
sg70
g2347
sg63
(lp2606
g56
(g77
g58
NtRp2607
(dp2608
g61
(dp2609
g81
g82
ssg70
g2603
sg63
(lp2610
S'REQUEST_METHOD'
p2611
asbag56
(g77
g58
NtRp2612
(dp2613
g61
(dp2614
g88
g89
ssg70
g2603
sg63
(lp2615
S':'
asbag56
(g77
g58
NtRp2616
(dp2617
g61
(dp2618
sg70
g2603
sg63
(lp2619
g56
(g57
g58
NtRp2620
(dp2621
g61
(dp2622
g69
I3
ssg70
g2616
sg63
(lp2623
g1655
asbasbasbag56
(g72
g58
NtRp2624
(dp2625
g61
(dp2626
sg70
g2347
sg63
(lp2627
g56
(g77
g58
NtRp2628
(dp2629
g61
(dp2630
g81
g82
ssg70
g2624
sg63
(lp2631
S'SCRIPT_NAME'
p2632
asbag56
(g77
g58
NtRp2633
(dp2634
g61
(dp2635
g88
g89
ssg70
g2624
sg63
(lp2636
S':'
asbag56
(g77
g58
NtRp2637
(dp2638
g61
(dp2639
sg70
g2624
sg63
(lp2640
g56
(g57
g58
NtRp2641
(dp2642
g61
(dp2643
g69
I3
ssg70
g2637
sg63
(lp2644
S''
asbasbasbag56
(g72
g58
NtRp2645
(dp2646
g61
(dp2647
sg70
g2347
sg63
(lp2648
g56
(g77
g58
NtRp2649
(dp2650
g61
(dp2651
g81
g82
ssg70
g2645
sg63
(lp2652
S'SERVER_NAME'
p2653
asbag56
(g77
g58
NtRp2654
(dp2655
g61
(dp2656
g88
g89
ssg70
g2645
sg63
(lp2657
S':'
asbag56
(g77
g58
NtRp2658
(dp2659
g61
(dp2660
sg70
g2645
sg63
(lp2661
g56
(g57
g58
NtRp2662
(dp2663
g61
(dp2664
g69
I3
ssg70
g2658
sg63
(lp2665
g1698
asbasbasbag56
(g72
g58
NtRp2666
(dp2667
g61
(dp2668
sg70
g2347
sg63
(lp2669
g56
(g77
g58
NtRp2670
(dp2671
g61
(dp2672
g81
g82
ssg70
g2666
sg63
(lp2673
S'SERVER_PORT'
p2674
asbag56
(g77
g58
NtRp2675
(dp2676
g61
(dp2677
g88
g89
ssg70
g2666
sg63
(lp2678
S':'
asbag56
(g77
g58
NtRp2679
(dp2680
g61
(dp2681
sg70
g2666
sg63
(lp2682
g56
(g57
g58
NtRp2683
(dp2684
g61
(dp2685
g69
I3
ssg70
g2679
sg63
(lp2686
g1720
asbasbasbag56
(g72
g58
NtRp2687
(dp2688
g61
(dp2689
sg70
g2347
sg63
(lp2690
g56
(g77
g58
NtRp2691
(dp2692
g61
(dp2693
g81
g82
ssg70
g2687
sg63
(lp2694
S'SERVER_PROTOCOL'
p2695
asbag56
(g77
g58
NtRp2696
(dp2697
g61
(dp2698
g88
g89
ssg70
g2687
sg63
(lp2699
S':'
asbag56
(g77
g58
NtRp2700
(dp2701
g61
(dp2702
sg70
g2687
sg63
(lp2703
g56
(g57
g58
NtRp2704
(dp2705
g61
(dp2706
g69
I3
ssg70
g2700
sg63
(lp2707
g1742
asbasbasbag56
(g72
g58
NtRp2708
(dp2709
g61
(dp2710
sg70
g2347
sg63
(lp2711
g56
(g77
g58
NtRp2712
(dp2713
g61
(dp2714
g81
g82
ssg70
g2708
sg63
(lp2715
S'SERVER_SOFTWARE'
p2716
asbag56
(g77
g58
NtRp2717
(dp2718
g61
(dp2719
g88
g89
ssg70
g2708
sg63
(lp2720
S':'
asbag56
(g77
g58
NtRp2721
(dp2722
g61
(dp2723
sg70
g2708
sg63
(lp2724
g56
(g57
g58
NtRp2725
(dp2726
g61
(dp2727
g69
I3
ssg70
g2721
sg63
(lp2728
g1764
asbasbasbag56
(g72
g58
NtRp2729
(dp2730
g61
(dp2731
sg70
g2347
sg63
(lp2732
g56
(g77
g58
NtRp2733
(dp2734
g61
(dp2735
g81
g82
ssg70
g2729
sg63
(lp2736
S'wsgi.errors'
p2737
asbag56
(g77
g58
NtRp2738
(dp2739
g61
(dp2740
g88
g89
ssg70
g2729
sg63
(lp2741
S':'
asbag56
(g77
g58
NtRp2742
(dp2743
g61
(dp2744
sg70
g2729
sg63
(lp2745
g56
(g57
g58
NtRp2746
(dp2747
g61
(dp2748
g69
I3
ssg70
g2742
sg63
(lp2749
S"<open file '<stderr>', mode 'w' at 0xb76e20d0>"
p2750
asbasbasbag56
(g72
g58
NtRp2751
(dp2752
g61
(dp2753
sg70
g2347
sg63
(lp2754
g56
(g77
g58
NtRp2755
(dp2756
g61
(dp2757
g81
g82
ssg70
g2751
sg63
(lp2758
S'wsgi.file_wrapper'
p2759
asbag56
(g77
g58
NtRp2760
(dp2761
g61
(dp2762
g88
g89
ssg70
g2751
sg63
(lp2763
S':'
asbag56
(g77
g58
NtRp2764
(dp2765
g61
(dp2766
sg70
g2751
sg63
(lp2767
g56
(g57
g58
NtRp2768
(dp2769
g61
(dp2770
g69
I3
ssg70
g2764
sg63
(lp2771
S'<class gluon.rocket.FileWrapper at 0x96a132c>'
p2772
asbasbasbag56
(g72
g58
NtRp2773
(dp2774
g61
(dp2775
sg70
g2347
sg63
(lp2776
g56
(g77
g58
NtRp2777
(dp2778
g61
(dp2779
g81
g82
ssg70
g2773
sg63
(lp2780
S'wsgi.input'
p2781
asbag56
(g77
g58
NtRp2782
(dp2783
g61
(dp2784
g88
g89
ssg70
g2773
sg63
(lp2785
S':'
asbag56
(g77
g58
NtRp2786
(dp2787
g61
(dp2788
sg70
g2773
sg63
(lp2789
g56
(g57
g58
NtRp2790
(dp2791
g61
(dp2792
g69
I3
ssg70
g2786
sg63
(lp2793
S'<cStringIO.StringO object at 0x9dd3c00>'
p2794
asbasbasbag56
(g72
g58
NtRp2795
(dp2796
g61
(dp2797
sg70
g2347
sg63
(lp2798
g56
(g77
g58
NtRp2799
(dp2800
g61
(dp2801
g81
g82
ssg70
g2795
sg63
(lp2802
S'wsgi.multiprocess'
p2803
asbag56
(g77
g58
NtRp2804
(dp2805
g61
(dp2806
g88
g89
ssg70
g2795
sg63
(lp2807
S':'
asbag56
(g77
g58
NtRp2808
(dp2809
g61
(dp2810
sg70
g2795
sg63
(lp2811
g56
(g57
g58
NtRp2812
(dp2813
g61
(dp2814
g69
I3
ssg70
g2808
sg63
(lp2815
g99
asbasbasbag56
(g72
g58
NtRp2816
(dp2817
g61
(dp2818
sg70
g2347
sg63
(lp2819
g56
(g77
g58
NtRp2820
(dp2821
g61
(dp2822
g81
g82
ssg70
g2816
sg63
(lp2823
S'wsgi.multithread'
p2824
asbag56
(g77
g58
NtRp2825
(dp2826
g61
(dp2827
g88
g89
ssg70
g2816
sg63
(lp2828
S':'
asbag56
(g77
g58
NtRp2829
(dp2830
g61
(dp2831
sg70
g2816
sg63
(lp2832
g56
(g57
g58
NtRp2833
(dp2834
g61
(dp2835
g69
I3
ssg70
g2829
sg63
(lp2836
g1938
asbasbasbag56
(g72
g58
NtRp2837
(dp2838
g61
(dp2839
sg70
g2347
sg63
(lp2840
g56
(g77
g58
NtRp2841
(dp2842
g61
(dp2843
g81
g82
ssg70
g2837
sg63
(lp2844
S'wsgi.run_once'
p2845
asbag56
(g77
g58
NtRp2846
(dp2847
g61
(dp2848
g88
g89
ssg70
g2837
sg63
(lp2849
S':'
asbag56
(g77
g58
NtRp2850
(dp2851
g61
(dp2852
sg70
g2837
sg63
(lp2853
g56
(g57
g58
NtRp2854
(dp2855
g61
(dp2856
g69
I3
ssg70
g2850
sg63
(lp2857
g99
asbasbasbag56
(g72
g58
NtRp2858
(dp2859
g61
(dp2860
sg70
g2347
sg63
(lp2861
g56
(g77
g58
NtRp2862
(dp2863
g61
(dp2864
g81
g82
ssg70
g2858
sg63
(lp2865
S'wsgi.url_scheme'
p2866
asbag56
(g77
g58
NtRp2867
(dp2868
g61
(dp2869
g88
g89
ssg70
g2858
sg63
(lp2870
S':'
asbag56
(g77
g58
NtRp2871
(dp2872
g61
(dp2873
sg70
g2858
sg63
(lp2874
g56
(g57
g58
NtRp2875
(dp2876
g61
(dp2877
g69
I3
ssg70
g2871
sg63
(lp2878
g1981
asbasbasbag56
(g72
g58
NtRp2879
(dp2880
g61
(dp2881
sg70
g2347
sg63
(lp2882
g56
(g77
g58
NtRp2883
(dp2884
g61
(dp2885
g81
g82
ssg70
g2879
sg63
(lp2886
S'wsgi.version'
p2887
asbag56
(g77
g58
NtRp2888
(dp2889
g61
(dp2890
g88
g89
ssg70
g2879
sg63
(lp2891
S':'
asbag56
(g77
g58
NtRp2892
(dp2893
g61
(dp2894
sg70
g2879
sg63
(lp2895
g56
(g57
g58
NtRp2896
(dp2897
g61
(dp2898
g69
I3
ssg70
g2892
sg63
(lp2899
S'1'
asbasbasbasbasbasbasbasbasbasbasbasbasbsS'frames'
p2900
(lp2901
(dp2902
S'file'
p2903
S'/home/alumno/web2py/gluon/restricted.py'
p2904
sS'dump'
p2905
(dp2906
S'environment'
p2907
S"{'A': <class 'gluon.html.A'>, 'B': <class 'gluon.html.B'>, 'BEAUTIFY': <class 'gluon.html.BEAUTIFY'>, 'BODY': <class 'gluon.html.BODY'>, 'BR': <class 'gluon.html.BR'>, 'BUTTON': <class 'gluon.html.BUTTON'>, 'CAT': <class 'gluon.html.CAT'>, 'CENTER': <class 'gluon.html.CENTER'>, 'CLEANUP': <class 'gluon.validators.CLEANUP'>, 'CODE': <class 'gluon.html.CODE'>, ...}"
p2908
sS'ccode'
p2909
S'<code object <module> at 0xa358728, file "/home/...lications/datos/controllers/default.py", line 12>'
p2910
ssS'lnum'
p2911
I192
sS'lines'
p2912
(dp2913
I192
S'        exec ccode in environment'
p2914
sI193
S'    except HTTP:'
p2915
sI194
S'        raise'
p2916
sI195
S'    except Exception, error:'
p2917
sI196
S'        # XXX Show exception in Wing IDE if running in debugger'
p2918
sI187
S'    try:'
p2919
sI188
S'        if type(code) == types.CodeType:'
p2920
sI189
S'            ccode = code'
p2921
sI190
S'        else:'
p2922
sI191
S'            ccode = compile2(code,layer)'
p2923
ssS'call'
p2924
S"(code='# -*- coding: utf-8 -*-\\n# this file is released ...=crud())\\n\\nresponse._vars=response._caller(index)\\n', environment={'A': <class 'gluon.html.A'>, 'B': <class 'gluon.html.B'>, 'BEAUTIFY': <class 'gluon.html.BEAUTIFY'>, 'BODY': <class 'gluon.html.BODY'>, 'BR': <class 'gluon.html.BR'>, 'BUTTON': <class 'gluon.html.BUTTON'>, 'CAT': <class 'gluon.html.CAT'>, 'CENTER': <class 'gluon.html.CENTER'>, 'CLEANUP': <class 'gluon.validators.CLEANUP'>, 'CODE': <class 'gluon.html.CODE'>, ...}, layer='/home/alumno/web2py/applications/datos/controllers/default.py')"
p2925
sS'func'
p2926
S'restricted'
p2927
sa(dp2928
g2903
S'/home/alumno/web2py/applications/datos/controllers/default.py'
p2929
sg2905
(dp2930
S'auth'
p2931
S'undefined'
p2932
ssg2911
I54
sg2912
(dp2933
I49
S'    supports xml, json, xmlrpc, jsonrpc, amfrpc, rss, csv'
p2934
sI50
S'    """'
p2935
sI51
S'    return service()'
p2936
sI52
S''
sI53
S''
sI54
S'@auth.requires_signature()'
p2937
sI55
S'def data():'
p2938
sI56
S'    """'
p2939
sI57
S'    http://..../[app]/default/data/tables'
p2940
sI58
S'    http://..../[app]/default/data/create/[table]'
p2941
ssg2924
S'()'
p2942
sg2926
S'<module>'
p2943
sasS'pyver'
p2944
S'Python 2.6.6: /usr/bin/python'
p2945
sS'session'
p2946
g56
(g57
g58
NtRp2947
(dp2948
g61
(dp2949
sg63
(lp2950
g56
(g65
g58
NtRp2951
(dp2952
g61
(dp2953
g69
I5
ssg70
Nsg63
(lp2954
g56
(g72
g58
NtRp2955
(dp2956
g61
(dp2957
sg70
g2951
sg63
(lp2958
g56
(g77
g58
NtRp2959
(dp2960
g61
(dp2961
g81
g82
ssg70
g2955
sg63
(lp2962
S'last_query'
p2963
asbag56
(g77
g58
NtRp2964
(dp2965
g61
(dp2966
g88
g89
ssg70
g2955
sg63
(lp2967
S':'
asbag56
(g77
g58
NtRp2968
(dp2969
g61
(dp2970
sg70
g2955
sg63
(lp2971
g56
(g57
g58
NtRp2972
(dp2973
g61
(dp2974
g69
I5
ssg70
g2968
sg63
(lp2975
S'db.profesor.id>0'
p2976
asbasbasbasbasbsS'etype'
p2977
S"<type 'exceptions.NameError'>"
p2978
sS'date'
p2979
S'Wed Sep  7 19:52:16 2011'
p2980
sS'response'
p2981
g56
(g57
g58
NtRp2982
(dp2983
g61
(dp2984
sg63
(lp2985
g56
(g65
g58
NtRp2986
(dp2987
g61
(dp2988
g69
I5
ssg70
Nsg63
(lp2989
g56
(g72
g58
NtRp2990
(dp2991
g61
(dp2992
sg70
g2986
sg63
(lp2993
g56
(g77
g58
NtRp2994
(dp2995
g61
(dp2996
g81
g82
ssg70
g2990
sg63
(lp2997
g154
asbag56
(g77
g58
NtRp2998
(dp2999
g61
(dp3000
g88
g89
ssg70
g2990
sg63
(lp3001
S':'
asbag56
(g77
g58
NtRp3002
(dp3003
g61
(dp3004
sg70
g2990
sg63
(lp3005
g56
(g57
g58
NtRp3006
(dp3007
g61
(dp3008
g69
I5
ssg70
g3002
sg63
(lp3009
S'<cStringIO.StringO object at 0x9dd3560>'
p3010
asbasbasbag56
(g72
g58
NtRp3011
(dp3012
g61
(dp3013
sg70
g2986
sg63
(lp3014
g56
(g77
g58
NtRp3015
(dp3016
g61
(dp3017
g81
g82
ssg70
g3011
sg63
(lp3018
g220
asbag56
(g77
g58
NtRp3019
(dp3020
g61
(dp3021
g88
g89
ssg70
g3011
sg63
(lp3022
S':'
asbag56
(g77
g58
NtRp3023
(dp3024
g61
(dp3025
sg70
g3011
sg63
(lp3026
g56
(g57
g58
NtRp3027
(dp3028
g61
(dp3029
g69
I5
ssg70
g3023
sg63
(lp3030
g56
(g65
g58
NtRp3031
(dp3032
g61
(dp3033
g69
I4
ssg70
Nsg63
(lp3034
g56
(g72
g58
NtRp3035
(dp3036
g61
(dp3037
sg70
g3031
sg63
(lp3038
g56
(g77
g58
NtRp3039
(dp3040
g61
(dp3041
g81
g82
ssg70
g3035
sg63
(lp3042
S'session_id_datos'
p3043
asbag56
(g77
g58
NtRp3044
(dp3045
g61
(dp3046
g88
g89
ssg70
g3035
sg63
(lp3047
S':'
asbag56
(g77
g58
NtRp3048
(dp3049
g61
(dp3050
sg70
g3035
sg63
(lp3051
g56
(g57
g58
NtRp3052
(dp3053
g61
(dp3054
g69
I4
ssg70
g3048
sg63
(lp3055
g56
(g65
g58
NtRp3056
(dp3057
g61
(dp3058
g69
I3
ssg70
Nsg63
(lp3059
g56
(g72
g58
NtRp3060
(dp3061
g61
(dp3062
sg70
g3056
sg63
(lp3063
g56
(g77
g58
NtRp3064
(dp3065
g61
(dp3066
g81
g82
ssg70
g3060
sg63
(lp3067
g270
asbag56
(g77
g58
NtRp3068
(dp3069
g61
(dp3070
g88
g89
ssg70
g3060
sg63
(lp3071
S':'
asbag56
(g77
g58
NtRp3072
(dp3073
g61
(dp3074
sg70
g3060
sg63
(lp3075
g56
(g57
g58
NtRp3076
(dp3077
g61
(dp3078
g69
I3
ssg70
g3072
sg63
(lp3079
S''
asbasbasbag56
(g72
g58
NtRp3080
(dp3081
g61
(dp3082
sg70
g3056
sg63
(lp3083
g56
(g77
g58
NtRp3084
(dp3085
g61
(dp3086
g81
g82
ssg70
g3080
sg63
(lp3087
g291
asbag56
(g77
g58
NtRp3088
(dp3089
g61
(dp3090
g88
g89
ssg70
g3080
sg63
(lp3091
S':'
asbag56
(g77
g58
NtRp3092
(dp3093
g61
(dp3094
sg70
g3080
sg63
(lp3095
g56
(g57
g58
NtRp3096
(dp3097
g61
(dp3098
g69
I3
ssg70
g3092
sg63
(lp3099
S''
asbasbasbag56
(g72
g58
NtRp3100
(dp3101
g61
(dp3102
sg70
g3056
sg63
(lp3103
g56
(g77
g58
NtRp3104
(dp3105
g61
(dp3106
g81
g82
ssg70
g3100
sg63
(lp3107
g312
asbag56
(g77
g58
NtRp3108
(dp3109
g61
(dp3110
g88
g89
ssg70
g3100
sg63
(lp3111
S':'
asbag56
(g77
g58
NtRp3112
(dp3113
g61
(dp3114
sg70
g3100
sg63
(lp3115
g56
(g57
g58
NtRp3116
(dp3117
g61
(dp3118
g69
I3
ssg70
g3112
sg63
(lp3119
S''
asbasbasbag56
(g72
g58
NtRp3120
(dp3121
g61
(dp3122
sg70
g3056
sg63
(lp3123
g56
(g77
g58
NtRp3124
(dp3125
g61
(dp3126
g81
g82
ssg70
g3120
sg63
(lp3127
g333
asbag56
(g77
g58
NtRp3128
(dp3129
g61
(dp3130
g88
g89
ssg70
g3120
sg63
(lp3131
S':'
asbag56
(g77
g58
NtRp3132
(dp3133
g61
(dp3134
sg70
g3120
sg63
(lp3135
g56
(g57
g58
NtRp3136
(dp3137
g61
(dp3138
g69
I3
ssg70
g3132
sg63
(lp3139
S''
asbasbasbag56
(g72
g58
NtRp3140
(dp3141
g61
(dp3142
sg70
g3056
sg63
(lp3143
g56
(g77
g58
NtRp3144
(dp3145
g61
(dp3146
g81
g82
ssg70
g3140
sg63
(lp3147
g354
asbag56
(g77
g58
NtRp3148
(dp3149
g61
(dp3150
g88
g89
ssg70
g3140
sg63
(lp3151
S':'
asbag56
(g77
g58
NtRp3152
(dp3153
g61
(dp3154
sg70
g3140
sg63
(lp3155
g56
(g57
g58
NtRp3156
(dp3157
g61
(dp3158
g69
I3
ssg70
g3152
sg63
(lp3159
S''
asbasbasbag56
(g72
g58
NtRp3160
(dp3161
g61
(dp3162
sg70
g3056
sg63
(lp3163
g56
(g77
g58
NtRp3164
(dp3165
g61
(dp3166
g81
g82
ssg70
g3160
sg63
(lp3167
g375
asbag56
(g77
g58
NtRp3168
(dp3169
g61
(dp3170
g88
g89
ssg70
g3160
sg63
(lp3171
S':'
asbag56
(g77
g58
NtRp3172
(dp3173
g61
(dp3174
sg70
g3160
sg63
(lp3175
g56
(g57
g58
NtRp3176
(dp3177
g61
(dp3178
g69
I3
ssg70
g3172
sg63
(lp3179
S'/'
asbasbasbag56
(g72
g58
NtRp3180
(dp3181
g61
(dp3182
sg70
g3056
sg63
(lp3183
g56
(g77
g58
NtRp3184
(dp3185
g61
(dp3186
g81
g82
ssg70
g3180
sg63
(lp3187
g396
asbag56
(g77
g58
NtRp3188
(dp3189
g61
(dp3190
g88
g89
ssg70
g3180
sg63
(lp3191
S':'
asbag56
(g77
g58
NtRp3192
(dp3193
g61
(dp3194
sg70
g3180
sg63
(lp3195
g56
(g57
g58
NtRp3196
(dp3197
g61
(dp3198
g69
I3
ssg70
g3192
sg63
(lp3199
S''
asbasbasbag56
(g72
g58
NtRp3200
(dp3201
g61
(dp3202
sg70
g3056
sg63
(lp3203
g56
(g77
g58
NtRp3204
(dp3205
g61
(dp3206
g81
g82
ssg70
g3200
sg63
(lp3207
g417
asbag56
(g77
g58
NtRp3208
(dp3209
g61
(dp3210
g88
g89
ssg70
g3200
sg63
(lp3211
S':'
asbag56
(g77
g58
NtRp3212
(dp3213
g61
(dp3214
sg70
g3200
sg63
(lp3215
g56
(g57
g58
NtRp3216
(dp3217
g61
(dp3218
g69
I3
ssg70
g3212
sg63
(lp3219
S''
asbasbasbasbasbasbasbasbasbasbasbag56
(g72
g58
NtRp3220
(dp3221
g61
(dp3222
sg70
g2986
sg63
(lp3223
g56
(g77
g58
NtRp3224
(dp3225
g61
(dp3226
g81
g82
ssg70
g3220
sg63
(lp3227
S'files'
p3228
asbag56
(g77
g58
NtRp3229
(dp3230
g61
(dp3231
g88
g89
ssg70
g3220
sg63
(lp3232
S':'
asbag56
(g77
g58
NtRp3233
(dp3234
g61
(dp3235
sg70
g3220
sg63
(lp3236
g56
(g57
g58
NtRp3237
(dp3238
g61
(dp3239
g69
I5
ssg70
g3233
sg63
(lp3240
g56
(g65
g58
NtRp3241
(dp3242
g61
(dp3243
g69
I4
ssg70
Nsg63
(lp3244
sbasbasbasbag56
(g72
g58
NtRp3245
(dp3246
g61
(dp3247
sg70
g2986
sg63
(lp3248
g56
(g77
g58
NtRp3249
(dp3250
g61
(dp3251
g81
g82
ssg70
g3245
sg63
(lp3252
S'flash'
p3253
asbag56
(g77
g58
NtRp3254
(dp3255
g61
(dp3256
g88
g89
ssg70
g3245
sg63
(lp3257
S':'
asbag56
(g77
g58
NtRp3258
(dp3259
g61
(dp3260
sg70
g3245
sg63
(lp3261
g56
(g57
g58
NtRp3262
(dp3263
g61
(dp3264
g69
I5
ssg70
g3258
sg63
(lp3265
S''
asbasbasbag56
(g72
g58
NtRp3266
(dp3267
g61
(dp3268
sg70
g2986
sg63
(lp3269
g56
(g77
g58
NtRp3270
(dp3271
g61
(dp3272
g81
g82
ssg70
g3266
sg63
(lp3273
S'generic_patterns'
p3274
asbag56
(g77
g58
NtRp3275
(dp3276
g61
(dp3277
g88
g89
ssg70
g3266
sg63
(lp3278
S':'
asbag56
(g77
g58
NtRp3279
(dp3280
g61
(dp3281
sg70
g3266
sg63
(lp3282
g56
(g57
g58
NtRp3283
(dp3284
g61
(dp3285
g69
I5
ssg70
g3279
sg63
(lp3286
g56
(g65
g58
NtRp3287
(dp3288
g61
(dp3289
g69
I4
ssg70
Nsg63
(lp3290
sbasbasbasbag56
(g72
g58
NtRp3291
(dp3292
g61
(dp3293
sg70
g2986
sg63
(lp3294
g56
(g77
g58
NtRp3295
(dp3296
g61
(dp3297
g81
g82
ssg70
g3291
sg63
(lp3298
S'headers'
p3299
asbag56
(g77
g58
NtRp3300
(dp3301
g61
(dp3302
g88
g89
ssg70
g3291
sg63
(lp3303
S':'
asbag56
(g77
g58
NtRp3304
(dp3305
g61
(dp3306
sg70
g3291
sg63
(lp3307
g56
(g57
g58
NtRp3308
(dp3309
g61
(dp3310
g69
I5
ssg70
g3304
sg63
(lp3311
g56
(g65
g58
NtRp3312
(dp3313
g61
(dp3314
g69
I4
ssg70
Nsg63
(lp3315
g56
(g72
g58
NtRp3316
(dp3317
g61
(dp3318
sg70
g3312
sg63
(lp3319
g56
(g77
g58
NtRp3320
(dp3321
g61
(dp3322
g81
g82
ssg70
g3316
sg63
(lp3323
S'Cache-Control'
p3324
asbag56
(g77
g58
NtRp3325
(dp3326
g61
(dp3327
g88
g89
ssg70
g3316
sg63
(lp3328
S':'
asbag56
(g77
g58
NtRp3329
(dp3330
g61
(dp3331
sg70
g3316
sg63
(lp3332
g56
(g57
g58
NtRp3333
(dp3334
g61
(dp3335
g69
I4
ssg70
g3329
sg63
(lp3336
S'no-store, no-cache, must-revalidate, post-check=0, pre-check=0'
p3337
asbasbasbag56
(g72
g58
NtRp3338
(dp3339
g61
(dp3340
sg70
g3312
sg63
(lp3341
g56
(g77
g58
NtRp3342
(dp3343
g61
(dp3344
g81
g82
ssg70
g3338
sg63
(lp3345
S'Content-Type'
p3346
asbag56
(g77
g58
NtRp3347
(dp3348
g61
(dp3349
g88
g89
ssg70
g3338
sg63
(lp3350
S':'
asbag56
(g77
g58
NtRp3351
(dp3352
g61
(dp3353
sg70
g3338
sg63
(lp3354
g56
(g57
g58
NtRp3355
(dp3356
g61
(dp3357
g69
I4
ssg70
g3351
sg63
(lp3358
S'text/html; charset=utf-8'
p3359
asbasbasbag56
(g72
g58
NtRp3360
(dp3361
g61
(dp3362
sg70
g3312
sg63
(lp3363
g56
(g77
g58
NtRp3364
(dp3365
g61
(dp3366
g81
g82
ssg70
g3360
sg63
(lp3367
S'Expires'
p3368
asbag56
(g77
g58
NtRp3369
(dp3370
g61
(dp3371
g88
g89
ssg70
g3360
sg63
(lp3372
S':'
asbag56
(g77
g58
NtRp3373
(dp3374
g61
(dp3375
sg70
g3360
sg63
(lp3376
g56
(g57
g58
NtRp3377
(dp3378
g61
(dp3379
g69
I4
ssg70
g3373
sg63
(lp3380
S'Thu, 08 Sep 2011 00:52:16 GMT'
p3381
asbasbasbag56
(g72
g58
NtRp3382
(dp3383
g61
(dp3384
sg70
g3312
sg63
(lp3385
g56
(g77
g58
NtRp3386
(dp3387
g61
(dp3388
g81
g82
ssg70
g3382
sg63
(lp3389
S'Pragma'
p3390
asbag56
(g77
g58
NtRp3391
(dp3392
g61
(dp3393
g88
g89
ssg70
g3382
sg63
(lp3394
S':'
asbag56
(g77
g58
NtRp3395
(dp3396
g61
(dp3397
sg70
g3382
sg63
(lp3398
g56
(g57
g58
NtRp3399
(dp3400
g61
(dp3401
g69
I4
ssg70
g3395
sg63
(lp3402
S'no-cache'
p3403
asbasbasbag56
(g72
g58
NtRp3404
(dp3405
g61
(dp3406
sg70
g3312
sg63
(lp3407
g56
(g77
g58
NtRp3408
(dp3409
g61
(dp3410
g81
g82
ssg70
g3404
sg63
(lp3411
S'X-Powered-By'
p3412
asbag56
(g77
g58
NtRp3413
(dp3414
g61
(dp3415
g88
g89
ssg70
g3404
sg63
(lp3416
S':'
asbag56
(g77
g58
NtRp3417
(dp3418
g61
(dp3419
sg70
g3404
sg63
(lp3420
g56
(g57
g58
NtRp3421
(dp3422
g61
(dp3423
g69
I4
ssg70
g3417
sg63
(lp3424
S'web2py'
p3425
asbasbasbasbasbasbasbag56
(g72
g58
NtRp3426
(dp3427
g61
(dp3428
sg70
g2986
sg63
(lp3429
g56
(g77
g58
NtRp3430
(dp3431
g61
(dp3432
g81
g82
ssg70
g3426
sg63
(lp3433
S'menu'
p3434
asbag56
(g77
g58
NtRp3435
(dp3436
g61
(dp3437
g88
g89
ssg70
g3426
sg63
(lp3438
S':'
asbag56
(g77
g58
NtRp3439
(dp3440
g61
(dp3441
sg70
g3426
sg63
(lp3442
g56
(g57
g58
NtRp3443
(dp3444
g61
(dp3445
g69
I5
ssg70
g3439
sg63
(lp3446
g56
(g65
g58
NtRp3447
(dp3448
g61
(dp3449
g69
I4
ssg70
Nsg63
(lp3450
g56
(g72
g58
NtRp3451
(dp3452
g61
(dp3453
sg70
g3447
sg63
(lp3454
g56
(g77
g58
NtRp3455
(dp3456
g61
(dp3457
sg70
g3451
sg63
(lp3458
g56
(g57
g58
NtRp3459
(dp3460
g61
(dp3461
g69
I4
ssg70
g3455
sg63
(lp3462
g56
(g65
g58
NtRp3463
(dp3464
g61
(dp3465
g69
I3
ssg70
Nsg63
(lp3466
g56
(g72
g58
NtRp3467
(dp3468
g61
(dp3469
sg70
g3463
sg63
(lp3470
g56
(g77
g58
NtRp3471
(dp3472
g61
(dp3473
sg70
g3467
sg63
(lp3474
g56
(g57
g58
NtRp3475
(dp3476
g61
(dp3477
g69
I3
ssg70
g3471
sg63
(lp3478
cgluon.languages
lazyT_unpickle
p3479
(S's\x04\x00\x00\x00Home'
tRp3480
asbasbasbag56
(g72
g58
NtRp3481
(dp3482
g61
(dp3483
sg70
g3463
sg63
(lp3484
g56
(g77
g58
NtRp3485
(dp3486
g61
(dp3487
sg70
g3481
sg63
(lp3488
g56
(g57
g58
NtRp3489
(dp3490
g61
(dp3491
g69
I3
ssg70
g3485
sg63
(lp3492
g99
asbasbasbag56
(g72
g58
NtRp3493
(dp3494
g61
(dp3495
sg70
g3463
sg63
(lp3496
g56
(g77
g58
NtRp3497
(dp3498
g61
(dp3499
sg70
g3493
sg63
(lp3500
g56
(g57
g58
NtRp3501
(dp3502
g61
(dp3503
g69
I3
ssg70
g3497
sg63
(lp3504
S'/datos/default/index'
p3505
asbasbasbag56
(g72
g58
NtRp3506
(dp3507
g61
(dp3508
sg70
g3463
sg63
(lp3509
g56
(g77
g58
NtRp3510
(dp3511
g61
(dp3512
sg70
g3506
sg63
(lp3513
g56
(g57
g58
NtRp3514
(dp3515
g61
(dp3516
g69
I3
ssg70
g3510
sg63
(lp3517
g56
(g65
g58
NtRp3518
(dp3519
g61
(dp3520
g69
I2
ssg70
Nsg63
(lp3521
sbasbasbasbasbasbasbasbag56
(g72
g58
NtRp3522
(dp3523
g61
(dp3524
sg70
g3447
sg63
(lp3525
g56
(g77
g58
NtRp3526
(dp3527
g61
(dp3528
sg70
g3522
sg63
(lp3529
g56
(g57
g58
NtRp3530
(dp3531
g61
(dp3532
g69
I4
ssg70
g3526
sg63
(lp3533
g56
(g65
g58
NtRp3534
(dp3535
g61
(dp3536
g69
I3
ssg70
Nsg63
(lp3537
g56
(g72
g58
NtRp3538
(dp3539
g61
(dp3540
sg70
g3534
sg63
(lp3541
g56
(g77
g58
NtRp3542
(dp3543
g61
(dp3544
sg70
g3538
sg63
(lp3545
g56
(g57
g58
NtRp3546
(dp3547
g61
(dp3548
g69
I3
ssg70
g3542
sg63
(lp3549
g3479
(S's\x08\x00\x00\x00This App'
tRp3550
asbasbasbag56
(g72
g58
NtRp3551
(dp3552
g61
(dp3553
sg70
g3534
sg63
(lp3554
g56
(g77
g58
NtRp3555
(dp3556
g61
(dp3557
sg70
g3551
sg63
(lp3558
g56
(g57
g58
NtRp3559
(dp3560
g61
(dp3561
g69
I3
ssg70
g3555
sg63
(lp3562
g99
asbasbasbag56
(g72
g58
NtRp3563
(dp3564
g61
(dp3565
sg70
g3534
sg63
(lp3566
g56
(g77
g58
NtRp3567
(dp3568
g61
(dp3569
sg70
g3563
sg63
(lp3570
g56
(g57
g58
NtRp3571
(dp3572
g61
(dp3573
g69
I3
ssg70
g3567
sg63
(lp3574
S'/admin/default/design/datos'
p3575
asbasbasbag56
(g72
g58
NtRp3576
(dp3577
g61
(dp3578
sg70
g3534
sg63
(lp3579
g56
(g77
g58
NtRp3580
(dp3581
g61
(dp3582
sg70
g3576
sg63
(lp3583
g56
(g57
g58
NtRp3584
(dp3585
g61
(dp3586
g69
I3
ssg70
g3580
sg63
(lp3587
g56
(g65
g58
NtRp3588
(dp3589
g61
(dp3590
g69
I2
ssg70
Nsg63
(lp3591
g56
(g72
g58
NtRp3592
(dp3593
g61
(dp3594
sg70
g3588
sg63
(lp3595
g56
(g77
g58
NtRp3596
(dp3597
g61
(dp3598
sg70
g3592
sg63
(lp3599
g56
(g57
g58
NtRp3600
(dp3601
g61
(dp3602
g69
I2
ssg70
g3596
sg63
(lp3603
g56
(g65
g58
NtRp3604
(dp3605
g61
(dp3606
g69
I1
ssg70
Nsg63
(lp3607
g56
(g72
g58
NtRp3608
(dp3609
g61
(dp3610
sg70
g3604
sg63
(lp3611
g56
(g77
g58
NtRp3612
(dp3613
g61
(dp3614
sg70
g3608
sg63
(lp3615
g56
(g57
g58
NtRp3616
(dp3617
g61
(dp3618
g69
I1
ssg70
g3612
sg63
(lp3619
g3479
(S's\n\x00\x00\x00Controller'
tRp3620
asbasbasbag56
(g72
g58
NtRp3621
(dp3622
g61
(dp3623
sg70
g3604
sg63
(lp3624
g56
(g77
g58
NtRp3625
(dp3626
g61
(dp3627
sg70
g3621
sg63
(lp3628
g56
(g57
g58
NtRp3629
(dp3630
g61
(dp3631
g69
I1
ssg70
g3625
sg63
(lp3632
I00
asbasbasbag56
(g72
g58
NtRp3633
(dp3634
g61
(dp3635
sg70
g3604
sg63
(lp3636
g56
(g77
g58
NtRp3637
(dp3638
g61
(dp3639
sg70
g3633
sg63
(lp3640
g56
(g57
g58
NtRp3641
(dp3642
g61
(dp3643
g69
I1
ssg70
g3637
sg63
(lp3644
S'/admin/default/edit/datos/controllers/default.py'
p3645
asbasbasbasbasbasbasbag56
(g72
g58
NtRp3646
(dp3647
g61
(dp3648
sg70
g3588
sg63
(lp3649
g56
(g77
g58
NtRp3650
(dp3651
g61
(dp3652
sg70
g3646
sg63
(lp3653
g56
(g57
g58
NtRp3654
(dp3655
g61
(dp3656
g69
I2
ssg70
g3650
sg63
(lp3657
g56
(g65
g58
NtRp3658
(dp3659
g61
(dp3660
g69
I1
ssg70
Nsg63
(lp3661
g56
(g72
g58
NtRp3662
(dp3663
g61
(dp3664
sg70
g3658
sg63
(lp3665
g56
(g77
g58
NtRp3666
(dp3667
g61
(dp3668
sg70
g3662
sg63
(lp3669
g56
(g57
g58
NtRp3670
(dp3671
g61
(dp3672
g69
I1
ssg70
g3666
sg63
(lp3673
g3479
(S's\x04\x00\x00\x00View'
tRp3674
asbasbasbag56
(g72
g58
NtRp3675
(dp3676
g61
(dp3677
sg70
g3658
sg63
(lp3678
g56
(g77
g58
NtRp3679
(dp3680
g61
(dp3681
sg70
g3675
sg63
(lp3682
g56
(g57
g58
NtRp3683
(dp3684
g61
(dp3685
g69
I1
ssg70
g3679
sg63
(lp3686
I00
asbasbasbag56
(g72
g58
NtRp3687
(dp3688
g61
(dp3689
sg70
g3658
sg63
(lp3690
g56
(g77
g58
NtRp3691
(dp3692
g61
(dp3693
sg70
g3687
sg63
(lp3694
g56
(g57
g58
NtRp3695
(dp3696
g61
(dp3697
g69
I1
ssg70
g3691
sg63
(lp3698
S'/admin/default/edit/datos/views/default/index.html'
p3699
asbasbasbasbasbasbasbag56
(g72
g58
NtRp3700
(dp3701
g61
(dp3702
sg70
g3588
sg63
(lp3703
g56
(g77
g58
NtRp3704
(dp3705
g61
(dp3706
sg70
g3700
sg63
(lp3707
g56
(g57
g58
NtRp3708
(dp3709
g61
(dp3710
g69
I2
ssg70
g3704
sg63
(lp3711
g56
(g65
g58
NtRp3712
(dp3713
g61
(dp3714
g69
I1
ssg70
Nsg63
(lp3715
g56
(g72
g58
NtRp3716
(dp3717
g61
(dp3718
sg70
g3712
sg63
(lp3719
g56
(g77
g58
NtRp3720
(dp3721
g61
(dp3722
sg70
g3716
sg63
(lp3723
g56
(g57
g58
NtRp3724
(dp3725
g61
(dp3726
g69
I1
ssg70
g3720
sg63
(lp3727
g3479
(S's\x06\x00\x00\x00Layout'
tRp3728
asbasbasbag56
(g72
g58
NtRp3729
(dp3730
g61
(dp3731
sg70
g3712
sg63
(lp3732
g56
(g77
g58
NtRp3733
(dp3734
g61
(dp3735
sg70
g3729
sg63
(lp3736
g56
(g57
g58
NtRp3737
(dp3738
g61
(dp3739
g69
I1
ssg70
g3733
sg63
(lp3740
I00
asbasbasbag56
(g72
g58
NtRp3741
(dp3742
g61
(dp3743
sg70
g3712
sg63
(lp3744
g56
(g77
g58
NtRp3745
(dp3746
g61
(dp3747
sg70
g3741
sg63
(lp3748
g56
(g57
g58
NtRp3749
(dp3750
g61
(dp3751
g69
I1
ssg70
g3745
sg63
(lp3752
S'/admin/default/edit/datos/views/layout.html'
p3753
asbasbasbasbasbasbasbag56
(g72
g58
NtRp3754
(dp3755
g61
(dp3756
sg70
g3588
sg63
(lp3757
g56
(g77
g58
NtRp3758
(dp3759
g61
(dp3760
sg70
g3754
sg63
(lp3761
g56
(g57
g58
NtRp3762
(dp3763
g61
(dp3764
g69
I2
ssg70
g3758
sg63
(lp3765
g56
(g65
g58
NtRp3766
(dp3767
g61
(dp3768
g69
I1
ssg70
Nsg63
(lp3769
g56
(g72
g58
NtRp3770
(dp3771
g61
(dp3772
sg70
g3766
sg63
(lp3773
g56
(g77
g58
NtRp3774
(dp3775
g61
(dp3776
sg70
g3770
sg63
(lp3777
g56
(g57
g58
NtRp3778
(dp3779
g61
(dp3780
g69
I1
ssg70
g3774
sg63
(lp3781
g3479
(S's\n\x00\x00\x00Stylesheet'
tRp3782
asbasbasbag56
(g72
g58
NtRp3783
(dp3784
g61
(dp3785
sg70
g3766
sg63
(lp3786
g56
(g77
g58
NtRp3787
(dp3788
g61
(dp3789
sg70
g3783
sg63
(lp3790
g56
(g57
g58
NtRp3791
(dp3792
g61
(dp3793
g69
I1
ssg70
g3787
sg63
(lp3794
I00
asbasbasbag56
(g72
g58
NtRp3795
(dp3796
g61
(dp3797
sg70
g3766
sg63
(lp3798
g56
(g77
g58
NtRp3799
(dp3800
g61
(dp3801
sg70
g3795
sg63
(lp3802
g56
(g57
g58
NtRp3803
(dp3804
g61
(dp3805
g69
I1
ssg70
g3799
sg63
(lp3806
S'/admin/default/edit/datos/static/base.css'
p3807
asbasbasbasbasbasbasbag56
(g72
g58
NtRp3808
(dp3809
g61
(dp3810
sg70
g3588
sg63
(lp3811
g56
(g77
g58
NtRp3812
(dp3813
g61
(dp3814
sg70
g3808
sg63
(lp3815
g56
(g57
g58
NtRp3816
(dp3817
g61
(dp3818
g69
I2
ssg70
g3812
sg63
(lp3819
g56
(g65
g58
NtRp3820
(dp3821
g61
(dp3822
g69
I1
ssg70
Nsg63
(lp3823
g56
(g72
g58
NtRp3824
(dp3825
g61
(dp3826
sg70
g3820
sg63
(lp3827
g56
(g77
g58
NtRp3828
(dp3829
g61
(dp3830
sg70
g3824
sg63
(lp3831
g56
(g57
g58
NtRp3832
(dp3833
g61
(dp3834
g69
I1
ssg70
g3828
sg63
(lp3835
g3479
(S's\x08\x00\x00\x00DB Model'
tRp3836
asbasbasbag56
(g72
g58
NtRp3837
(dp3838
g61
(dp3839
sg70
g3820
sg63
(lp3840
g56
(g77
g58
NtRp3841
(dp3842
g61
(dp3843
sg70
g3837
sg63
(lp3844
g56
(g57
g58
NtRp3845
(dp3846
g61
(dp3847
g69
I1
ssg70
g3841
sg63
(lp3848
I00
asbasbasbag56
(g72
g58
NtRp3849
(dp3850
g61
(dp3851
sg70
g3820
sg63
(lp3852
g56
(g77
g58
NtRp3853
(dp3854
g61
(dp3855
sg70
g3849
sg63
(lp3856
g56
(g57
g58
NtRp3857
(dp3858
g61
(dp3859
g69
I1
ssg70
g3853
sg63
(lp3860
S'/admin/default/edit/datos/models/db.py'
p3861
asbasbasbasbasbasbasbag56
(g72
g58
NtRp3862
(dp3863
g61
(dp3864
sg70
g3588
sg63
(lp3865
g56
(g77
g58
NtRp3866
(dp3867
g61
(dp3868
sg70
g3862
sg63
(lp3869
g56
(g57
g58
NtRp3870
(dp3871
g61
(dp3872
g69
I2
ssg70
g3866
sg63
(lp3873
g56
(g65
g58
NtRp3874
(dp3875
g61
(dp3876
g69
I1
ssg70
Nsg63
(lp3877
g56
(g72
g58
NtRp3878
(dp3879
g61
(dp3880
sg70
g3874
sg63
(lp3881
g56
(g77
g58
NtRp3882
(dp3883
g61
(dp3884
sg70
g3878
sg63
(lp3885
g56
(g57
g58
NtRp3886
(dp3887
g61
(dp3888
g69
I1
ssg70
g3882
sg63
(lp3889
g3479
(S's\n\x00\x00\x00Menu Model'
tRp3890
asbasbasbag56
(g72
g58
NtRp3891
(dp3892
g61
(dp3893
sg70
g3874
sg63
(lp3894
g56
(g77
g58
NtRp3895
(dp3896
g61
(dp3897
sg70
g3891
sg63
(lp3898
g56
(g57
g58
NtRp3899
(dp3900
g61
(dp3901
g69
I1
ssg70
g3895
sg63
(lp3902
I00
asbasbasbag56
(g72
g58
NtRp3903
(dp3904
g61
(dp3905
sg70
g3874
sg63
(lp3906
g56
(g77
g58
NtRp3907
(dp3908
g61
(dp3909
sg70
g3903
sg63
(lp3910
g56
(g57
g58
NtRp3911
(dp3912
g61
(dp3913
g69
I1
ssg70
g3907
sg63
(lp3914
S'/admin/default/edit/datos/models/menu.py'
p3915
asbasbasbasbasbasbasbag56
(g72
g58
NtRp3916
(dp3917
g61
(dp3918
sg70
g3588
sg63
(lp3919
g56
(g77
g58
NtRp3920
(dp3921
g61
(dp3922
sg70
g3916
sg63
(lp3923
g56
(g57
g58
NtRp3924
(dp3925
g61
(dp3926
g69
I2
ssg70
g3920
sg63
(lp3927
g56
(g65
g58
NtRp3928
(dp3929
g61
(dp3930
g69
I1
ssg70
Nsg63
(lp3931
g56
(g72
g58
NtRp3932
(dp3933
g61
(dp3934
sg70
g3928
sg63
(lp3935
g56
(g77
g58
NtRp3936
(dp3937
g61
(dp3938
sg70
g3932
sg63
(lp3939
g56
(g57
g58
NtRp3940
(dp3941
g61
(dp3942
g69
I1
ssg70
g3936
sg63
(lp3943
g3479
(S's\x08\x00\x00\x00Database'
tRp3944
asbasbasbag56
(g72
g58
NtRp3945
(dp3946
g61
(dp3947
sg70
g3928
sg63
(lp3948
g56
(g77
g58
NtRp3949
(dp3950
g61
(dp3951
sg70
g3945
sg63
(lp3952
g56
(g57
g58
NtRp3953
(dp3954
g61
(dp3955
g69
I1
ssg70
g3949
sg63
(lp3956
I00
asbasbasbag56
(g72
g58
NtRp3957
(dp3958
g61
(dp3959
sg70
g3928
sg63
(lp3960
g56
(g77
g58
NtRp3961
(dp3962
g61
(dp3963
sg70
g3957
sg63
(lp3964
g56
(g57
g58
NtRp3965
(dp3966
g61
(dp3967
g69
I1
ssg70
g3961
sg63
(lp3968
S'/datos/appadmin/index'
p3969
asbasbasbasbasbasbasbag56
(g72
g58
NtRp3970
(dp3971
g61
(dp3972
sg70
g3588
sg63
(lp3973
g56
(g77
g58
NtRp3974
(dp3975
g61
(dp3976
sg70
g3970
sg63
(lp3977
g56
(g57
g58
NtRp3978
(dp3979
g61
(dp3980
g69
I2
ssg70
g3974
sg63
(lp3981
g56
(g65
g58
NtRp3982
(dp3983
g61
(dp3984
g69
I1
ssg70
Nsg63
(lp3985
g56
(g72
g58
NtRp3986
(dp3987
g61
(dp3988
sg70
g3982
sg63
(lp3989
g56
(g77
g58
NtRp3990
(dp3991
g61
(dp3992
sg70
g3986
sg63
(lp3993
g56
(g57
g58
NtRp3994
(dp3995
g61
(dp3996
g69
I1
ssg70
g3990
sg63
(lp3997
g3479
(S's\x06\x00\x00\x00Errors'
tRp3998
asbasbasbag56
(g72
g58
NtRp3999
(dp4000
g61
(dp4001
sg70
g3982
sg63
(lp4002
g56
(g77
g58
NtRp4003
(dp4004
g61
(dp4005
sg70
g3999
sg63
(lp4006
g56
(g57
g58
NtRp4007
(dp4008
g61
(dp4009
g69
I1
ssg70
g4003
sg63
(lp4010
I00
asbasbasbag56
(g72
g58
NtRp4011
(dp4012
g61
(dp4013
sg70
g3982
sg63
(lp4014
g56
(g77
g58
NtRp4015
(dp4016
g61
(dp4017
sg70
g4011
sg63
(lp4018
g56
(g57
g58
NtRp4019
(dp4020
g61
(dp4021
g69
I1
ssg70
g4015
sg63
(lp4022
S'/admin/default/errors/datos'
p4023
asbasbasbasbasbasbasbag56
(g72
g58
NtRp4024
(dp4025
g61
(dp4026
sg70
g3588
sg63
(lp4027
g56
(g77
g58
NtRp4028
(dp4029
g61
(dp4030
sg70
g4024
sg63
(lp4031
g56
(g57
g58
NtRp4032
(dp4033
g61
(dp4034
g69
I2
ssg70
g4028
sg63
(lp4035
g56
(g65
g58
NtRp4036
(dp4037
g61
(dp4038
g69
I1
ssg70
Nsg63
(lp4039
g56
(g72
g58
NtRp4040
(dp4041
g61
(dp4042
sg70
g4036
sg63
(lp4043
g56
(g77
g58
NtRp4044
(dp4045
g61
(dp4046
sg70
g4040
sg63
(lp4047
g56
(g57
g58
NtRp4048
(dp4049
g61
(dp4050
g69
I1
ssg70
g4044
sg63
(lp4051
g3479
(S's\x05\x00\x00\x00About'
tRp4052
asbasbasbag56
(g72
g58
NtRp4053
(dp4054
g61
(dp4055
sg70
g4036
sg63
(lp4056
g56
(g77
g58
NtRp4057
(dp4058
g61
(dp4059
sg70
g4053
sg63
(lp4060
g56
(g57
g58
NtRp4061
(dp4062
g61
(dp4063
g69
I1
ssg70
g4057
sg63
(lp4064
I00
asbasbasbag56
(g72
g58
NtRp4065
(dp4066
g61
(dp4067
sg70
g4036
sg63
(lp4068
g56
(g77
g58
NtRp4069
(dp4070
g61
(dp4071
sg70
g4065
sg63
(lp4072
g56
(g57
g58
NtRp4073
(dp4074
g61
(dp4075
g69
I1
ssg70
g4069
sg63
(lp4076
S'/admin/default/about/datos'
p4077
asbasbasbasbasbasbasbasbasbasbasbasbasbasbasbag56
(g72
g58
NtRp4078
(dp4079
g61
(dp4080
sg70
g3447
sg63
(lp4081
g56
(g77
g58
NtRp4082
(dp4083
g61
(dp4084
sg70
g4078
sg63
(lp4085
g56
(g57
g58
NtRp4086
(dp4087
g61
(dp4088
g69
I4
ssg70
g4082
sg63
(lp4089
g56
(g65
g58
NtRp4090
(dp4091
g61
(dp4092
g69
I3
ssg70
Nsg63
(lp4093
g56
(g72
g58
NtRp4094
(dp4095
g61
(dp4096
sg70
g4090
sg63
(lp4097
g56
(g77
g58
NtRp4098
(dp4099
g61
(dp4100
sg70
g4094
sg63
(lp4101
g56
(g57
g58
NtRp4102
(dp4103
g61
(dp4104
g69
I3
ssg70
g4098
sg63
(lp4105
g3479
(S's\t\x00\x00\x00Resources'
tRp4106
asbasbasbag56
(g72
g58
NtRp4107
(dp4108
g61
(dp4109
sg70
g4090
sg63
(lp4110
g56
(g77
g58
NtRp4111
(dp4112
g61
(dp4113
sg70
g4107
sg63
(lp4114
g56
(g57
g58
NtRp4115
(dp4116
g61
(dp4117
g69
I3
ssg70
g4111
sg63
(lp4118
g99
asbasbasbag56
(g72
g58
NtRp4119
(dp4120
g61
(dp4121
sg70
g4090
sg63
(lp4122
g56
(g77
g58
NtRp4123
(dp4124
g61
(dp4125
sg70
g4119
sg63
(lp4126
g56
(g57
g58
NtRp4127
(dp4128
g61
(dp4129
g69
I3
ssg70
g4123
sg63
(lp4130
S'None'
p4131
asbasbasbag56
(g72
g58
NtRp4132
(dp4133
g61
(dp4134
sg70
g4090
sg63
(lp4135
g56
(g77
g58
NtRp4136
(dp4137
g61
(dp4138
sg70
g4132
sg63
(lp4139
g56
(g57
g58
NtRp4140
(dp4141
g61
(dp4142
g69
I3
ssg70
g4136
sg63
(lp4143
g56
(g65
g58
NtRp4144
(dp4145
g61
(dp4146
g69
I2
ssg70
Nsg63
(lp4147
g56
(g72
g58
NtRp4148
(dp4149
g61
(dp4150
sg70
g4144
sg63
(lp4151
g56
(g77
g58
NtRp4152
(dp4153
g61
(dp4154
sg70
g4148
sg63
(lp4155
g56
(g57
g58
NtRp4156
(dp4157
g61
(dp4158
g69
I2
ssg70
g4152
sg63
(lp4159
g56
(g65
g58
NtRp4160
(dp4161
g61
(dp4162
g69
I1
ssg70
Nsg63
(lp4163
g56
(g72
g58
NtRp4164
(dp4165
g61
(dp4166
sg70
g4160
sg63
(lp4167
g56
(g77
g58
NtRp4168
(dp4169
g61
(dp4170
sg70
g4164
sg63
(lp4171
g56
(g57
g58
NtRp4172
(dp4173
g61
(dp4174
g69
I1
ssg70
g4168
sg63
(lp4175
g3479
(S's\r\x00\x00\x00Documentation'
tRp4176
asbasbasbag56
(g72
g58
NtRp4177
(dp4178
g61
(dp4179
sg70
g4160
sg63
(lp4180
g56
(g77
g58
NtRp4181
(dp4182
g61
(dp4183
sg70
g4177
sg63
(lp4184
g56
(g57
g58
NtRp4185
(dp4186
g61
(dp4187
g69
I1
ssg70
g4181
sg63
(lp4188
I00
asbasbasbag56
(g72
g58
NtRp4189
(dp4190
g61
(dp4191
sg70
g4160
sg63
(lp4192
g56
(g77
g58
NtRp4193
(dp4194
g61
(dp4195
sg70
g4189
sg63
(lp4196
g56
(g57
g58
NtRp4197
(dp4198
g61
(dp4199
g69
I1
ssg70
g4193
sg63
(lp4200
S'http://www.web2py.com/book'
p4201
asbasbasbag56
(g72
g58
NtRp4202
(dp4203
g61
(dp4204
sg70
g4160
sg63
(lp4205
g56
(g77
g58
NtRp4206
(dp4207
g61
(dp4208
sg70
g4202
sg63
(lp4209
g56
(g57
g58
NtRp4210
(dp4211
g61
(dp4212
g69
I1
ssg70
g4206
sg63
(lp4213
(lp4214
(g3479
(S's\x07\x00\x00\x00Preface'
tRp4215
I00
S'http://www.web2py.com/book/default/chapter/00'
tp4216
a(g3479
(S's\x0c\x00\x00\x00Introduction'
tRp4217
I00
S'http://www.web2py.com/book/default/chapter/01'
tp4218
a(g3479
(S's\x06\x00\x00\x00Python'
tRp4219
I00
S'http://www.web2py.com/book/default/chapter/02'
tp4220
a(g3479
(S's\x08\x00\x00\x00Overview'
tRp4221
I00
S'http://www.web2py.com/book/default/chapter/03'
tp4222
a(g3479
(S's\x08\x00\x00\x00The Core'
tRp4223
I00
S'http://www.web2py.com/book/default/chapter/04'
tp4224
a(g3479
(S's\t\x00\x00\x00The Views'
tRp4225
I00
S'http://www.web2py.com/book/default/chapter/05'
tp4226
a(g3479
(S's\x08\x00\x00\x00Database'
tRp4227
I00
S'http://www.web2py.com/book/default/chapter/06'
tp4228
a(g3479
(S's\x14\x00\x00\x00Forms and Validators'
tRp4229
I00
S'http://www.web2py.com/book/default/chapter/07'
tp4230
a(g3479
(S's\x0e\x00\x00\x00Access Control'
tRp4231
I00
S'http://www.web2py.com/book/default/chapter/08'
tp4232
a(g3479
(S's\x08\x00\x00\x00Services'
tRp4233
I00
S'http://www.web2py.com/book/default/chapter/09'
tp4234
a(g3479
(S's\x0c\x00\x00\x00Ajax Recipes'
tRp4235
I00
S'http://www.web2py.com/book/default/chapter/10'
tp4236
a(g3479
(S's\x12\x00\x00\x00Deployment Recipes'
tRp4237
I00
S'http://www.web2py.com/book/default/chapter/11'
tp4238
a(g3479
(S's\r\x00\x00\x00Other Recipes'
tRp4239
I00
S'http://www.web2py.com/book/default/chapter/12'
tp4240
a(g3479
(S's\r\x00\x00\x00Buy this book'
tRp4241
I00
S'http://stores.lulu.com/web2py'
tp4242
aasbasbasbasbasbasbasbag56
(g72
g58
NtRp4243
(dp4244
g61
(dp4245
sg70
g4144
sg63
(lp4246
g56
(g77
g58
NtRp4247
(dp4248
g61
(dp4249
sg70
g4243
sg63
(lp4250
g56
(g57
g58
NtRp4251
(dp4252
g61
(dp4253
g69
I2
ssg70
g4247
sg63
(lp4254
g56
(g65
g58
NtRp4255
(dp4256
g61
(dp4257
g69
I1
ssg70
Nsg63
(lp4258
g56
(g72
g58
NtRp4259
(dp4260
g61
(dp4261
sg70
g4255
sg63
(lp4262
g56
(g77
g58
NtRp4263
(dp4264
g61
(dp4265
sg70
g4259
sg63
(lp4266
g56
(g57
g58
NtRp4267
(dp4268
g61
(dp4269
g69
I1
ssg70
g4263
sg63
(lp4270
g3479
(S's\t\x00\x00\x00Community'
tRp4271
asbasbasbag56
(g72
g58
NtRp4272
(dp4273
g61
(dp4274
sg70
g4255
sg63
(lp4275
g56
(g77
g58
NtRp4276
(dp4277
g61
(dp4278
sg70
g4272
sg63
(lp4279
g56
(g57
g58
NtRp4280
(dp4281
g61
(dp4282
g69
I1
ssg70
g4276
sg63
(lp4283
I00
asbasbasbag56
(g72
g58
NtRp4284
(dp4285
g61
(dp4286
sg70
g4255
sg63
(lp4287
g56
(g77
g58
NtRp4288
(dp4289
g61
(dp4290
sg70
g4284
sg63
(lp4291
g56
(g57
g58
NtRp4292
(dp4293
g61
(dp4294
g69
I1
ssg70
g4288
sg63
(lp4295
Nasbasbasbag56
(g72
g58
NtRp4296
(dp4297
g61
(dp4298
sg70
g4255
sg63
(lp4299
g56
(g77
g58
NtRp4300
(dp4301
g61
(dp4302
sg70
g4296
sg63
(lp4303
g56
(g57
g58
NtRp4304
(dp4305
g61
(dp4306
g69
I1
ssg70
g4300
sg63
(lp4307
(lp4308
(g3479
(S's\x06\x00\x00\x00Groups'
tRp4309
I00
S'http://www.web2py.com/examples/default/usergroups'
tp4310
a(g3479
(S's\x07\x00\x00\x00Twitter'
tRp4311
I00
S'http://twitter.com/web2py'
tp4312
a(g3479
(S's\t\x00\x00\x00Live chat'
tRp4313
I00
S'http://mibbit.com/?channel=%23web2py&server=irc.mibbit.net'
tp4314
a(g3479
(S's\n\x00\x00\x00User Voice'
tRp4315
I00
S'http://web2py.uservoice.com/'
tp4316
aasbasbasbasbasbasbasbag56
(g72
g58
NtRp4317
(dp4318
g61
(dp4319
sg70
g4144
sg63
(lp4320
g56
(g77
g58
NtRp4321
(dp4322
g61
(dp4323
sg70
g4317
sg63
(lp4324
g56
(g57
g58
NtRp4325
(dp4326
g61
(dp4327
g69
I2
ssg70
g4321
sg63
(lp4328
g56
(g65
g58
NtRp4329
(dp4330
g61
(dp4331
g69
I1
ssg70
Nsg63
(lp4332
g56
(g72
g58
NtRp4333
(dp4334
g61
(dp4335
sg70
g4329
sg63
(lp4336
g56
(g77
g58
NtRp4337
(dp4338
g61
(dp4339
sg70
g4333
sg63
(lp4340
g56
(g57
g58
NtRp4341
(dp4342
g61
(dp4343
g69
I1
ssg70
g4337
sg63
(lp4344
g3479
(S's\x06\x00\x00\x00Web2py'
tRp4345
asbasbasbag56
(g72
g58
NtRp4346
(dp4347
g61
(dp4348
sg70
g4329
sg63
(lp4349
g56
(g77
g58
NtRp4350
(dp4351
g61
(dp4352
sg70
g4346
sg63
(lp4353
g56
(g57
g58
NtRp4354
(dp4355
g61
(dp4356
g69
I1
ssg70
g4350
sg63
(lp4357
I00
asbasbasbag56
(g72
g58
NtRp4358
(dp4359
g61
(dp4360
sg70
g4329
sg63
(lp4361
g56
(g77
g58
NtRp4362
(dp4363
g61
(dp4364
sg70
g4358
sg63
(lp4365
g56
(g57
g58
NtRp4366
(dp4367
g61
(dp4368
g69
I1
ssg70
g4362
sg63
(lp4369
S'http://www.web2py.com'
p4370
asbasbasbag56
(g72
g58
NtRp4371
(dp4372
g61
(dp4373
sg70
g4329
sg63
(lp4374
g56
(g77
g58
NtRp4375
(dp4376
g61
(dp4377
sg70
g4371
sg63
(lp4378
g56
(g57
g58
NtRp4379
(dp4380
g61
(dp4381
g69
I1
ssg70
g4375
sg63
(lp4382
(lp4383
(g3479
(S's\x08\x00\x00\x00Download'
tRp4384
I00
S'http://www.web2py.com/examples/default/download'
tp4385
a(g3479
(S's\x07\x00\x00\x00Support'
tRp4386
I00
S'http://www.web2py.com/examples/default/support'
tp4387
a(g3479
(S's\x0e\x00\x00\x00Quick Examples'
tRp4388
I00
S'http://web2py.com/examples/default/examples'
tp4389
a(g3479
(S's\x03\x00\x00\x00FAQ'
tRp4390
I00
S'http://web2py.com/AlterEgo'
tp4391
a(g3479
(S's\x11\x00\x00\x00Free Applications'
tRp4392
I00
S'http://web2py.com/appliances'
tp4393
a(g3479
(S's\x07\x00\x00\x00Plugins'
tRp4394
I00
S'http://web2py.com/plugins'
tp4395
a(g3479
(S's\x07\x00\x00\x00Recipes'
tRp4396
I00
S'http://web2pyslices.com/'
tp4397
a(g3479
(S's\x04\x00\x00\x00Demo'
tRp4398
I00
S'http://web2py.com/demo_admin'
tp4399
a(g3479
(S's\x08\x00\x00\x00Semantic'
tRp4400
I00
S'http://web2py.com/semantic'
tp4401
a(g3479
(S's\x07\x00\x00\x00Layouts'
tRp4402
I00
S'http://web2py.com/layouts'
tp4403
a(g3479
(S's\x06\x00\x00\x00Videos'
tRp4404
I00
S'http://www.web2py.com/examples/default/videos/'
tp4405
aasbasbasbasbasbasbasbasbasbasbasbasbasbasbasbasbasbasbasbag56
(g72
g58
NtRp4406
(dp4407
g61
(dp4408
sg70
g2986
sg63
(lp4409
g56
(g77
g58
NtRp4410
(dp4411
g61
(dp4412
g81
g82
ssg70
g4406
sg63
(lp4413
S'meta'
p4414
asbag56
(g77
g58
NtRp4415
(dp4416
g61
(dp4417
g88
g89
ssg70
g4406
sg63
(lp4418
S':'
asbag56
(g77
g58
NtRp4419
(dp4420
g61
(dp4421
sg70
g4406
sg63
(lp4422
g56
(g57
g58
NtRp4423
(dp4424
g61
(dp4425
g69
I5
ssg70
g4419
sg63
(lp4426
g56
(g65
g58
NtRp4427
(dp4428
g61
(dp4429
g69
I4
ssg70
Nsg63
(lp4430
g56
(g72
g58
NtRp4431
(dp4432
g61
(dp4433
sg70
g4427
sg63
(lp4434
g56
(g77
g58
NtRp4435
(dp4436
g61
(dp4437
g81
g82
ssg70
g4431
sg63
(lp4438
S'author'
p4439
asbag56
(g77
g58
NtRp4440
(dp4441
g61
(dp4442
g88
g89
ssg70
g4431
sg63
(lp4443
S':'
asbag56
(g77
g58
NtRp4444
(dp4445
g61
(dp4446
sg70
g4431
sg63
(lp4447
g56
(g57
g58
NtRp4448
(dp4449
g61
(dp4450
g69
I4
ssg70
g4444
sg63
(lp4451
S'you'
p4452
asbasbasbag56
(g72
g58
NtRp4453
(dp4454
g61
(dp4455
sg70
g4427
sg63
(lp4456
g56
(g77
g58
NtRp4457
(dp4458
g61
(dp4459
g81
g82
ssg70
g4453
sg63
(lp4460
S'copyright'
p4461
asbag56
(g77
g58
NtRp4462
(dp4463
g61
(dp4464
g88
g89
ssg70
g4453
sg63
(lp4465
S':'
asbag56
(g77
g58
NtRp4466
(dp4467
g61
(dp4468
sg70
g4453
sg63
(lp4469
g56
(g57
g58
NtRp4470
(dp4471
g61
(dp4472
g69
I4
ssg70
g4466
sg63
(lp4473
S'Copyright 2007-2010'
p4474
asbasbasbag56
(g72
g58
NtRp4475
(dp4476
g61
(dp4477
sg70
g4427
sg63
(lp4478
g56
(g77
g58
NtRp4479
(dp4480
g61
(dp4481
g81
g82
ssg70
g4475
sg63
(lp4482
S'description'
p4483
asbag56
(g77
g58
NtRp4484
(dp4485
g61
(dp4486
g88
g89
ssg70
g4475
sg63
(lp4487
S':'
asbag56
(g77
g58
NtRp4488
(dp4489
g61
(dp4490
sg70
g4475
sg63
(lp4491
g56
(g57
g58
NtRp4492
(dp4493
g61
(dp4494
g69
I4
ssg70
g4488
sg63
(lp4495
S'Free and open source full-stack enterprise framework for agile development of fast, scalable, secure and portable database-driven web-based applications. Written and programmable in Python'
p4496
asbasbasbag56
(g72
g58
NtRp4497
(dp4498
g61
(dp4499
sg70
g4427
sg63
(lp4500
g56
(g77
g58
NtRp4501
(dp4502
g61
(dp4503
g81
g82
ssg70
g4497
sg63
(lp4504
S'generator'
p4505
asbag56
(g77
g58
NtRp4506
(dp4507
g61
(dp4508
g88
g89
ssg70
g4497
sg63
(lp4509
S':'
asbag56
(g77
g58
NtRp4510
(dp4511
g61
(dp4512
sg70
g4497
sg63
(lp4513
g56
(g57
g58
NtRp4514
(dp4515
g61
(dp4516
g69
I4
ssg70
g4510
sg63
(lp4517
S'Web2py Enterprise Framework'
p4518
asbasbasbag56
(g72
g58
NtRp4519
(dp4520
g61
(dp4521
sg70
g4427
sg63
(lp4522
g56
(g77
g58
NtRp4523
(dp4524
g61
(dp4525
g81
g82
ssg70
g4519
sg63
(lp4526
S'keywords'
p4527
asbag56
(g77
g58
NtRp4528
(dp4529
g61
(dp4530
g88
g89
ssg70
g4519
sg63
(lp4531
S':'
asbag56
(g77
g58
NtRp4532
(dp4533
g61
(dp4534
sg70
g4519
sg63
(lp4535
g56
(g57
g58
NtRp4536
(dp4537
g61
(dp4538
g69
I4
ssg70
g4532
sg63
(lp4539
S'web2py, python, framework'
p4540
asbasbasbasbasbasbasbag56
(g72
g58
NtRp4541
(dp4542
g61
(dp4543
sg70
g2986
sg63
(lp4544
g56
(g77
g58
NtRp4545
(dp4546
g61
(dp4547
g81
g82
ssg70
g4541
sg63
(lp4548
S'postprocessing'
p4549
asbag56
(g77
g58
NtRp4550
(dp4551
g61
(dp4552
g88
g89
ssg70
g4541
sg63
(lp4553
S':'
asbag56
(g77
g58
NtRp4554
(dp4555
g61
(dp4556
sg70
g4541
sg63
(lp4557
g56
(g57
g58
NtRp4558
(dp4559
g61
(dp4560
g69
I5
ssg70
g4554
sg63
(lp4561
g56
(g65
g58
NtRp4562
(dp4563
g61
(dp4564
g69
I4
ssg70
Nsg63
(lp4565
sbasbasbasbag56
(g72
g58
NtRp4566
(dp4567
g61
(dp4568
sg70
g2986
sg63
(lp4569
g56
(g77
g58
NtRp4570
(dp4571
g61
(dp4572
g81
g82
ssg70
g4566
sg63
(lp4573
S'session_file'
p4574
asbag56
(g77
g58
NtRp4575
(dp4576
g61
(dp4577
g88
g89
ssg70
g4566
sg63
(lp4578
S':'
asbag56
(g77
g58
NtRp4579
(dp4580
g61
(dp4581
sg70
g4566
sg63
(lp4582
g56
(g57
g58
NtRp4583
(dp4584
g61
(dp4585
g69
I5
ssg70
g4579
sg63
(lp4586
S"<open file '/home/alumno/web2py/applications/datos/sessions/127.0.0.1-db62c583-5264-4eba-ba24-7cb87b43795a', mode 'rb+' at 0xa361128>"
p4587
asbasbasbag56
(g72
g58
NtRp4588
(dp4589
g61
(dp4590
sg70
g2986
sg63
(lp4591
g56
(g77
g58
NtRp4592
(dp4593
g61
(dp4594
g81
g82
ssg70
g4588
sg63
(lp4595
S'session_filename'
p4596
asbag56
(g77
g58
NtRp4597
(dp4598
g61
(dp4599
g88
g89
ssg70
g4588
sg63
(lp4600
S':'
asbag56
(g77
g58
NtRp4601
(dp4602
g61
(dp4603
sg70
g4588
sg63
(lp4604
g56
(g57
g58
NtRp4605
(dp4606
g61
(dp4607
g69
I5
ssg70
g4601
sg63
(lp4608
S'/home/alumno/web2py/applications/datos/sessions/127.0.0.1-db62c583-5264-4eba-ba24-7cb87b43795a'
p4609
asbasbasbag56
(g72
g58
NtRp4610
(dp4611
g61
(dp4612
sg70
g2986
sg63
(lp4613
g56
(g77
g58
NtRp4614
(dp4615
g61
(dp4616
g81
g82
ssg70
g4610
sg63
(lp4617
S'session_id'
p4618
asbag56
(g77
g58
NtRp4619
(dp4620
g61
(dp4621
g88
g89
ssg70
g4610
sg63
(lp4622
S':'
asbag56
(g77
g58
NtRp4623
(dp4624
g61
(dp4625
sg70
g4610
sg63
(lp4626
g56
(g57
g58
NtRp4627
(dp4628
g61
(dp4629
g69
I5
ssg70
g4623
sg63
(lp4630
S'127.0.0.1-db62c583-5264-4eba-ba24-7cb87b43795a'
p4631
asbasbasbag56
(g72
g58
NtRp4632
(dp4633
g61
(dp4634
sg70
g2986
sg63
(lp4635
g56
(g77
g58
NtRp4636
(dp4637
g61
(dp4638
g81
g82
ssg70
g4632
sg63
(lp4639
S'session_id_name'
p4640
asbag56
(g77
g58
NtRp4641
(dp4642
g61
(dp4643
g88
g89
ssg70
g4632
sg63
(lp4644
S':'
asbag56
(g77
g58
NtRp4645
(dp4646
g61
(dp4647
sg70
g4632
sg63
(lp4648
g56
(g57
g58
NtRp4649
(dp4650
g61
(dp4651
g69
I5
ssg70
g4645
sg63
(lp4652
g3043
asbasbasbag56
(g72
g58
NtRp4653
(dp4654
g61
(dp4655
sg70
g2986
sg63
(lp4656
g56
(g77
g58
NtRp4657
(dp4658
g61
(dp4659
g81
g82
ssg70
g4653
sg63
(lp4660
S'session_locked'
p4661
asbag56
(g77
g58
NtRp4662
(dp4663
g61
(dp4664
g88
g89
ssg70
g4653
sg63
(lp4665
S':'
asbag56
(g77
g58
NtRp4666
(dp4667
g61
(dp4668
sg70
g4653
sg63
(lp4669
g56
(g57
g58
NtRp4670
(dp4671
g61
(dp4672
g69
I5
ssg70
g4666
sg63
(lp4673
g1938
asbasbasbag56
(g72
g58
NtRp4674
(dp4675
g61
(dp4676
sg70
g2986
sg63
(lp4677
g56
(g77
g58
NtRp4678
(dp4679
g61
(dp4680
g81
g82
ssg70
g4674
sg63
(lp4681
S'session_new'
p4682
asbag56
(g77
g58
NtRp4683
(dp4684
g61
(dp4685
g88
g89
ssg70
g4674
sg63
(lp4686
S':'
asbag56
(g77
g58
NtRp4687
(dp4688
g61
(dp4689
sg70
g4674
sg63
(lp4690
g56
(g57
g58
NtRp4691
(dp4692
g61
(dp4693
g69
I5
ssg70
g4687
sg63
(lp4694
g99
asbasbasbag56
(g72
g58
NtRp4695
(dp4696
g61
(dp4697
sg70
g2986
sg63
(lp4698
g56
(g77
g58
NtRp4699
(dp4700
g61
(dp4701
g81
g82
ssg70
g4695
sg63
(lp4702
S'status'
p4703
asbag56
(g77
g58
NtRp4704
(dp4705
g61
(dp4706
g88
g89
ssg70
g4695
sg63
(lp4707
S':'
asbag56
(g77
g58
NtRp4708
(dp4709
g61
(dp4710
sg70
g4695
sg63
(lp4711
g56
(g57
g58
NtRp4712
(dp4713
g61
(dp4714
g69
I5
ssg70
g4708
sg63
(lp4715
S'200'
p4716
asbasbasbag56
(g72
g58
NtRp4717
(dp4718
g61
(dp4719
sg70
g2986
sg63
(lp4720
g56
(g77
g58
NtRp4721
(dp4722
g61
(dp4723
g81
g82
ssg70
g4717
sg63
(lp4724
S'subtitle'
p4725
asbag56
(g77
g58
NtRp4726
(dp4727
g61
(dp4728
g88
g89
ssg70
g4717
sg63
(lp4729
S':'
asbag56
(g77
g58
NtRp4730
(dp4731
g61
(dp4732
sg70
g4717
sg63
(lp4733
g56
(g57
g58
NtRp4734
(dp4735
g61
(dp4736
g69
I5
ssg70
g4730
sg63
(lp4737
g3479
(S's\r\x00\x00\x00customize me!'
tRp4738
asbasbasbag56
(g72
g58
NtRp4739
(dp4740
g61
(dp4741
sg70
g2986
sg63
(lp4742
g56
(g77
g58
NtRp4743
(dp4744
g61
(dp4745
g81
g82
ssg70
g4739
sg63
(lp4746
S'title'
p4747
asbag56
(g77
g58
NtRp4748
(dp4749
g61
(dp4750
g88
g89
ssg70
g4739
sg63
(lp4751
S':'
asbag56
(g77
g58
NtRp4752
(dp4753
g61
(dp4754
sg70
g4739
sg63
(lp4755
g56
(g57
g58
NtRp4756
(dp4757
g61
(dp4758
g69
I5
ssg70
g4752
sg63
(lp4759
g121
asbasbasbag56
(g72
g58
NtRp4760
(dp4761
g61
(dp4762
sg70
g2986
sg63
(lp4763
g56
(g77
g58
NtRp4764
(dp4765
g61
(dp4766
g81
g82
ssg70
g4760
sg63
(lp4767
g2262
asbag56
(g77
g58
NtRp4768
(dp4769
g61
(dp4770
g88
g89
ssg70
g4760
sg63
(lp4771
S':'
asbag56
(g77
g58
NtRp4772
(dp4773
g61
(dp4774
sg70
g4760
sg63
(lp4775
g56
(g57
g58
NtRp4776
(dp4777
g61
(dp4778
g69
I5
ssg70
g4772
sg63
(lp4779
g2275
asbasbasbag56
(g72
g58
NtRp4780
(dp4781
g61
(dp4782
sg70
g2986
sg63
(lp4783
g56
(g77
g58
NtRp4784
(dp4785
g61
(dp4786
g81
g82
ssg70
g4780
sg63
(lp4787
S'view'
p4788
asbag56
(g77
g58
NtRp4789
(dp4790
g61
(dp4791
g88
g89
ssg70
g4780
sg63
(lp4792
S':'
asbag56
(g77
g58
NtRp4793
(dp4794
g61
(dp4795
sg70
g4780
sg63
(lp4796
g56
(g57
g58
NtRp4797
(dp4798
g61
(dp4799
g69
I5
ssg70
g4793
sg63
(lp4800
S'default/index.html'
p4801
asbasbasbasbasbsS'locals'
p4802
(dp4803
S'OBJECT'
p4804
S"<class 'gluon.html.OBJECT'>"
p4805
sS'SQLDB'
p4806
S"<class 'gluon.dal.DAL'>"
p4807
sg2946
S"<Storage {'last_query': 'db.profesor.id>0', '_Se...mno/1]': '0a0a702b-1797-4003-b3f0-be5df862215a'}>"
p4808
sS'LINK'
p4809
S"<class 'gluon.html.LINK'>"
p4810
sS'BR'
p4811
S"<class 'gluon.html.BR'>"
p4812
sS'local_import'
p4813
S'<function <lambda>>'
p4814
sS'OPTGROUP'
p4815
S"<class 'gluon.html.OPTGROUP'>"
p4816
sS'PRE'
p4817
S"<class 'gluon.html.PRE'>"
p4818
sS'IS_INT_IN_RANGE'
p4819
S"<class 'gluon.validators.IS_INT_IN_RANGE'>"
p4820
sS'IS_LOWER'
p4821
S"<class 'gluon.validators.IS_LOWER'>"
p4822
sS'IS_STRONG'
p4823
S"<class 'gluon.validators.IS_STRONG'>"
p4824
sS'cache'
p4825
S'<gluon.cache.Cache object>'
p4826
sS'IS_IN_DB'
p4827
S"<class 'gluon.validators.IS_IN_DB'>"
p4828
sS'TAG'
p4829
S'<gluon.html.__TAG__ object>'
p4830
sS'SQLField'
p4831
S"<class 'gluon.dal.Field'>"
p4832
sS'BODY'
p4833
S"<class 'gluon.html.BODY'>"
p4834
sS'IS_DATE_IN_RANGE'
p4835
S"<class 'gluon.validators.IS_DATE_IN_RANGE'>"
p4836
sS'IFRAME'
p4837
S"<class 'gluon.html.IFRAME'>"
p4838
sS'URL'
p4839
S'<function URL>'
p4840
sS'__file__'
p4841
S"'/home/alumno/web2py/applications/datos/controllers/default.py'"
p4842
sS'db'
p4843
S"<DAL {'_migrate_enabled': True, '_lastsql': '', ...'_uri_hash': 'eb1dad4d662ce09be948e804719cfbad'}>"
p4844
sS'P'
S"<class 'gluon.html.P'>"
p4845
sS'TFOOT'
p4846
S"<class 'gluon.html.TFOOT'>"
p4847
sS'XHTML'
p4848
S"<class 'gluon.html.XHTML'>"
p4849
sS'ON'
p4850
g1938
sS'OL'
p4851
S"<class 'gluon.html.OL'>"
p4852
sS'TEXTAREA'
p4853
S"<class 'gluon.html.TEXTAREA'>"
p4854
sS'MENU'
p4855
S"<class 'gluon.html.MENU'>"
p4856
sS'EM'
p4857
S"<class 'gluon.html.EM'>"
p4858
sS'CODE'
p4859
S"<class 'gluon.html.CODE'>"
p4860
sS'HTTP'
p4861
S"<class 'gluon.http.HTTP'>"
p4862
sS'HR'
p4863
S"<class 'gluon.html.HR'>"
p4864
sS'IS_DATETIME'
p4865
S"<class 'gluon.validators.IS_DATETIME'>"
p4866
sS'STYLE'
p4867
S"<class 'gluon.html.STYLE'>"
p4868
sS'LABEL'
p4869
S"<class 'gluon.html.LABEL'>"
p4870
sS'CLEANUP'
p4871
S"<class 'gluon.validators.CLEANUP'>"
p4872
sS'download'
p4873
S'<function download>'
p4874
sS'SELECT'
p4875
S"<class 'gluon.html.SELECT'>"
p4876
sg2096
S'<function index>'
p4877
sS'CENTER'
p4878
S"<class 'gluon.html.CENTER'>"
p4879
sS'__builtins__'
p4880
S"{'ArithmeticError': <type 'exceptions.ArithmeticError'>, 'AssertionError': <type 'exceptions.AssertionError'>, 'AttributeError': <type 'exceptions.AttributeError'>, 'BaseException': <type 'exceptions.BaseException'>, 'BufferError': <type 'exceptions.BufferError'>, 'BytesWarning': <type 'exceptions.BytesWarning'>, 'DeprecationWarning': <type 'exceptions.DeprecationWarning'>, 'EOFError': <type 'exceptions.EOFError'>, 'Ellipsis': Ellipsis, 'EnvironmentError': <type 'exceptions.EnvironmentError'>, ...}"
p4881
sS'IS_LIST_OF'
p4882
S"<class 'gluon.validators.IS_LIST_OF'>"
p4883
sS'SQLFORM'
p4884
S"<class 'gluon.sqlhtml.SQLFORM'>"
p4885
sS'LOAD'
p4886
S'<gluon.compileapp.LoadFactory object>'
p4887
sS'redirect'
p4888
S'<function redirect>'
p4889
sS'FIELDSET'
p4890
S"<class 'gluon.html.FIELDSET'>"
p4891
sS'IS_EQUAL_TO'
p4892
S"<class 'gluon.validators.IS_EQUAL_TO'>"
p4893
sS'embed64'
p4894
S'<function embed64>'
p4895
sS'INPUT'
p4896
S"<class 'gluon.html.INPUT'>"
p4897
sS'EMBED'
p4898
S"<class 'gluon.html.EMBED'>"
p4899
sS'FORM'
p4900
S"<class 'gluon.html.FORM'>"
p4901
sS'H2'
p4902
S"<class 'gluon.html.H2'>"
p4903
sS'H3'
p4904
S"<class 'gluon.html.H3'>"
p4905
sS'BUTTON'
p4906
S"<class 'gluon.html.BUTTON'>"
p4907
sS'H1'
p4908
S"<class 'gluon.html.H1'>"
p4909
sS'H6'
p4910
S"<class 'gluon.html.H6'>"
p4911
sS'H4'
p4912
S"<class 'gluon.html.H4'>"
p4913
sS'H5'
p4914
S"<class 'gluon.html.H5'>"
p4915
sS'UL'
p4916
S"<class 'gluon.html.UL'>"
p4917
sS'IS_UPPER'
p4918
S"<class 'gluon.validators.IS_UPPER'>"
p4919
sS'xmlescape'
p4920
S'<function xmlescape>'
p4921
sS'IS_TIME'
p4922
S"<class 'gluon.validators.IS_TIME'>"
p4923
sS'OPTION'
p4924
S"<class 'gluon.html.OPTION'>"
p4925
sS'TITLE'
p4926
S"<class 'gluon.html.TITLE'>"
p4927
sS'CRYPT'
p4928
S"<class 'gluon.validators.CRYPT'>"
p4929
sS'IS_EMPTY_OR'
p4930
S"<class 'gluon.validators.IS_EMPTY_OR'>"
p4931
sS'MARKMIN'
p4932
S"<class 'gluon.html.MARKMIN'>"
p4933
sS'SCRIPT'
p4934
S"<class 'gluon.html.SCRIPT'>"
p4935
sg2924
S'<function call>'
p4936
sS'TABLE'
p4937
S"<class 'gluon.html.TABLE'>"
p4938
sS'IS_IPV4'
p4939
S"<class 'gluon.validators.IS_IPV4'>"
p4940
sS'IS_LENGTH'
p4941
S"<class 'gluon.validators.IS_LENGTH'>"
p4942
sS'XML'
p4943
S"<class 'gluon.html.XML'>"
p4944
sS'B'
S"<class 'gluon.html.B'>"
p4945
sS'IMG'
p4946
S"<class 'gluon.html.IMG'>"
p4947
sS'SQLTABLE'
p4948
S"<class 'gluon.sqlhtml.SQLTABLE'>"
p4949
sS'IS_MATCH'
p4950
S"<class 'gluon.validators.IS_MATCH'>"
p4951
sS'IS_ALPHANUMERIC'
p4952
S"<class 'gluon.validators.IS_ALPHANUMERIC'>"
p4953
sS'SPAN'
p4954
S"<class 'gluon.html.SPAN'>"
p4955
sS'IS_SLUG'
p4956
S"<class 'gluon.validators.IS_SLUG'>"
p4957
sS'BEAUTIFY'
p4958
S"<class 'gluon.html.BEAUTIFY'>"
p4959
sS'META'
p4960
S"<class 'gluon.html.META'>"
p4961
sS'IS_DATE'
p4962
S"<class 'gluon.validators.IS_DATE'>"
p4963
sS'IS_EMAIL'
p4964
S"<class 'gluon.validators.IS_EMAIL'>"
p4965
sS'IS_NOT_EMPTY'
p4966
S"<class 'gluon.validators.IS_NOT_EMPTY'>"
p4967
sS'IS_FLOAT_IN_RANGE'
p4968
S"<class 'gluon.validators.IS_FLOAT_IN_RANGE'>"
p4969
sS'TBODY'
p4970
S"<class 'gluon.html.TBODY'>"
p4971
sS'CAT'
p4972
S"<class 'gluon.html.CAT'>"
p4973
sS'Field'
p4974
S"<class 'gluon.dal.Field'>"
p4975
sS'DIV'
p4976
S"<class 'gluon.html.DIV'>"
p4977
sS'LEGEND'
p4978
S"<class 'gluon.html.LEGEND'>"
p4979
sS'DAL'
p4980
S"<class 'gluon.dal.DAL'>"
p4981
sS'TT'
p4982
S"<class 'gluon.html.TT'>"
p4983
sS'TR'
p4984
S"<class 'gluon.html.TR'>"
p4985
sS'LI'
p4986
S"<class 'gluon.html.LI'>"
p4987
sS'TH'
p4988
S"<class 'gluon.html.TH'>"
p4989
sS'TD'
p4990
S"<class 'gluon.html.TD'>"
p4991
sS'IS_URL'
p4992
S"<class 'gluon.validators.IS_URL'>"
p4993
sS'A'
S"<class 'gluon.html.A'>"
p4994
sS'HEAD'
p4995
S"<class 'gluon.html.HEAD'>"
p4996
sS'IS_DATETIME_IN_RANGE'
p4997
S"<class 'gluon.validators.IS_DATETIME_IN_RANGE'>"
p4998
sS'HTML'
p4999
S"<class 'gluon.html.HTML'>"
p5000
sS'IS_IMAGE'
p5001
S"<class 'gluon.validators.IS_IMAGE'>"
p5002
sS'I'
S"<class 'gluon.html.I'>"
p5003
sS'IS_NOT_IN_DB'
p5004
S"<class 'gluon.validators.IS_NOT_IN_DB'>"
p5005
sS'user'
p5006
S'<function user>'
p5007
sg2981
S"<Storage {'body': <cStringIO.StringO object at 0...da> at 0xa3745dc>, 'view': 'default/index.html'}>"
p5008
sS'THEAD'
p5009
S"<class 'gluon.html.THEAD'>"
p5010
sS'IS_NULL_OR'
p5011
S"<class 'gluon.validators.IS_EMPTY_OR'>"
p5012
sg55
S"<Storage {'is_local': True, 'function': 'index',....19-52-16.ba43c40c-19b1-4c2f-bab1-f0c8fc42597e'}>"
p5013
sS'IS_EXPR'
p5014
S"<class 'gluon.validators.IS_EXPR'>"
p5015
sS'IS_IN_SET'
p5016
S"<class 'gluon.validators.IS_IN_SET'>"
p5017
sS'IS_UPLOAD_FILENAME'
p5018
S"<class 'gluon.validators.IS_UPLOAD_FILENAME'>"
p5019
sS'IS_DECIMAL_IN_RANGE'
p5020
S"<class 'gluon.validators.IS_DECIMAL_IN_RANGE'>"
p5021
sS'T'
S'<gluon.languages.translator object>'
p5022
sssS'traceback'
p5023
S'Traceback (most recent call last):\n  File "/home/alumno/web2py/gluon/restricted.py", line 192, in restricted\n    exec ccode in environment\n  File "/home/alumno/web2py/applications/datos/controllers/default.py", line 54, in <module>\n    @auth.requires_signature()\nNameError: name \'auth\' is not defined\n'
p5024
s.