(dp1
S'output'
p2
S''
sS'layer'
p3
S'/home/alumno/web2py/applications/datos/views/default/index.html'
p4
sS'code'
p5
S'response.write(\'<!DOCTYPE html>\\n<html lang="\', escape=False)\nresponse.write(T.accepted_language or \'en\')\nresponse.write(\'" class="no-js"><!-- no-js need it for modernzr -->\\n  <head>\\n    \\n    <meta charset="utf-8" />\\t  \\t\\n    <!-- www.phpied.com/conditional-comments-block-downloads/ -->\\n    <!--[if IE]><![endif]-->    \\n    <!-- Always force latest IE rendering engine \\n\\t (even in intranet) & Chrome Frame \\n\\t Remove this if you use the .htaccess -->\\n    <meta http-equiv="X-UA-Compatible" content="IE=edge,chrome=1">\\n    \\n    <title>\', escape=False)\nresponse.write(response.title or request.application)\nresponse.write(\'</title>\\n    \\n    <!-- http://dev.w3.org/html5/markup/meta.name.html -->\\n    <meta name="application-name" content="\', escape=False)\nresponse.write(request.application)\nresponse.write(\'" />\\t\\n    \\n    <!-- Speaking of Google, don\\\'t forget to set your site up: \\n\\t http://google.com/webmasters -->\\n    <meta name="google-site-verification" content="" />\\n    \\n    <!--  Mobile Viewport Fix\\n\\t  j.mp/mobileviewport & davidbcalhoun.com/2010/viewport-metatag \\n\\t  device-width: Occupy full width of the screen in its current orientation\\n\\t  initial-scale = 1.0 retains dimensions instead of zooming out if page height > device height\\n\\t  maximum-scale = 1.0 retains dimensions instead of zooming in if page width < device width\\n      -->\\n    <meta name="viewport" content="width=device-width, initial-scale=1.0, maximum-scale=1.0">\\n    \\n    <!-- Place favicon.ico and apple-touch-icon.png in the root of your domain and delete these references -->\\n    <link rel="shortcut icon" href="\', escape=False)\nresponse.write(URL(\'static\',\'favicon.ico\'))\nresponse.write(\'" type="image/x-icon">\\n    <link rel="apple-touch-icon" href="\', escape=False)\nresponse.write(URL(\'static\',\'favicon.png\'))\nresponse.write(\'">\\n\\n    <!-- For the less-enabled mobile browsers like Opera Mini -->\\n    <link rel="stylesheet" media="handheld" href="\', escape=False)\nresponse.write(URL(\'static\',\'css/handheld.css\'))\nresponse.write(\'">\\n    \\n    <!-- All JavaScript at the bottom, except for Modernizr which enables HTML5 elements & feature detects -->\\n    <script src="\', escape=False)\nresponse.write(URL(\'static\',\'js/modernizr-1.7.min.js\'))\nresponse.write(\'"></script>\\n    \\n    \', escape=False)\n#------  require CSS and JS files for this page (read info in base.css) ------\nresponse.write(\'\\n    \', escape=False)\nresponse.files.append(URL(\'static\',\'css/base.css\'))\nresponse.write(\'\\n    \', escape=False)\nresponse.files.append(URL(\'static\',\'css/superfish.css\'))\nresponse.write(\'\\n    \', escape=False)\nresponse.files.append(URL(\'static\',\'js/superfish.js\'))\nresponse.write(\'\\n    \', escape=False)\n#------ include web2py specific js code (jquery, calendar, form stuff) ------\nresponse.write(\'\\n    \', escape=False)\nresponse.files.insert(0,URL(\'static\',\'js/jquery.js\'))\nresponse.files.insert(1,URL(\'static\',\'css/calendar.css\'))\nresponse.files.insert(2,URL(\'static\',\'js/calendar.js\'))\nfor _item in response.meta or []:\n    response.write(\'\\n     <meta name="\', escape=False)\n    response.write(_item)\n    response.write(\'" content="\', escape=False)\n    response.write(response.meta[_item])\n    response.write(\'" />\', escape=False)\n    pass\nfor _k,_file in enumerate(response.files or []):\n    if _file in response.files[:_k]:\n        continue\n    _file0=_file.lower().split(\'?\')[0]\n    if _file0.endswith(\'.css\'):\n        response.write(\'\\n     <link href="\', escape=False)\n        response.write(_file)\n        response.write(\'" rel="stylesheet" type="text/css" />\', escape=False)\n    elif _file0.endswith(\'.js\'):\n        response.write(\'\\n     <script src="\', escape=False)\n        response.write(_file)\n        response.write(\'" type="text/javascript"></script>\', escape=False)\n        pass\n    pass\nresponse.write(\'\\n    <script type="text/javascript"><!--\\n    // These variables are used by the web2py_ajax_init function in web2py_ajax.js (which is loaded below).\\n    var w2p_ajax_confirm_message = "\', escape=False)\nresponse.write(T(\'Are you sure you want to delete this object?\'))\nresponse.write(\'";\\n    var w2p_ajax_date_format = "\', escape=False)\nresponse.write(T(\'%Y-%m-%d\'))\nresponse.write(\'";\\n    var w2p_ajax_datetime_format = "\', escape=False)\nresponse.write(T(\'%Y-%m-%d %H:%M:%S\'))\nresponse.write(\'";\\n    //--></script>\\n    <script src="\', escape=False)\nresponse.write(URL(\'static\',\'js/web2py_ajax.js\'))\nresponse.write(\'" type="text/javascript"></script>\\n\', escape=False)\nresponse.write(\'\\n\\n    \', escape=False)\n#using sidebars need to know what sidebar you want to use\n#prior of using it, because of static width size of content, you can use\n#left_sidebar, right_sidebar, both or none (False left and right)\nleft_sidebar_enabled = globals().get(\'left_sidebar_enabled\',False)\nright_sidebar_enabled = globals().get(\'right_sidebar_enabled\',False)\nif left_sidebar_enabled and right_sidebar_enabled: width_content=\'63%\'\nelif left_sidebar_enabled != right_sidebar_enabled: width_content=\'740px\'\nelse: width_content=\'100%\'\nif left_sidebar_enabled: left_sidebar_style = \'style="display: block;"\'\nelse: left_sidebar_style = \'style="display: none;"\'\nif right_sidebar_enabled: right_sidebar_style = \'style="display: block;"\'\nelse: right_sidebar_style = \'style="display: none;"\'\nstyle_content = \'style="width: %s"\' % width_content\nresponse.write(\'\\n  </head>\\n  \\n  <!-- paulirish.com/2008/conditional-stylesheets-vs-css-hacks-answer-neither/ -->\\t\\n  <!--[if lt IE 7 ]> <body class="ie6"> <![endif]-->\\n  <!--[if IE 7 ]>    <body class="ie7"> <![endif]-->\\n  <!--[if IE 8 ]>    <body class="ie8"> <![endif]-->\\n  <!--[if IE 9 ]>    <body class="ie9"> <![endif]-->\\n  <!--[if (gt IE 9)|!(IE)]><!--> <body> <!--<![endif]-->\\n    \\n    <div class="flash">\', escape=False)\nresponse.write(response.flash or \'\')\nresponse.write(\'</div> <!-- notification div -->\\n    \\n    <div id="container">\\t      \\t\\t      \\t\\n      \\n      <div id="wrapper">\\t\\t\\n\\t\\n\\t<div id="header"> <!-- header and login nav -->\\n\\t  \', escape=False)\nresponse.write(\' <!-- this is default header -->\\n\\t  \', escape=False)\ntry:\n    response.write(auth.navbar(action=URL(\'default\',\'user\')))\nexcept:pass\nresponse.write(\'\\t\\t          \\n\\t  <h1><span id="appname">\', escape=False)\nresponse.write(request.application.capitalize())\nresponse.write(\'</span>App</h1>\\n\\t  <div style="clear: both;"></div><!-- Clear the divs -->\\n\\t  \', escape=False)\nresponse.write(\'\\t\\t\\t\\t  \\t\\t\\t\\t\\t  \\n\\t</div><!-- header  -->\\n\\t\\n\\t<div id="statusbar"><!-- statusbar is menu zone -->\\n\\t  \', escape=False)\nresponse.write(\' <!-- this is default statusbar -->\\n\\t  \', escape=False)\n#------ superfish menu ------\nresponse.write(\'\\n\\t  \', escape=False)\nresponse.write(MENU(response.menu,_class=\'sf-menu\'))\nresponse.write(\'\\n\\t  <script type="text/javascript">\\n\\t    jQuery(document).ready(function(){\\n\\t    jQuery(\\\'ul.sf-menu\\\').superfish();});\\n\\t  </script>\\n\\t  <div style="clear: both;"></div><!-- Clear the divs -->\\t\\n\\t  \', escape=False)\nresponse.write(\'\\t\\t\\t\\t\\n\\t</div><!-- statusbar -->\\n\\t\\n\\t<div id="page"> <!-- Here my central body -->\\t  \\n\\n\\t  \', escape=False)\nif left_sidebar_enabled:\n    response.write(\'\\n          <div id="left_sidebar" \', escape=False)\n    response.write(XML(left_sidebar_style))\n    response.write(\' >\\n            <div style="padding: 4px;">\\n\\t      \', escape=False)\n    response.write(\'Content Left Sidebar\', escape=False)\n    response.write(\'\\t\\t  \\n            </div>\\n          </div><!-- left_sidebar -->\\n\\t  \', escape=False)\n    pass\nresponse.write(\'\\n\\n\\t  <!-- content -->\\n\\t  <div id="content" \', escape=False)\nresponse.write(XML(style_content))\nresponse.write(\' >\\n\\t    \', escape=False)\nresponse.write(\'\\n<h1>Alumnos</h1>\\n<p>Este es el registro de alumnos en el sistema\\n\', escape=False)\nfor alumno in alumnos:\n    response.write(\'\\n\\t<ul>\\n\\t<li><em>\', escape=False)\n    response.write(alumno.nombres)\n    response.write(\'</em> <strong>\', escape=False)\n    response.write(alumno.apellidos)\n    response.write(\'</strong></li>\\n\\t<li>Fecha de Nacimiento: \', escape=False)\n    response.write(alumno.fnacimiento)\n    response.write(\'</li>\\n\\t<li>Email: \', escape=False)\n    response.write(alumno.email)\n    response.write(\'</li>\\n\\t<li>Pastiempo: \', escape=False)\n    response.write(alumno.hobby)\n    response.write(\'</li>\\n\\t</ul>\\n\\t<hr>\\n\', escape=False)\n    pass\nresponse.write(\'\\n</p>\\n<h2>Profesor</h2>\\n<p>Este es el registro de profesor en el sistema\\n\', escape=False)\nfor profesor in profesores:\n    response.write(\'\\n\\t<ul>\\n\\t<li><strong>\', escape=False)\n    response.write(profesor.nombre_completo)\n    response.write(\'</strong></li>\\n\\t<li>Especialidad: \', escape=False)\n    response.write(profesor.especialidad)\n    response.write(\'</li>\\n\\t<li>A\\xc3\\xb1os de Experiencia: \', escape=False)\n    response.write(profesor.anios_experiencia)\n    response.write(\'</li>\\n\\t</ul>\\n\\t<hr>\\n\', escape=False)\n    pass\nresponse.write(\'\\n</p>\\n\', escape=False)\nresponse.write(\'\\t\\n\\t  </div>\\n\\t  <!-- content -->\\n\\n\\t  \', escape=False)\nif right_sidebar_enabled:\n    response.write(\'\\n          <div id="right_sidebar" \', escape=False)\n    response.write(XML(right_sidebar_style))\n    response.write(\' >\\n            <div style="padding: 4px;">\\n              \', escape=False)\n    response.write(\'Content Right Sidebar\', escape=False)\n    response.write(\'\\n            </div>\\n\\t  </div><!-- right_sidebar -->\\n          \', escape=False)\n    pass\nresponse.write(\'\\n\\n\\n\\t  <div style="clear: both;"></div><!-- Clear the divs -->\\n\\t  \\n\\t</div><!-- page -->\\t\\t\\t\\t\\t\\t\\t\\n\\t\\n\\t<div id="footer">\\n\\t  \', escape=False)\nresponse.write(\' <!-- this is default footer -->\\n\\t  <a href="http://www.web2py.com/" style="float: left; padding-right: 6px;">\\n\\t    <img src="\', escape=False)\nresponse.write(URL(\'static\',\'images/poweredby.png\'))\nresponse.write(\'"/>\\n\\t  </a>\\n\\t  \', escape=False)\nresponse.write(T(\'Copyright\'))\nresponse.write(\' &#169; 2010\\t\\t\\t\\t\\n\\t  <div style="clear: both;"></div><!-- Clear the divs -->\\n\\t  \', escape=False)\nresponse.write(\'\\n\\n\\t</div><!-- footer -->\\t\\t\\t\\n      </div><!-- wrapper -->\\n    </div><!-- container -->\\t\\t\\n    \\n    <!--[if lt IE 7 ]>\\n\\t<script src="\', escape=False)\nresponse.write(URL(\'static\',\'js/dd_belatedpng.js\'))\nresponse.write(\'"></script>\\n\\t<script> DD_belatedPNG.fix(\\\'img, .png_bg\\\'); //fix any <img> or .png_bg background-images </script>\\n\\t<![endif]-->\\n    \\n    <!-- asynchronous google analytics: mathiasbynens.be/notes/async-analytics-snippet \\n\\t change the UA-XXXXX-X to be your site\\\'s ID -->\\n    <!--   \\n\\t   <script>\\n\\t     var _gaq = [[\\\'_setAccount\\\', \\\'UA-XXXXX-X\\\'], [\\\'_trackPageview\\\']];\\n\\t     (function(d, t) {\\n\\t     var g = d.createElement(t),\\n\\t     s = d.getElementsByTagName(t)[0];\\n\\t     g.async = true;\\n\\t     g.src = \\\'//www.google-analytics.com/ga.js\\\';\\n\\t     s.parentNode.insertBefore(g, s);\\n\\t     })(document, \\\'script\\\');\\n\\t   </script>\\n\\t   -->    \\n  </body>\\n</html>\\n\', escape=False)'
p6
sS'snapshot'
p7
(dp8
S'exception'
p9
(dp10
S'__hash__'
p11
S"<method-wrapper '__hash__' of exceptions.NameError object>"
p12
sS'__setattr__'
p13
S"<method-wrapper '__setattr__' of exceptions.NameError object>"
p14
sS'__reduce_ex__'
p15
S'<built-in method __reduce_ex__ of exceptions.NameError object>'
p16
sS'__getslice__'
p17
S"<method-wrapper '__getslice__' of exceptions.NameError object>"
p18
sS'__getitem__'
p19
S"<method-wrapper '__getitem__' of exceptions.NameError object>"
p20
sS'__setstate__'
p21
S'<built-in method __setstate__ of exceptions.NameError object>'
p22
sS'__reduce__'
p23
S'<built-in method __reduce__ of exceptions.NameError object>'
p24
sS'__str__'
p25
S"<method-wrapper '__str__' of exceptions.NameError object>"
p26
sS'__format__'
p27
S'<built-in method __format__ of exceptions.NameError object>'
p28
sS'__getattribute__'
p29
S"<method-wrapper '__getattribute__' of exceptions.NameError object>"
p30
sS'__class__'
p31
S"<type 'exceptions.NameError'>"
p32
sS'__unicode__'
p33
S'<built-in method __unicode__ of exceptions.NameError object>'
p34
sS'__delattr__'
p35
S"<method-wrapper '__delattr__' of exceptions.NameError object>"
p36
sS'__subclasshook__'
p37
S'<built-in method __subclasshook__ of type object>'
p38
sS'__repr__'
p39
S"<method-wrapper '__repr__' of exceptions.NameError object>"
p40
sS'args'
p41
S'("name \'profesores\' is not defined",)'
p42
sS'__dict__'
p43
S'{}'
p44
sS'__sizeof__'
p45
S'<built-in method __sizeof__ of exceptions.NameError object>'
p46
sS'__doc__'
p47
S"'Name not found globally.'"
p48
sS'__init__'
p49
S"<method-wrapper '__init__' of exceptions.NameError object>"
p50
sS'__new__'
p51
S'<built-in method __new__ of type object>'
p52
ssS'evalue'
p53
S"name 'profesores' is not defined"
p54
sS'request'
p55
ccopy_reg
_reconstructor
p56
(cgluon.html
BEAUTIFY
p57
c__builtin__
object
p58
NtRp59
(dp60
S'attributes'
p61
(dp62
sS'components'
p63
(lp64
g56
(cgluon.html
TABLE
p65
g58
NtRp66
(dp67
g61
(dp68
S'level'
p69
I5
ssS'parent'
p70
Nsg63
(lp71
g56
(cgluon.html
TR
p72
g58
NtRp73
(dp74
g61
(dp75
sg70
g66
sg63
(lp76
g56
(cgluon.html
TD
p77
g58
NtRp78
(dp79
g61
(dp80
S'_style'
p81
S'font-weight:bold;'
p82
ssg70
g73
sg63
(lp83
S'ajax'
p84
asbag56
(g77
g58
NtRp85
(dp86
g61
(dp87
S'_valign'
p88
S'top'
p89
ssg70
g73
sg63
(lp90
S':'
asbag56
(g77
g58
NtRp91
(dp92
g61
(dp93
sg70
g73
sg63
(lp94
g56
(g57
g58
NtRp95
(dp96
g61
(dp97
g69
I5
ssg70
g91
sg63
(lp98
S'False'
p99
asbasbasbag56
(g72
g58
NtRp100
(dp101
g61
(dp102
sg70
g66
sg63
(lp103
g56
(g77
g58
NtRp104
(dp105
g61
(dp106
g81
g82
ssg70
g100
sg63
(lp107
S'application'
p108
asbag56
(g77
g58
NtRp109
(dp110
g61
(dp111
g88
g89
ssg70
g100
sg63
(lp112
S':'
asbag56
(g77
g58
NtRp113
(dp114
g61
(dp115
sg70
g100
sg63
(lp116
g56
(g57
g58
NtRp117
(dp118
g61
(dp119
g69
I5
ssg70
g113
sg63
(lp120
S'datos'
p121
asbasbasbag56
(g72
g58
NtRp122
(dp123
g61
(dp124
sg70
g66
sg63
(lp125
g56
(g77
g58
NtRp126
(dp127
g61
(dp128
g81
g82
ssg70
g122
sg63
(lp129
g41
asbag56
(g77
g58
NtRp130
(dp131
g61
(dp132
g88
g89
ssg70
g122
sg63
(lp133
S':'
asbag56
(g77
g58
NtRp134
(dp135
g61
(dp136
sg70
g122
sg63
(lp137
g56
(g57
g58
NtRp138
(dp139
g61
(dp140
g69
I5
ssg70
g134
sg63
(lp141
g56
(g65
g58
NtRp142
(dp143
g61
(dp144
g69
I4
ssg70
Nsg63
(lp145
sbasbasbasbag56
(g72
g58
NtRp146
(dp147
g61
(dp148
sg70
g66
sg63
(lp149
g56
(g77
g58
NtRp150
(dp151
g61
(dp152
g81
g82
ssg70
g146
sg63
(lp153
S'body'
p154
asbag56
(g77
g58
NtRp155
(dp156
g61
(dp157
g88
g89
ssg70
g146
sg63
(lp158
S':'
asbag56
(g77
g58
NtRp159
(dp160
g61
(dp161
sg70
g146
sg63
(lp162
g56
(g57
g58
NtRp163
(dp164
g61
(dp165
g69
I5
ssg70
g159
sg63
(lp166
S'<cStringIO.StringO object at 0x97b4d60>'
p167
asbasbasbag56
(g72
g58
NtRp168
(dp169
g61
(dp170
sg70
g66
sg63
(lp171
g56
(g77
g58
NtRp172
(dp173
g61
(dp174
g81
g82
ssg70
g168
sg63
(lp175
S'client'
p176
asbag56
(g77
g58
NtRp177
(dp178
g61
(dp179
g88
g89
ssg70
g168
sg63
(lp180
S':'
asbag56
(g77
g58
NtRp181
(dp182
g61
(dp183
sg70
g168
sg63
(lp184
g56
(g57
g58
NtRp185
(dp186
g61
(dp187
g69
I5
ssg70
g181
sg63
(lp188
S'127.0.0.1'
p189
asbasbasbag56
(g72
g58
NtRp190
(dp191
g61
(dp192
sg70
g66
sg63
(lp193
g56
(g77
g58
NtRp194
(dp195
g61
(dp196
g81
g82
ssg70
g190
sg63
(lp197
S'controller'
p198
asbag56
(g77
g58
NtRp199
(dp200
g61
(dp201
g88
g89
ssg70
g190
sg63
(lp202
S':'
asbag56
(g77
g58
NtRp203
(dp204
g61
(dp205
sg70
g190
sg63
(lp206
g56
(g57
g58
NtRp207
(dp208
g61
(dp209
g69
I5
ssg70
g203
sg63
(lp210
S'default'
p211
asbasbasbag56
(g72
g58
NtRp212
(dp213
g61
(dp214
sg70
g66
sg63
(lp215
g56
(g77
g58
NtRp216
(dp217
g61
(dp218
g81
g82
ssg70
g212
sg63
(lp219
S'cookies'
p220
asbag56
(g77
g58
NtRp221
(dp222
g61
(dp223
g88
g89
ssg70
g212
sg63
(lp224
S':'
asbag56
(g77
g58
NtRp225
(dp226
g61
(dp227
sg70
g212
sg63
(lp228
g56
(g57
g58
NtRp229
(dp230
g61
(dp231
g69
I5
ssg70
g225
sg63
(lp232
g56
(g65
g58
NtRp233
(dp234
g61
(dp235
g69
I4
ssg70
Nsg63
(lp236
g56
(g72
g58
NtRp237
(dp238
g61
(dp239
sg70
g233
sg63
(lp240
g56
(g77
g58
NtRp241
(dp242
g61
(dp243
g81
g82
ssg70
g237
sg63
(lp244
S'adminLanguage'
p245
asbag56
(g77
g58
NtRp246
(dp247
g61
(dp248
g88
g89
ssg70
g237
sg63
(lp249
S':'
asbag56
(g77
g58
NtRp250
(dp251
g61
(dp252
sg70
g237
sg63
(lp253
g56
(g57
g58
NtRp254
(dp255
g61
(dp256
g69
I4
ssg70
g250
sg63
(lp257
g56
(g65
g58
NtRp258
(dp259
g61
(dp260
g69
I3
ssg70
Nsg63
(lp261
g56
(g72
g58
NtRp262
(dp263
g61
(dp264
sg70
g258
sg63
(lp265
g56
(g77
g58
NtRp266
(dp267
g61
(dp268
g81
g82
ssg70
g262
sg63
(lp269
S'comment'
p270
asbag56
(g77
g58
NtRp271
(dp272
g61
(dp273
g88
g89
ssg70
g262
sg63
(lp274
S':'
asbag56
(g77
g58
NtRp275
(dp276
g61
(dp277
sg70
g262
sg63
(lp278
g56
(g57
g58
NtRp279
(dp280
g61
(dp281
g69
I3
ssg70
g275
sg63
(lp282
S''
asbasbasbag56
(g72
g58
NtRp283
(dp284
g61
(dp285
sg70
g258
sg63
(lp286
g56
(g77
g58
NtRp287
(dp288
g61
(dp289
g81
g82
ssg70
g283
sg63
(lp290
S'domain'
p291
asbag56
(g77
g58
NtRp292
(dp293
g61
(dp294
g88
g89
ssg70
g283
sg63
(lp295
S':'
asbag56
(g77
g58
NtRp296
(dp297
g61
(dp298
sg70
g283
sg63
(lp299
g56
(g57
g58
NtRp300
(dp301
g61
(dp302
g69
I3
ssg70
g296
sg63
(lp303
S''
asbasbasbag56
(g72
g58
NtRp304
(dp305
g61
(dp306
sg70
g258
sg63
(lp307
g56
(g77
g58
NtRp308
(dp309
g61
(dp310
g81
g82
ssg70
g304
sg63
(lp311
S'expires'
p312
asbag56
(g77
g58
NtRp313
(dp314
g61
(dp315
g88
g89
ssg70
g304
sg63
(lp316
S':'
asbag56
(g77
g58
NtRp317
(dp318
g61
(dp319
sg70
g304
sg63
(lp320
g56
(g57
g58
NtRp321
(dp322
g61
(dp323
g69
I3
ssg70
g317
sg63
(lp324
S''
asbasbasbag56
(g72
g58
NtRp325
(dp326
g61
(dp327
sg70
g258
sg63
(lp328
g56
(g77
g58
NtRp329
(dp330
g61
(dp331
g81
g82
ssg70
g325
sg63
(lp332
S'httponly'
p333
asbag56
(g77
g58
NtRp334
(dp335
g61
(dp336
g88
g89
ssg70
g325
sg63
(lp337
S':'
asbag56
(g77
g58
NtRp338
(dp339
g61
(dp340
sg70
g325
sg63
(lp341
g56
(g57
g58
NtRp342
(dp343
g61
(dp344
g69
I3
ssg70
g338
sg63
(lp345
S''
asbasbasbag56
(g72
g58
NtRp346
(dp347
g61
(dp348
sg70
g258
sg63
(lp349
g56
(g77
g58
NtRp350
(dp351
g61
(dp352
g81
g82
ssg70
g346
sg63
(lp353
S'max-age'
p354
asbag56
(g77
g58
NtRp355
(dp356
g61
(dp357
g88
g89
ssg70
g346
sg63
(lp358
S':'
asbag56
(g77
g58
NtRp359
(dp360
g61
(dp361
sg70
g346
sg63
(lp362
g56
(g57
g58
NtRp363
(dp364
g61
(dp365
g69
I3
ssg70
g359
sg63
(lp366
S''
asbasbasbag56
(g72
g58
NtRp367
(dp368
g61
(dp369
sg70
g258
sg63
(lp370
g56
(g77
g58
NtRp371
(dp372
g61
(dp373
g81
g82
ssg70
g367
sg63
(lp374
S'path'
p375
asbag56
(g77
g58
NtRp376
(dp377
g61
(dp378
g88
g89
ssg70
g367
sg63
(lp379
S':'
asbag56
(g77
g58
NtRp380
(dp381
g61
(dp382
sg70
g367
sg63
(lp383
g56
(g57
g58
NtRp384
(dp385
g61
(dp386
g69
I3
ssg70
g380
sg63
(lp387
S''
asbasbasbag56
(g72
g58
NtRp388
(dp389
g61
(dp390
sg70
g258
sg63
(lp391
g56
(g77
g58
NtRp392
(dp393
g61
(dp394
g81
g82
ssg70
g388
sg63
(lp395
S'secure'
p396
asbag56
(g77
g58
NtRp397
(dp398
g61
(dp399
g88
g89
ssg70
g388
sg63
(lp400
S':'
asbag56
(g77
g58
NtRp401
(dp402
g61
(dp403
sg70
g388
sg63
(lp404
g56
(g57
g58
NtRp405
(dp406
g61
(dp407
g69
I3
ssg70
g401
sg63
(lp408
S''
asbasbasbag56
(g72
g58
NtRp409
(dp410
g61
(dp411
sg70
g258
sg63
(lp412
g56
(g77
g58
NtRp413
(dp414
g61
(dp415
g81
g82
ssg70
g409
sg63
(lp416
S'version'
p417
asbag56
(g77
g58
NtRp418
(dp419
g61
(dp420
g88
g89
ssg70
g409
sg63
(lp421
S':'
asbag56
(g77
g58
NtRp422
(dp423
g61
(dp424
sg70
g409
sg63
(lp425
g56
(g57
g58
NtRp426
(dp427
g61
(dp428
g69
I3
ssg70
g422
sg63
(lp429
S''
asbasbasbasbasbasbasbag56
(g72
g58
NtRp430
(dp431
g61
(dp432
sg70
g233
sg63
(lp433
g56
(g77
g58
NtRp434
(dp435
g61
(dp436
g81
g82
ssg70
g430
sg63
(lp437
S'session_id_admin'
p438
asbag56
(g77
g58
NtRp439
(dp440
g61
(dp441
g88
g89
ssg70
g430
sg63
(lp442
S':'
asbag56
(g77
g58
NtRp443
(dp444
g61
(dp445
sg70
g430
sg63
(lp446
g56
(g57
g58
NtRp447
(dp448
g61
(dp449
g69
I4
ssg70
g443
sg63
(lp450
g56
(g65
g58
NtRp451
(dp452
g61
(dp453
g69
I3
ssg70
Nsg63
(lp454
g56
(g72
g58
NtRp455
(dp456
g61
(dp457
sg70
g451
sg63
(lp458
g56
(g77
g58
NtRp459
(dp460
g61
(dp461
g81
g82
ssg70
g455
sg63
(lp462
g270
asbag56
(g77
g58
NtRp463
(dp464
g61
(dp465
g88
g89
ssg70
g455
sg63
(lp466
S':'
asbag56
(g77
g58
NtRp467
(dp468
g61
(dp469
sg70
g455
sg63
(lp470
g56
(g57
g58
NtRp471
(dp472
g61
(dp473
g69
I3
ssg70
g467
sg63
(lp474
S''
asbasbasbag56
(g72
g58
NtRp475
(dp476
g61
(dp477
sg70
g451
sg63
(lp478
g56
(g77
g58
NtRp479
(dp480
g61
(dp481
g81
g82
ssg70
g475
sg63
(lp482
g291
asbag56
(g77
g58
NtRp483
(dp484
g61
(dp485
g88
g89
ssg70
g475
sg63
(lp486
S':'
asbag56
(g77
g58
NtRp487
(dp488
g61
(dp489
sg70
g475
sg63
(lp490
g56
(g57
g58
NtRp491
(dp492
g61
(dp493
g69
I3
ssg70
g487
sg63
(lp494
S''
asbasbasbag56
(g72
g58
NtRp495
(dp496
g61
(dp497
sg70
g451
sg63
(lp498
g56
(g77
g58
NtRp499
(dp500
g61
(dp501
g81
g82
ssg70
g495
sg63
(lp502
g312
asbag56
(g77
g58
NtRp503
(dp504
g61
(dp505
g88
g89
ssg70
g495
sg63
(lp506
S':'
asbag56
(g77
g58
NtRp507
(dp508
g61
(dp509
sg70
g495
sg63
(lp510
g56
(g57
g58
NtRp511
(dp512
g61
(dp513
g69
I3
ssg70
g507
sg63
(lp514
S''
asbasbasbag56
(g72
g58
NtRp515
(dp516
g61
(dp517
sg70
g451
sg63
(lp518
g56
(g77
g58
NtRp519
(dp520
g61
(dp521
g81
g82
ssg70
g515
sg63
(lp522
g333
asbag56
(g77
g58
NtRp523
(dp524
g61
(dp525
g88
g89
ssg70
g515
sg63
(lp526
S':'
asbag56
(g77
g58
NtRp527
(dp528
g61
(dp529
sg70
g515
sg63
(lp530
g56
(g57
g58
NtRp531
(dp532
g61
(dp533
g69
I3
ssg70
g527
sg63
(lp534
S''
asbasbasbag56
(g72
g58
NtRp535
(dp536
g61
(dp537
sg70
g451
sg63
(lp538
g56
(g77
g58
NtRp539
(dp540
g61
(dp541
g81
g82
ssg70
g535
sg63
(lp542
g354
asbag56
(g77
g58
NtRp543
(dp544
g61
(dp545
g88
g89
ssg70
g535
sg63
(lp546
S':'
asbag56
(g77
g58
NtRp547
(dp548
g61
(dp549
sg70
g535
sg63
(lp550
g56
(g57
g58
NtRp551
(dp552
g61
(dp553
g69
I3
ssg70
g547
sg63
(lp554
S''
asbasbasbag56
(g72
g58
NtRp555
(dp556
g61
(dp557
sg70
g451
sg63
(lp558
g56
(g77
g58
NtRp559
(dp560
g61
(dp561
g81
g82
ssg70
g555
sg63
(lp562
g375
asbag56
(g77
g58
NtRp563
(dp564
g61
(dp565
g88
g89
ssg70
g555
sg63
(lp566
S':'
asbag56
(g77
g58
NtRp567
(dp568
g61
(dp569
sg70
g555
sg63
(lp570
g56
(g57
g58
NtRp571
(dp572
g61
(dp573
g69
I3
ssg70
g567
sg63
(lp574
S''
asbasbasbag56
(g72
g58
NtRp575
(dp576
g61
(dp577
sg70
g451
sg63
(lp578
g56
(g77
g58
NtRp579
(dp580
g61
(dp581
g81
g82
ssg70
g575
sg63
(lp582
g396
asbag56
(g77
g58
NtRp583
(dp584
g61
(dp585
g88
g89
ssg70
g575
sg63
(lp586
S':'
asbag56
(g77
g58
NtRp587
(dp588
g61
(dp589
sg70
g575
sg63
(lp590
g56
(g57
g58
NtRp591
(dp592
g61
(dp593
g69
I3
ssg70
g587
sg63
(lp594
S''
asbasbasbag56
(g72
g58
NtRp595
(dp596
g61
(dp597
sg70
g451
sg63
(lp598
g56
(g77
g58
NtRp599
(dp600
g61
(dp601
g81
g82
ssg70
g595
sg63
(lp602
g417
asbag56
(g77
g58
NtRp603
(dp604
g61
(dp605
g88
g89
ssg70
g595
sg63
(lp606
S':'
asbag56
(g77
g58
NtRp607
(dp608
g61
(dp609
sg70
g595
sg63
(lp610
g56
(g57
g58
NtRp611
(dp612
g61
(dp613
g69
I3
ssg70
g607
sg63
(lp614
S''
asbasbasbasbasbasbasbag56
(g72
g58
NtRp615
(dp616
g61
(dp617
sg70
g233
sg63
(lp618
g56
(g77
g58
NtRp619
(dp620
g61
(dp621
g81
g82
ssg70
g615
sg63
(lp622
S'session_id_datos'
p623
asbag56
(g77
g58
NtRp624
(dp625
g61
(dp626
g88
g89
ssg70
g615
sg63
(lp627
S':'
asbag56
(g77
g58
NtRp628
(dp629
g61
(dp630
sg70
g615
sg63
(lp631
g56
(g57
g58
NtRp632
(dp633
g61
(dp634
g69
I4
ssg70
g628
sg63
(lp635
g56
(g65
g58
NtRp636
(dp637
g61
(dp638
g69
I3
ssg70
Nsg63
(lp639
g56
(g72
g58
NtRp640
(dp641
g61
(dp642
sg70
g636
sg63
(lp643
g56
(g77
g58
NtRp644
(dp645
g61
(dp646
g81
g82
ssg70
g640
sg63
(lp647
g270
asbag56
(g77
g58
NtRp648
(dp649
g61
(dp650
g88
g89
ssg70
g640
sg63
(lp651
S':'
asbag56
(g77
g58
NtRp652
(dp653
g61
(dp654
sg70
g640
sg63
(lp655
g56
(g57
g58
NtRp656
(dp657
g61
(dp658
g69
I3
ssg70
g652
sg63
(lp659
S''
asbasbasbag56
(g72
g58
NtRp660
(dp661
g61
(dp662
sg70
g636
sg63
(lp663
g56
(g77
g58
NtRp664
(dp665
g61
(dp666
g81
g82
ssg70
g660
sg63
(lp667
g291
asbag56
(g77
g58
NtRp668
(dp669
g61
(dp670
g88
g89
ssg70
g660
sg63
(lp671
S':'
asbag56
(g77
g58
NtRp672
(dp673
g61
(dp674
sg70
g660
sg63
(lp675
g56
(g57
g58
NtRp676
(dp677
g61
(dp678
g69
I3
ssg70
g672
sg63
(lp679
S''
asbasbasbag56
(g72
g58
NtRp680
(dp681
g61
(dp682
sg70
g636
sg63
(lp683
g56
(g77
g58
NtRp684
(dp685
g61
(dp686
g81
g82
ssg70
g680
sg63
(lp687
g312
asbag56
(g77
g58
NtRp688
(dp689
g61
(dp690
g88
g89
ssg70
g680
sg63
(lp691
S':'
asbag56
(g77
g58
NtRp692
(dp693
g61
(dp694
sg70
g680
sg63
(lp695
g56
(g57
g58
NtRp696
(dp697
g61
(dp698
g69
I3
ssg70
g692
sg63
(lp699
S''
asbasbasbag56
(g72
g58
NtRp700
(dp701
g61
(dp702
sg70
g636
sg63
(lp703
g56
(g77
g58
NtRp704
(dp705
g61
(dp706
g81
g82
ssg70
g700
sg63
(lp707
g333
asbag56
(g77
g58
NtRp708
(dp709
g61
(dp710
g88
g89
ssg70
g700
sg63
(lp711
S':'
asbag56
(g77
g58
NtRp712
(dp713
g61
(dp714
sg70
g700
sg63
(lp715
g56
(g57
g58
NtRp716
(dp717
g61
(dp718
g69
I3
ssg70
g712
sg63
(lp719
S''
asbasbasbag56
(g72
g58
NtRp720
(dp721
g61
(dp722
sg70
g636
sg63
(lp723
g56
(g77
g58
NtRp724
(dp725
g61
(dp726
g81
g82
ssg70
g720
sg63
(lp727
g354
asbag56
(g77
g58
NtRp728
(dp729
g61
(dp730
g88
g89
ssg70
g720
sg63
(lp731
S':'
asbag56
(g77
g58
NtRp732
(dp733
g61
(dp734
sg70
g720
sg63
(lp735
g56
(g57
g58
NtRp736
(dp737
g61
(dp738
g69
I3
ssg70
g732
sg63
(lp739
S''
asbasbasbag56
(g72
g58
NtRp740
(dp741
g61
(dp742
sg70
g636
sg63
(lp743
g56
(g77
g58
NtRp744
(dp745
g61
(dp746
g81
g82
ssg70
g740
sg63
(lp747
g375
asbag56
(g77
g58
NtRp748
(dp749
g61
(dp750
g88
g89
ssg70
g740
sg63
(lp751
S':'
asbag56
(g77
g58
NtRp752
(dp753
g61
(dp754
sg70
g740
sg63
(lp755
g56
(g57
g58
NtRp756
(dp757
g61
(dp758
g69
I3
ssg70
g752
sg63
(lp759
S''
asbasbasbag56
(g72
g58
NtRp760
(dp761
g61
(dp762
sg70
g636
sg63
(lp763
g56
(g77
g58
NtRp764
(dp765
g61
(dp766
g81
g82
ssg70
g760
sg63
(lp767
g396
asbag56
(g77
g58
NtRp768
(dp769
g61
(dp770
g88
g89
ssg70
g760
sg63
(lp771
S':'
asbag56
(g77
g58
NtRp772
(dp773
g61
(dp774
sg70
g760
sg63
(lp775
g56
(g57
g58
NtRp776
(dp777
g61
(dp778
g69
I3
ssg70
g772
sg63
(lp779
S''
asbasbasbag56
(g72
g58
NtRp780
(dp781
g61
(dp782
sg70
g636
sg63
(lp783
g56
(g77
g58
NtRp784
(dp785
g61
(dp786
g81
g82
ssg70
g780
sg63
(lp787
g417
asbag56
(g77
g58
NtRp788
(dp789
g61
(dp790
g88
g89
ssg70
g780
sg63
(lp791
S':'
asbag56
(g77
g58
NtRp792
(dp793
g61
(dp794
sg70
g780
sg63
(lp795
g56
(g57
g58
NtRp796
(dp797
g61
(dp798
g69
I3
ssg70
g792
sg63
(lp799
S''
asbasbasbasbasbasbasbag56
(g72
g58
NtRp800
(dp801
g61
(dp802
sg70
g233
sg63
(lp803
g56
(g77
g58
NtRp804
(dp805
g61
(dp806
g81
g82
ssg70
g800
sg63
(lp807
S'session_id_my_web'
p808
asbag56
(g77
g58
NtRp809
(dp810
g61
(dp811
g88
g89
ssg70
g800
sg63
(lp812
S':'
asbag56
(g77
g58
NtRp813
(dp814
g61
(dp815
sg70
g800
sg63
(lp816
g56
(g57
g58
NtRp817
(dp818
g61
(dp819
g69
I4
ssg70
g813
sg63
(lp820
g56
(g65
g58
NtRp821
(dp822
g61
(dp823
g69
I3
ssg70
Nsg63
(lp824
g56
(g72
g58
NtRp825
(dp826
g61
(dp827
sg70
g821
sg63
(lp828
g56
(g77
g58
NtRp829
(dp830
g61
(dp831
g81
g82
ssg70
g825
sg63
(lp832
g270
asbag56
(g77
g58
NtRp833
(dp834
g61
(dp835
g88
g89
ssg70
g825
sg63
(lp836
S':'
asbag56
(g77
g58
NtRp837
(dp838
g61
(dp839
sg70
g825
sg63
(lp840
g56
(g57
g58
NtRp841
(dp842
g61
(dp843
g69
I3
ssg70
g837
sg63
(lp844
S''
asbasbasbag56
(g72
g58
NtRp845
(dp846
g61
(dp847
sg70
g821
sg63
(lp848
g56
(g77
g58
NtRp849
(dp850
g61
(dp851
g81
g82
ssg70
g845
sg63
(lp852
g291
asbag56
(g77
g58
NtRp853
(dp854
g61
(dp855
g88
g89
ssg70
g845
sg63
(lp856
S':'
asbag56
(g77
g58
NtRp857
(dp858
g61
(dp859
sg70
g845
sg63
(lp860
g56
(g57
g58
NtRp861
(dp862
g61
(dp863
g69
I3
ssg70
g857
sg63
(lp864
S''
asbasbasbag56
(g72
g58
NtRp865
(dp866
g61
(dp867
sg70
g821
sg63
(lp868
g56
(g77
g58
NtRp869
(dp870
g61
(dp871
g81
g82
ssg70
g865
sg63
(lp872
g312
asbag56
(g77
g58
NtRp873
(dp874
g61
(dp875
g88
g89
ssg70
g865
sg63
(lp876
S':'
asbag56
(g77
g58
NtRp877
(dp878
g61
(dp879
sg70
g865
sg63
(lp880
g56
(g57
g58
NtRp881
(dp882
g61
(dp883
g69
I3
ssg70
g877
sg63
(lp884
S''
asbasbasbag56
(g72
g58
NtRp885
(dp886
g61
(dp887
sg70
g821
sg63
(lp888
g56
(g77
g58
NtRp889
(dp890
g61
(dp891
g81
g82
ssg70
g885
sg63
(lp892
g333
asbag56
(g77
g58
NtRp893
(dp894
g61
(dp895
g88
g89
ssg70
g885
sg63
(lp896
S':'
asbag56
(g77
g58
NtRp897
(dp898
g61
(dp899
sg70
g885
sg63
(lp900
g56
(g57
g58
NtRp901
(dp902
g61
(dp903
g69
I3
ssg70
g897
sg63
(lp904
S''
asbasbasbag56
(g72
g58
NtRp905
(dp906
g61
(dp907
sg70
g821
sg63
(lp908
g56
(g77
g58
NtRp909
(dp910
g61
(dp911
g81
g82
ssg70
g905
sg63
(lp912
g354
asbag56
(g77
g58
NtRp913
(dp914
g61
(dp915
g88
g89
ssg70
g905
sg63
(lp916
S':'
asbag56
(g77
g58
NtRp917
(dp918
g61
(dp919
sg70
g905
sg63
(lp920
g56
(g57
g58
NtRp921
(dp922
g61
(dp923
g69
I3
ssg70
g917
sg63
(lp924
S''
asbasbasbag56
(g72
g58
NtRp925
(dp926
g61
(dp927
sg70
g821
sg63
(lp928
g56
(g77
g58
NtRp929
(dp930
g61
(dp931
g81
g82
ssg70
g925
sg63
(lp932
g375
asbag56
(g77
g58
NtRp933
(dp934
g61
(dp935
g88
g89
ssg70
g925
sg63
(lp936
S':'
asbag56
(g77
g58
NtRp937
(dp938
g61
(dp939
sg70
g925
sg63
(lp940
g56
(g57
g58
NtRp941
(dp942
g61
(dp943
g69
I3
ssg70
g937
sg63
(lp944
S''
asbasbasbag56
(g72
g58
NtRp945
(dp946
g61
(dp947
sg70
g821
sg63
(lp948
g56
(g77
g58
NtRp949
(dp950
g61
(dp951
g81
g82
ssg70
g945
sg63
(lp952
g396
asbag56
(g77
g58
NtRp953
(dp954
g61
(dp955
g88
g89
ssg70
g945
sg63
(lp956
S':'
asbag56
(g77
g58
NtRp957
(dp958
g61
(dp959
sg70
g945
sg63
(lp960
g56
(g57
g58
NtRp961
(dp962
g61
(dp963
g69
I3
ssg70
g957
sg63
(lp964
S''
asbasbasbag56
(g72
g58
NtRp965
(dp966
g61
(dp967
sg70
g821
sg63
(lp968
g56
(g77
g58
NtRp969
(dp970
g61
(dp971
g81
g82
ssg70
g965
sg63
(lp972
g417
asbag56
(g77
g58
NtRp973
(dp974
g61
(dp975
g88
g89
ssg70
g965
sg63
(lp976
S':'
asbag56
(g77
g58
NtRp977
(dp978
g61
(dp979
sg70
g965
sg63
(lp980
g56
(g57
g58
NtRp981
(dp982
g61
(dp983
g69
I3
ssg70
g977
sg63
(lp984
S''
asbasbasbasbasbasbasbag56
(g72
g58
NtRp985
(dp986
g61
(dp987
sg70
g233
sg63
(lp988
g56
(g77
g58
NtRp989
(dp990
g61
(dp991
g81
g82
ssg70
g985
sg63
(lp992
S'session_id_welcome'
p993
asbag56
(g77
g58
NtRp994
(dp995
g61
(dp996
g88
g89
ssg70
g985
sg63
(lp997
S':'
asbag56
(g77
g58
NtRp998
(dp999
g61
(dp1000
sg70
g985
sg63
(lp1001
g56
(g57
g58
NtRp1002
(dp1003
g61
(dp1004
g69
I4
ssg70
g998
sg63
(lp1005
g56
(g65
g58
NtRp1006
(dp1007
g61
(dp1008
g69
I3
ssg70
Nsg63
(lp1009
g56
(g72
g58
NtRp1010
(dp1011
g61
(dp1012
sg70
g1006
sg63
(lp1013
g56
(g77
g58
NtRp1014
(dp1015
g61
(dp1016
g81
g82
ssg70
g1010
sg63
(lp1017
g270
asbag56
(g77
g58
NtRp1018
(dp1019
g61
(dp1020
g88
g89
ssg70
g1010
sg63
(lp1021
S':'
asbag56
(g77
g58
NtRp1022
(dp1023
g61
(dp1024
sg70
g1010
sg63
(lp1025
g56
(g57
g58
NtRp1026
(dp1027
g61
(dp1028
g69
I3
ssg70
g1022
sg63
(lp1029
S''
asbasbasbag56
(g72
g58
NtRp1030
(dp1031
g61
(dp1032
sg70
g1006
sg63
(lp1033
g56
(g77
g58
NtRp1034
(dp1035
g61
(dp1036
g81
g82
ssg70
g1030
sg63
(lp1037
g291
asbag56
(g77
g58
NtRp1038
(dp1039
g61
(dp1040
g88
g89
ssg70
g1030
sg63
(lp1041
S':'
asbag56
(g77
g58
NtRp1042
(dp1043
g61
(dp1044
sg70
g1030
sg63
(lp1045
g56
(g57
g58
NtRp1046
(dp1047
g61
(dp1048
g69
I3
ssg70
g1042
sg63
(lp1049
S''
asbasbasbag56
(g72
g58
NtRp1050
(dp1051
g61
(dp1052
sg70
g1006
sg63
(lp1053
g56
(g77
g58
NtRp1054
(dp1055
g61
(dp1056
g81
g82
ssg70
g1050
sg63
(lp1057
g312
asbag56
(g77
g58
NtRp1058
(dp1059
g61
(dp1060
g88
g89
ssg70
g1050
sg63
(lp1061
S':'
asbag56
(g77
g58
NtRp1062
(dp1063
g61
(dp1064
sg70
g1050
sg63
(lp1065
g56
(g57
g58
NtRp1066
(dp1067
g61
(dp1068
g69
I3
ssg70
g1062
sg63
(lp1069
S''
asbasbasbag56
(g72
g58
NtRp1070
(dp1071
g61
(dp1072
sg70
g1006
sg63
(lp1073
g56
(g77
g58
NtRp1074
(dp1075
g61
(dp1076
g81
g82
ssg70
g1070
sg63
(lp1077
g333
asbag56
(g77
g58
NtRp1078
(dp1079
g61
(dp1080
g88
g89
ssg70
g1070
sg63
(lp1081
S':'
asbag56
(g77
g58
NtRp1082
(dp1083
g61
(dp1084
sg70
g1070
sg63
(lp1085
g56
(g57
g58
NtRp1086
(dp1087
g61
(dp1088
g69
I3
ssg70
g1082
sg63
(lp1089
S''
asbasbasbag56
(g72
g58
NtRp1090
(dp1091
g61
(dp1092
sg70
g1006
sg63
(lp1093
g56
(g77
g58
NtRp1094
(dp1095
g61
(dp1096
g81
g82
ssg70
g1090
sg63
(lp1097
g354
asbag56
(g77
g58
NtRp1098
(dp1099
g61
(dp1100
g88
g89
ssg70
g1090
sg63
(lp1101
S':'
asbag56
(g77
g58
NtRp1102
(dp1103
g61
(dp1104
sg70
g1090
sg63
(lp1105
g56
(g57
g58
NtRp1106
(dp1107
g61
(dp1108
g69
I3
ssg70
g1102
sg63
(lp1109
S''
asbasbasbag56
(g72
g58
NtRp1110
(dp1111
g61
(dp1112
sg70
g1006
sg63
(lp1113
g56
(g77
g58
NtRp1114
(dp1115
g61
(dp1116
g81
g82
ssg70
g1110
sg63
(lp1117
g375
asbag56
(g77
g58
NtRp1118
(dp1119
g61
(dp1120
g88
g89
ssg70
g1110
sg63
(lp1121
S':'
asbag56
(g77
g58
NtRp1122
(dp1123
g61
(dp1124
sg70
g1110
sg63
(lp1125
g56
(g57
g58
NtRp1126
(dp1127
g61
(dp1128
g69
I3
ssg70
g1122
sg63
(lp1129
S''
asbasbasbag56
(g72
g58
NtRp1130
(dp1131
g61
(dp1132
sg70
g1006
sg63
(lp1133
g56
(g77
g58
NtRp1134
(dp1135
g61
(dp1136
g81
g82
ssg70
g1130
sg63
(lp1137
g396
asbag56
(g77
g58
NtRp1138
(dp1139
g61
(dp1140
g88
g89
ssg70
g1130
sg63
(lp1141
S':'
asbag56
(g77
g58
NtRp1142
(dp1143
g61
(dp1144
sg70
g1130
sg63
(lp1145
g56
(g57
g58
NtRp1146
(dp1147
g61
(dp1148
g69
I3
ssg70
g1142
sg63
(lp1149
S''
asbasbasbag56
(g72
g58
NtRp1150
(dp1151
g61
(dp1152
sg70
g1006
sg63
(lp1153
g56
(g77
g58
NtRp1154
(dp1155
g61
(dp1156
g81
g82
ssg70
g1150
sg63
(lp1157
g417
asbag56
(g77
g58
NtRp1158
(dp1159
g61
(dp1160
g88
g89
ssg70
g1150
sg63
(lp1161
S':'
asbag56
(g77
g58
NtRp1162
(dp1163
g61
(dp1164
sg70
g1150
sg63
(lp1165
g56
(g57
g58
NtRp1166
(dp1167
g61
(dp1168
g69
I3
ssg70
g1162
sg63
(lp1169
S''
asbasbasbasbasbasbasbasbasbasbasbag56
(g72
g58
NtRp1170
(dp1171
g61
(dp1172
sg70
g66
sg63
(lp1173
g56
(g77
g58
NtRp1174
(dp1175
g61
(dp1176
g81
g82
ssg70
g1170
sg63
(lp1177
S'env'
p1178
asbag56
(g77
g58
NtRp1179
(dp1180
g61
(dp1181
g88
g89
ssg70
g1170
sg63
(lp1182
S':'
asbag56
(g77
g58
NtRp1183
(dp1184
g61
(dp1185
sg70
g1170
sg63
(lp1186
g56
(g57
g58
NtRp1187
(dp1188
g61
(dp1189
g69
I5
ssg70
g1183
sg63
(lp1190
g56
(g65
g58
NtRp1191
(dp1192
g61
(dp1193
g69
I4
ssg70
Nsg63
(lp1194
g56
(g72
g58
NtRp1195
(dp1196
g61
(dp1197
sg70
g1191
sg63
(lp1198
g56
(g77
g58
NtRp1199
(dp1200
g61
(dp1201
g81
g82
ssg70
g1195
sg63
(lp1202
S'app_folders'
p1203
asbag56
(g77
g58
NtRp1204
(dp1205
g61
(dp1206
g88
g89
ssg70
g1195
sg63
(lp1207
S':'
asbag56
(g77
g58
NtRp1208
(dp1209
g61
(dp1210
sg70
g1195
sg63
(lp1211
g56
(g57
g58
NtRp1212
(dp1213
g61
(dp1214
g69
I4
ssg70
g1208
sg63
(lp1215
S"set(['/home/alumno/web2py/applications/admin/', '/home/alumno/web2py/applications/my_web/', '/home/alumno/web2py/applications/examples/', '/home/alumno/web2py/applications/welcome/', '/home/alumno/web2py/applications/datos/'])"
p1216
asbasbasbag56
(g72
g58
NtRp1217
(dp1218
g61
(dp1219
sg70
g1191
sg63
(lp1220
g56
(g77
g58
NtRp1221
(dp1222
g61
(dp1223
g81
g82
ssg70
g1217
sg63
(lp1224
S'applications_parent'
p1225
asbag56
(g77
g58
NtRp1226
(dp1227
g61
(dp1228
g88
g89
ssg70
g1217
sg63
(lp1229
S':'
asbag56
(g77
g58
NtRp1230
(dp1231
g61
(dp1232
sg70
g1217
sg63
(lp1233
g56
(g57
g58
NtRp1234
(dp1235
g61
(dp1236
g69
I4
ssg70
g1230
sg63
(lp1237
S'/home/alumno/web2py'
p1238
asbasbasbag56
(g72
g58
NtRp1239
(dp1240
g61
(dp1241
sg70
g1191
sg63
(lp1242
g56
(g77
g58
NtRp1243
(dp1244
g61
(dp1245
g81
g82
ssg70
g1239
sg63
(lp1246
S'cmd_args'
p1247
asbag56
(g77
g58
NtRp1248
(dp1249
g61
(dp1250
g88
g89
ssg70
g1239
sg63
(lp1251
S':'
asbag56
(g77
g58
NtRp1252
(dp1253
g61
(dp1254
sg70
g1239
sg63
(lp1255
g56
(g57
g58
NtRp1256
(dp1257
g61
(dp1258
g69
I4
ssg70
g1252
sg63
(lp1259
g56
(g65
g58
NtRp1260
(dp1261
g61
(dp1262
g69
I3
ssg70
Nsg63
(lp1263
sbasbasbasbag56
(g72
g58
NtRp1264
(dp1265
g61
(dp1266
sg70
g1191
sg63
(lp1267
g56
(g77
g58
NtRp1268
(dp1269
g61
(dp1270
g81
g82
ssg70
g1264
sg63
(lp1271
S'cmd_options'
p1272
asbag56
(g77
g58
NtRp1273
(dp1274
g61
(dp1275
g88
g89
ssg70
g1264
sg63
(lp1276
S':'
asbag56
(g77
g58
NtRp1277
(dp1278
g61
(dp1279
sg70
g1264
sg63
(lp1280
g56
(g57
g58
NtRp1281
(dp1282
g61
(dp1283
g69
I4
ssg70
g1277
sg63
(lp1284
S"<Values at 0x98648ac: {'verbose': False, 'ip': '127.0.0.1', 'shutdown_timeout': 5, 'taskbar': False, 'port': 8000, 'maxthreads': None, 'softcron': False, 'server_name': 'ubuntu-dev', 'bpython': False, 'nogui': False, 'nocron': False, 'extcron': False, 'debuglevel': 30, 'test': None, 'folder': '/home/alumno/web2py', 'config': '', 'import_models': False, 'winservice': '', 'shell': None, 'run': '', 'log_filename': 'httpserver.log', 'args': [''], 'profiler_filename': None, 'ssl_private_key': '', 'password': 'conti', 'request_queue_size': 5, 'ssl_certificate': '', 'cronjob': False, 'plain': False, 'quiet': False, 'interfaces': None, 'minthreads': None, 'timeout': 10, 'numthreads': None, 'nobanner': False, 'pid_filename': 'httpserver.pid'}>"
p1285
asbasbasbag56
(g72
g58
NtRp1286
(dp1287
g61
(dp1288
sg70
g1191
sg63
(lp1289
g56
(g77
g58
NtRp1290
(dp1291
g61
(dp1292
g81
g82
ssg70
g1286
sg63
(lp1293
S'db_sessions'
p1294
asbag56
(g77
g58
NtRp1295
(dp1296
g61
(dp1297
g88
g89
ssg70
g1286
sg63
(lp1298
S':'
asbag56
(g77
g58
NtRp1299
(dp1300
g61
(dp1301
sg70
g1286
sg63
(lp1302
g56
(g57
g58
NtRp1303
(dp1304
g61
(dp1305
g69
I4
ssg70
g1299
sg63
(lp1306
S'set([])'
p1307
asbasbasbag56
(g72
g58
NtRp1308
(dp1309
g61
(dp1310
sg70
g1191
sg63
(lp1311
g56
(g77
g58
NtRp1312
(dp1313
g61
(dp1314
g81
g82
ssg70
g1308
sg63
(lp1315
S'debugging'
p1316
asbag56
(g77
g58
NtRp1317
(dp1318
g61
(dp1319
g88
g89
ssg70
g1308
sg63
(lp1320
S':'
asbag56
(g77
g58
NtRp1321
(dp1322
g61
(dp1323
sg70
g1308
sg63
(lp1324
g56
(g57
g58
NtRp1325
(dp1326
g61
(dp1327
g69
I4
ssg70
g1321
sg63
(lp1328
g99
asbasbasbag56
(g72
g58
NtRp1329
(dp1330
g61
(dp1331
sg70
g1191
sg63
(lp1332
g56
(g77
g58
NtRp1333
(dp1334
g61
(dp1335
g81
g82
ssg70
g1329
sg63
(lp1336
S'gluon_parent'
p1337
asbag56
(g77
g58
NtRp1338
(dp1339
g61
(dp1340
g88
g89
ssg70
g1329
sg63
(lp1341
S':'
asbag56
(g77
g58
NtRp1342
(dp1343
g61
(dp1344
sg70
g1329
sg63
(lp1345
g56
(g57
g58
NtRp1346
(dp1347
g61
(dp1348
g69
I4
ssg70
g1342
sg63
(lp1349
S'/home/alumno/web2py'
p1350
asbasbasbag56
(g72
g58
NtRp1351
(dp1352
g61
(dp1353
sg70
g1191
sg63
(lp1354
g56
(g77
g58
NtRp1355
(dp1356
g61
(dp1357
g81
g82
ssg70
g1351
sg63
(lp1358
S'http_accept'
p1359
asbag56
(g77
g58
NtRp1360
(dp1361
g61
(dp1362
g88
g89
ssg70
g1351
sg63
(lp1363
S':'
asbag56
(g77
g58
NtRp1364
(dp1365
g61
(dp1366
sg70
g1351
sg63
(lp1367
g56
(g57
g58
NtRp1368
(dp1369
g61
(dp1370
g69
I4
ssg70
g1364
sg63
(lp1371
S'text/html,application/xhtml+xml,application/xml;q=0.9,*/*;q=0.8'
p1372
asbasbasbag56
(g72
g58
NtRp1373
(dp1374
g61
(dp1375
sg70
g1191
sg63
(lp1376
g56
(g77
g58
NtRp1377
(dp1378
g61
(dp1379
g81
g82
ssg70
g1373
sg63
(lp1380
S'http_accept_charset'
p1381
asbag56
(g77
g58
NtRp1382
(dp1383
g61
(dp1384
g88
g89
ssg70
g1373
sg63
(lp1385
S':'
asbag56
(g77
g58
NtRp1386
(dp1387
g61
(dp1388
sg70
g1373
sg63
(lp1389
g56
(g57
g58
NtRp1390
(dp1391
g61
(dp1392
g69
I4
ssg70
g1386
sg63
(lp1393
S'ISO-8859-1,utf-8;q=0.7,*;q=0.7'
p1394
asbasbasbag56
(g72
g58
NtRp1395
(dp1396
g61
(dp1397
sg70
g1191
sg63
(lp1398
g56
(g77
g58
NtRp1399
(dp1400
g61
(dp1401
g81
g82
ssg70
g1395
sg63
(lp1402
S'http_accept_encoding'
p1403
asbag56
(g77
g58
NtRp1404
(dp1405
g61
(dp1406
g88
g89
ssg70
g1395
sg63
(lp1407
S':'
asbag56
(g77
g58
NtRp1408
(dp1409
g61
(dp1410
sg70
g1395
sg63
(lp1411
g56
(g57
g58
NtRp1412
(dp1413
g61
(dp1414
g69
I4
ssg70
g1408
sg63
(lp1415
S'gzip, deflate'
p1416
asbasbasbag56
(g72
g58
NtRp1417
(dp1418
g61
(dp1419
sg70
g1191
sg63
(lp1420
g56
(g77
g58
NtRp1421
(dp1422
g61
(dp1423
g81
g82
ssg70
g1417
sg63
(lp1424
S'http_accept_language'
p1425
asbag56
(g77
g58
NtRp1426
(dp1427
g61
(dp1428
g88
g89
ssg70
g1417
sg63
(lp1429
S':'
asbag56
(g77
g58
NtRp1430
(dp1431
g61
(dp1432
sg70
g1417
sg63
(lp1433
g56
(g57
g58
NtRp1434
(dp1435
g61
(dp1436
g69
I4
ssg70
g1430
sg63
(lp1437
S'es-ar,es;q=0.8,en-us;q=0.5,en;q=0.3'
p1438
asbasbasbag56
(g72
g58
NtRp1439
(dp1440
g61
(dp1441
sg70
g1191
sg63
(lp1442
g56
(g77
g58
NtRp1443
(dp1444
g61
(dp1445
g81
g82
ssg70
g1439
sg63
(lp1446
S'http_cache_control'
p1447
asbag56
(g77
g58
NtRp1448
(dp1449
g61
(dp1450
g88
g89
ssg70
g1439
sg63
(lp1451
S':'
asbag56
(g77
g58
NtRp1452
(dp1453
g61
(dp1454
sg70
g1439
sg63
(lp1455
g56
(g57
g58
NtRp1456
(dp1457
g61
(dp1458
g69
I4
ssg70
g1452
sg63
(lp1459
S'max-age=0'
p1460
asbasbasbag56
(g72
g58
NtRp1461
(dp1462
g61
(dp1463
sg70
g1191
sg63
(lp1464
g56
(g77
g58
NtRp1465
(dp1466
g61
(dp1467
g81
g82
ssg70
g1461
sg63
(lp1468
S'http_connection'
p1469
asbag56
(g77
g58
NtRp1470
(dp1471
g61
(dp1472
g88
g89
ssg70
g1461
sg63
(lp1473
S':'
asbag56
(g77
g58
NtRp1474
(dp1475
g61
(dp1476
sg70
g1461
sg63
(lp1477
g56
(g57
g58
NtRp1478
(dp1479
g61
(dp1480
g69
I4
ssg70
g1474
sg63
(lp1481
S'keep-alive'
p1482
asbasbasbag56
(g72
g58
NtRp1483
(dp1484
g61
(dp1485
sg70
g1191
sg63
(lp1486
g56
(g77
g58
NtRp1487
(dp1488
g61
(dp1489
g81
g82
ssg70
g1483
sg63
(lp1490
S'http_cookie'
p1491
asbag56
(g77
g58
NtRp1492
(dp1493
g61
(dp1494
g88
g89
ssg70
g1483
sg63
(lp1495
S':'
asbag56
(g77
g58
NtRp1496
(dp1497
g61
(dp1498
sg70
g1483
sg63
(lp1499
g56
(g57
g58
NtRp1500
(dp1501
g61
(dp1502
g69
I4
ssg70
g1496
sg63
(lp1503
S'session_id_welcome=127.0.0.1-824c4b28-21fc-44f0-8193-fa896d0cf2d5; session_id_admin=127.0.0.1-f292cc01-f792-44fe-abe4-b2667851a938; adminLanguage=es-es; session_id_my_web=127.0.0.1-47c190eb-acb3-4e98-b30b-5e2f6df99186; session_id_datos=127.0.0.1-db62c583-5264-4eba-ba24-7cb87b43795a'
p1504
asbasbasbag56
(g72
g58
NtRp1505
(dp1506
g61
(dp1507
sg70
g1191
sg63
(lp1508
g56
(g77
g58
NtRp1509
(dp1510
g61
(dp1511
g81
g82
ssg70
g1505
sg63
(lp1512
S'http_host'
p1513
asbag56
(g77
g58
NtRp1514
(dp1515
g61
(dp1516
g88
g89
ssg70
g1505
sg63
(lp1517
S':'
asbag56
(g77
g58
NtRp1518
(dp1519
g61
(dp1520
sg70
g1505
sg63
(lp1521
g56
(g57
g58
NtRp1522
(dp1523
g61
(dp1524
g69
I4
ssg70
g1518
sg63
(lp1525
S'127.0.0.1:8000'
p1526
asbasbasbag56
(g72
g58
NtRp1527
(dp1528
g61
(dp1529
sg70
g1191
sg63
(lp1530
g56
(g77
g58
NtRp1531
(dp1532
g61
(dp1533
g81
g82
ssg70
g1527
sg63
(lp1534
S'http_user_agent'
p1535
asbag56
(g77
g58
NtRp1536
(dp1537
g61
(dp1538
g88
g89
ssg70
g1527
sg63
(lp1539
S':'
asbag56
(g77
g58
NtRp1540
(dp1541
g61
(dp1542
sg70
g1527
sg63
(lp1543
g56
(g57
g58
NtRp1544
(dp1545
g61
(dp1546
g69
I4
ssg70
g1540
sg63
(lp1547
S'Mozilla/5.0 (X11; Linux i686; rv:6.0) Gecko/20100101 Firefox/6.0'
p1548
asbasbasbag56
(g72
g58
NtRp1549
(dp1550
g61
(dp1551
sg70
g1191
sg63
(lp1552
g56
(g77
g58
NtRp1553
(dp1554
g61
(dp1555
g81
g82
ssg70
g1549
sg63
(lp1556
S'is_jython'
p1557
asbag56
(g77
g58
NtRp1558
(dp1559
g61
(dp1560
g88
g89
ssg70
g1549
sg63
(lp1561
S':'
asbag56
(g77
g58
NtRp1562
(dp1563
g61
(dp1564
sg70
g1549
sg63
(lp1565
g56
(g57
g58
NtRp1566
(dp1567
g61
(dp1568
g69
I4
ssg70
g1562
sg63
(lp1569
g99
asbasbasbag56
(g72
g58
NtRp1570
(dp1571
g61
(dp1572
sg70
g1191
sg63
(lp1573
g56
(g77
g58
NtRp1574
(dp1575
g61
(dp1576
g81
g82
ssg70
g1570
sg63
(lp1577
S'path_info'
p1578
asbag56
(g77
g58
NtRp1579
(dp1580
g61
(dp1581
g88
g89
ssg70
g1570
sg63
(lp1582
S':'
asbag56
(g77
g58
NtRp1583
(dp1584
g61
(dp1585
sg70
g1570
sg63
(lp1586
g56
(g57
g58
NtRp1587
(dp1588
g61
(dp1589
g69
I4
ssg70
g1583
sg63
(lp1590
S'/datos/'
p1591
asbasbasbag56
(g72
g58
NtRp1592
(dp1593
g61
(dp1594
sg70
g1191
sg63
(lp1595
g56
(g77
g58
NtRp1596
(dp1597
g61
(dp1598
g81
g82
ssg70
g1592
sg63
(lp1599
S'query_string'
p1600
asbag56
(g77
g58
NtRp1601
(dp1602
g61
(dp1603
g88
g89
ssg70
g1592
sg63
(lp1604
S':'
asbag56
(g77
g58
NtRp1605
(dp1606
g61
(dp1607
sg70
g1592
sg63
(lp1608
g56
(g57
g58
NtRp1609
(dp1610
g61
(dp1611
g69
I4
ssg70
g1605
sg63
(lp1612
S''
asbasbasbag56
(g72
g58
NtRp1613
(dp1614
g61
(dp1615
sg70
g1191
sg63
(lp1616
g56
(g77
g58
NtRp1617
(dp1618
g61
(dp1619
g81
g82
ssg70
g1613
sg63
(lp1620
S'remote_addr'
p1621
asbag56
(g77
g58
NtRp1622
(dp1623
g61
(dp1624
g88
g89
ssg70
g1613
sg63
(lp1625
S':'
asbag56
(g77
g58
NtRp1626
(dp1627
g61
(dp1628
sg70
g1613
sg63
(lp1629
g56
(g57
g58
NtRp1630
(dp1631
g61
(dp1632
g69
I4
ssg70
g1626
sg63
(lp1633
g189
asbasbasbag56
(g72
g58
NtRp1634
(dp1635
g61
(dp1636
sg70
g1191
sg63
(lp1637
g56
(g77
g58
NtRp1638
(dp1639
g61
(dp1640
g81
g82
ssg70
g1634
sg63
(lp1641
S'remote_port'
p1642
asbag56
(g77
g58
NtRp1643
(dp1644
g61
(dp1645
g88
g89
ssg70
g1634
sg63
(lp1646
S':'
asbag56
(g77
g58
NtRp1647
(dp1648
g61
(dp1649
sg70
g1634
sg63
(lp1650
g56
(g57
g58
NtRp1651
(dp1652
g61
(dp1653
g69
I4
ssg70
g1647
sg63
(lp1654
S'54525'
p1655
asbasbasbag56
(g72
g58
NtRp1656
(dp1657
g61
(dp1658
sg70
g1191
sg63
(lp1659
g56
(g77
g58
NtRp1660
(dp1661
g61
(dp1662
g81
g82
ssg70
g1656
sg63
(lp1663
S'request_method'
p1664
asbag56
(g77
g58
NtRp1665
(dp1666
g61
(dp1667
g88
g89
ssg70
g1656
sg63
(lp1668
S':'
asbag56
(g77
g58
NtRp1669
(dp1670
g61
(dp1671
sg70
g1656
sg63
(lp1672
g56
(g57
g58
NtRp1673
(dp1674
g61
(dp1675
g69
I4
ssg70
g1669
sg63
(lp1676
S'GET'
p1677
asbasbasbag56
(g72
g58
NtRp1678
(dp1679
g61
(dp1680
sg70
g1191
sg63
(lp1681
g56
(g77
g58
NtRp1682
(dp1683
g61
(dp1684
g81
g82
ssg70
g1678
sg63
(lp1685
S'script_name'
p1686
asbag56
(g77
g58
NtRp1687
(dp1688
g61
(dp1689
g88
g89
ssg70
g1678
sg63
(lp1690
S':'
asbag56
(g77
g58
NtRp1691
(dp1692
g61
(dp1693
sg70
g1678
sg63
(lp1694
g56
(g57
g58
NtRp1695
(dp1696
g61
(dp1697
g69
I4
ssg70
g1691
sg63
(lp1698
S''
asbasbasbag56
(g72
g58
NtRp1699
(dp1700
g61
(dp1701
sg70
g1191
sg63
(lp1702
g56
(g77
g58
NtRp1703
(dp1704
g61
(dp1705
g81
g82
ssg70
g1699
sg63
(lp1706
S'server_name'
p1707
asbag56
(g77
g58
NtRp1708
(dp1709
g61
(dp1710
g88
g89
ssg70
g1699
sg63
(lp1711
S':'
asbag56
(g77
g58
NtRp1712
(dp1713
g61
(dp1714
sg70
g1699
sg63
(lp1715
g56
(g57
g58
NtRp1716
(dp1717
g61
(dp1718
g69
I4
ssg70
g1712
sg63
(lp1719
S'ubuntu-dev'
p1720
asbasbasbag56
(g72
g58
NtRp1721
(dp1722
g61
(dp1723
sg70
g1191
sg63
(lp1724
g56
(g77
g58
NtRp1725
(dp1726
g61
(dp1727
g81
g82
ssg70
g1721
sg63
(lp1728
S'server_port'
p1729
asbag56
(g77
g58
NtRp1730
(dp1731
g61
(dp1732
g88
g89
ssg70
g1721
sg63
(lp1733
S':'
asbag56
(g77
g58
NtRp1734
(dp1735
g61
(dp1736
sg70
g1721
sg63
(lp1737
g56
(g57
g58
NtRp1738
(dp1739
g61
(dp1740
g69
I4
ssg70
g1734
sg63
(lp1741
S'8000'
p1742
asbasbasbag56
(g72
g58
NtRp1743
(dp1744
g61
(dp1745
sg70
g1191
sg63
(lp1746
g56
(g77
g58
NtRp1747
(dp1748
g61
(dp1749
g81
g82
ssg70
g1743
sg63
(lp1750
S'server_protocol'
p1751
asbag56
(g77
g58
NtRp1752
(dp1753
g61
(dp1754
g88
g89
ssg70
g1743
sg63
(lp1755
S':'
asbag56
(g77
g58
NtRp1756
(dp1757
g61
(dp1758
sg70
g1743
sg63
(lp1759
g56
(g57
g58
NtRp1760
(dp1761
g61
(dp1762
g69
I4
ssg70
g1756
sg63
(lp1763
S'HTTP/1.1'
p1764
asbasbasbag56
(g72
g58
NtRp1765
(dp1766
g61
(dp1767
sg70
g1191
sg63
(lp1768
g56
(g77
g58
NtRp1769
(dp1770
g61
(dp1771
g81
g82
ssg70
g1765
sg63
(lp1772
S'server_software'
p1773
asbag56
(g77
g58
NtRp1774
(dp1775
g61
(dp1776
g88
g89
ssg70
g1765
sg63
(lp1777
S':'
asbag56
(g77
g58
NtRp1778
(dp1779
g61
(dp1780
sg70
g1765
sg63
(lp1781
g56
(g57
g58
NtRp1782
(dp1783
g61
(dp1784
g69
I4
ssg70
g1778
sg63
(lp1785
S'Rocket 1.2.2'
p1786
asbasbasbag56
(g72
g58
NtRp1787
(dp1788
g61
(dp1789
sg70
g1191
sg63
(lp1790
g56
(g77
g58
NtRp1791
(dp1792
g61
(dp1793
g81
g82
ssg70
g1787
sg63
(lp1794
S'web2py_crontype'
p1795
asbag56
(g77
g58
NtRp1796
(dp1797
g61
(dp1798
g88
g89
ssg70
g1787
sg63
(lp1799
S':'
asbag56
(g77
g58
NtRp1800
(dp1801
g61
(dp1802
sg70
g1787
sg63
(lp1803
g56
(g57
g58
NtRp1804
(dp1805
g61
(dp1806
g69
I4
ssg70
g1800
sg63
(lp1807
S'hard'
p1808
asbasbasbag56
(g72
g58
NtRp1809
(dp1810
g61
(dp1811
sg70
g1191
sg63
(lp1812
g56
(g77
g58
NtRp1813
(dp1814
g61
(dp1815
g81
g82
ssg70
g1809
sg63
(lp1816
S'web2py_path'
p1817
asbag56
(g77
g58
NtRp1818
(dp1819
g61
(dp1820
g88
g89
ssg70
g1809
sg63
(lp1821
S':'
asbag56
(g77
g58
NtRp1822
(dp1823
g61
(dp1824
sg70
g1809
sg63
(lp1825
g56
(g57
g58
NtRp1826
(dp1827
g61
(dp1828
g69
I4
ssg70
g1822
sg63
(lp1829
g1238
asbasbasbag56
(g72
g58
NtRp1830
(dp1831
g61
(dp1832
sg70
g1191
sg63
(lp1833
g56
(g77
g58
NtRp1834
(dp1835
g61
(dp1836
g81
g82
ssg70
g1830
sg63
(lp1837
S'web2py_version'
p1838
asbag56
(g77
g58
NtRp1839
(dp1840
g61
(dp1841
g88
g89
ssg70
g1830
sg63
(lp1842
S':'
asbag56
(g77
g58
NtRp1843
(dp1844
g61
(dp1845
sg70
g1830
sg63
(lp1846
g56
(g57
g58
NtRp1847
(dp1848
g61
(dp1849
g69
I4
ssg70
g1843
sg63
(lp1850
S'Version 1.98.2 (2011-08-04 00:47:09)\n'
p1851
asbasbasbag56
(g72
g58
NtRp1852
(dp1853
g61
(dp1854
sg70
g1191
sg63
(lp1855
g56
(g77
g58
NtRp1856
(dp1857
g61
(dp1858
g81
g82
ssg70
g1852
sg63
(lp1859
S'wsgi_errors'
p1860
asbag56
(g77
g58
NtRp1861
(dp1862
g61
(dp1863
g88
g89
ssg70
g1852
sg63
(lp1864
S':'
asbag56
(g77
g58
NtRp1865
(dp1866
g61
(dp1867
sg70
g1852
sg63
(lp1868
g56
(g57
g58
NtRp1869
(dp1870
g61
(dp1871
g69
I4
ssg70
g1865
sg63
(lp1872
S"<open file '<stderr>', mode 'w' at 0xb76e20d0>"
p1873
asbasbasbag56
(g72
g58
NtRp1874
(dp1875
g61
(dp1876
sg70
g1191
sg63
(lp1877
g56
(g77
g58
NtRp1878
(dp1879
g61
(dp1880
g81
g82
ssg70
g1874
sg63
(lp1881
S'wsgi_file_wrapper'
p1882
asbag56
(g77
g58
NtRp1883
(dp1884
g61
(dp1885
g88
g89
ssg70
g1874
sg63
(lp1886
S':'
asbag56
(g77
g58
NtRp1887
(dp1888
g61
(dp1889
sg70
g1874
sg63
(lp1890
g56
(g57
g58
NtRp1891
(dp1892
g61
(dp1893
g69
I4
ssg70
g1887
sg63
(lp1894
S'<class gluon.rocket.FileWrapper at 0x96a132c>'
p1895
asbasbasbag56
(g72
g58
NtRp1896
(dp1897
g61
(dp1898
sg70
g1191
sg63
(lp1899
g56
(g77
g58
NtRp1900
(dp1901
g61
(dp1902
g81
g82
ssg70
g1896
sg63
(lp1903
S'wsgi_input'
p1904
asbag56
(g77
g58
NtRp1905
(dp1906
g61
(dp1907
g88
g89
ssg70
g1896
sg63
(lp1908
S':'
asbag56
(g77
g58
NtRp1909
(dp1910
g61
(dp1911
sg70
g1896
sg63
(lp1912
g56
(g57
g58
NtRp1913
(dp1914
g61
(dp1915
g69
I4
ssg70
g1909
sg63
(lp1916
S'<socket._fileobject object at 0x9fa482c>'
p1917
asbasbasbag56
(g72
g58
NtRp1918
(dp1919
g61
(dp1920
sg70
g1191
sg63
(lp1921
g56
(g77
g58
NtRp1922
(dp1923
g61
(dp1924
g81
g82
ssg70
g1918
sg63
(lp1925
S'wsgi_multiprocess'
p1926
asbag56
(g77
g58
NtRp1927
(dp1928
g61
(dp1929
g88
g89
ssg70
g1918
sg63
(lp1930
S':'
asbag56
(g77
g58
NtRp1931
(dp1932
g61
(dp1933
sg70
g1918
sg63
(lp1934
g56
(g57
g58
NtRp1935
(dp1936
g61
(dp1937
g69
I4
ssg70
g1931
sg63
(lp1938
g99
asbasbasbag56
(g72
g58
NtRp1939
(dp1940
g61
(dp1941
sg70
g1191
sg63
(lp1942
g56
(g77
g58
NtRp1943
(dp1944
g61
(dp1945
g81
g82
ssg70
g1939
sg63
(lp1946
S'wsgi_multithread'
p1947
asbag56
(g77
g58
NtRp1948
(dp1949
g61
(dp1950
g88
g89
ssg70
g1939
sg63
(lp1951
S':'
asbag56
(g77
g58
NtRp1952
(dp1953
g61
(dp1954
sg70
g1939
sg63
(lp1955
g56
(g57
g58
NtRp1956
(dp1957
g61
(dp1958
g69
I4
ssg70
g1952
sg63
(lp1959
S'True'
p1960
asbasbasbag56
(g72
g58
NtRp1961
(dp1962
g61
(dp1963
sg70
g1191
sg63
(lp1964
g56
(g77
g58
NtRp1965
(dp1966
g61
(dp1967
g81
g82
ssg70
g1961
sg63
(lp1968
S'wsgi_run_once'
p1969
asbag56
(g77
g58
NtRp1970
(dp1971
g61
(dp1972
g88
g89
ssg70
g1961
sg63
(lp1973
S':'
asbag56
(g77
g58
NtRp1974
(dp1975
g61
(dp1976
sg70
g1961
sg63
(lp1977
g56
(g57
g58
NtRp1978
(dp1979
g61
(dp1980
g69
I4
ssg70
g1974
sg63
(lp1981
g99
asbasbasbag56
(g72
g58
NtRp1982
(dp1983
g61
(dp1984
sg70
g1191
sg63
(lp1985
g56
(g77
g58
NtRp1986
(dp1987
g61
(dp1988
g81
g82
ssg70
g1982
sg63
(lp1989
S'wsgi_url_scheme'
p1990
asbag56
(g77
g58
NtRp1991
(dp1992
g61
(dp1993
g88
g89
ssg70
g1982
sg63
(lp1994
S':'
asbag56
(g77
g58
NtRp1995
(dp1996
g61
(dp1997
sg70
g1982
sg63
(lp1998
g56
(g57
g58
NtRp1999
(dp2000
g61
(dp2001
g69
I4
ssg70
g1995
sg63
(lp2002
S'http'
p2003
asbasbasbag56
(g72
g58
NtRp2004
(dp2005
g61
(dp2006
sg70
g1191
sg63
(lp2007
g56
(g77
g58
NtRp2008
(dp2009
g61
(dp2010
g81
g82
ssg70
g2004
sg63
(lp2011
S'wsgi_version'
p2012
asbag56
(g77
g58
NtRp2013
(dp2014
g61
(dp2015
g88
g89
ssg70
g2004
sg63
(lp2016
S':'
asbag56
(g77
g58
NtRp2017
(dp2018
g61
(dp2019
sg70
g2004
sg63
(lp2020
g56
(g57
g58
NtRp2021
(dp2022
g61
(dp2023
g69
I4
ssg70
g2017
sg63
(lp2024
g56
(g65
g58
NtRp2025
(dp2026
g61
(dp2027
g69
I3
ssg70
Nsg63
(lp2028
g56
(g72
g58
NtRp2029
(dp2030
g61
(dp2031
sg70
g2025
sg63
(lp2032
g56
(g77
g58
NtRp2033
(dp2034
g61
(dp2035
sg70
g2029
sg63
(lp2036
g56
(g57
g58
NtRp2037
(dp2038
g61
(dp2039
g69
I3
ssg70
g2033
sg63
(lp2040
S'1'
asbasbasbag56
(g72
g58
NtRp2041
(dp2042
g61
(dp2043
sg70
g2025
sg63
(lp2044
g56
(g77
g58
NtRp2045
(dp2046
g61
(dp2047
sg70
g2041
sg63
(lp2048
g56
(g57
g58
NtRp2049
(dp2050
g61
(dp2051
g69
I3
ssg70
g2045
sg63
(lp2052
S'0'
asbasbasbasbasbasbasbasbasbasbasbag56
(g72
g58
NtRp2053
(dp2054
g61
(dp2055
sg70
g66
sg63
(lp2056
g56
(g77
g58
NtRp2057
(dp2058
g61
(dp2059
g81
g82
ssg70
g2053
sg63
(lp2060
S'extension'
p2061
asbag56
(g77
g58
NtRp2062
(dp2063
g61
(dp2064
g88
g89
ssg70
g2053
sg63
(lp2065
S':'
asbag56
(g77
g58
NtRp2066
(dp2067
g61
(dp2068
sg70
g2053
sg63
(lp2069
g56
(g57
g58
NtRp2070
(dp2071
g61
(dp2072
g69
I5
ssg70
g2066
sg63
(lp2073
S'html'
p2074
asbasbasbag56
(g72
g58
NtRp2075
(dp2076
g61
(dp2077
sg70
g66
sg63
(lp2078
g56
(g77
g58
NtRp2079
(dp2080
g61
(dp2081
g81
g82
ssg70
g2075
sg63
(lp2082
S'folder'
p2083
asbag56
(g77
g58
NtRp2084
(dp2085
g61
(dp2086
g88
g89
ssg70
g2075
sg63
(lp2087
S':'
asbag56
(g77
g58
NtRp2088
(dp2089
g61
(dp2090
sg70
g2075
sg63
(lp2091
g56
(g57
g58
NtRp2092
(dp2093
g61
(dp2094
g69
I5
ssg70
g2088
sg63
(lp2095
S'/home/alumno/web2py/applications/datos/'
p2096
asbasbasbag56
(g72
g58
NtRp2097
(dp2098
g61
(dp2099
sg70
g66
sg63
(lp2100
g56
(g77
g58
NtRp2101
(dp2102
g61
(dp2103
g81
g82
ssg70
g2097
sg63
(lp2104
S'function'
p2105
asbag56
(g77
g58
NtRp2106
(dp2107
g61
(dp2108
g88
g89
ssg70
g2097
sg63
(lp2109
S':'
asbag56
(g77
g58
NtRp2110
(dp2111
g61
(dp2112
sg70
g2097
sg63
(lp2113
g56
(g57
g58
NtRp2114
(dp2115
g61
(dp2116
g69
I5
ssg70
g2110
sg63
(lp2117
S'index'
p2118
asbasbasbag56
(g72
g58
NtRp2119
(dp2120
g61
(dp2121
sg70
g66
sg63
(lp2122
g56
(g77
g58
NtRp2123
(dp2124
g61
(dp2125
g81
g82
ssg70
g2119
sg63
(lp2126
S'get_vars'
p2127
asbag56
(g77
g58
NtRp2128
(dp2129
g61
(dp2130
g88
g89
ssg70
g2119
sg63
(lp2131
S':'
asbag56
(g77
g58
NtRp2132
(dp2133
g61
(dp2134
sg70
g2119
sg63
(lp2135
g56
(g57
g58
NtRp2136
(dp2137
g61
(dp2138
g69
I5
ssg70
g2132
sg63
(lp2139
g56
(g65
g58
NtRp2140
(dp2141
g61
(dp2142
g69
I4
ssg70
Nsg63
(lp2143
sbasbasbasbag56
(g72
g58
NtRp2144
(dp2145
g61
(dp2146
sg70
g66
sg63
(lp2147
g56
(g77
g58
NtRp2148
(dp2149
g61
(dp2150
g81
g82
ssg70
g2144
sg63
(lp2151
S'is_https'
p2152
asbag56
(g77
g58
NtRp2153
(dp2154
g61
(dp2155
g88
g89
ssg70
g2144
sg63
(lp2156
S':'
asbag56
(g77
g58
NtRp2157
(dp2158
g61
(dp2159
sg70
g2144
sg63
(lp2160
g56
(g57
g58
NtRp2161
(dp2162
g61
(dp2163
g69
I5
ssg70
g2157
sg63
(lp2164
g99
asbasbasbag56
(g72
g58
NtRp2165
(dp2166
g61
(dp2167
sg70
g66
sg63
(lp2168
g56
(g77
g58
NtRp2169
(dp2170
g61
(dp2171
g81
g82
ssg70
g2165
sg63
(lp2172
S'is_local'
p2173
asbag56
(g77
g58
NtRp2174
(dp2175
g61
(dp2176
g88
g89
ssg70
g2165
sg63
(lp2177
S':'
asbag56
(g77
g58
NtRp2178
(dp2179
g61
(dp2180
sg70
g2165
sg63
(lp2181
g56
(g57
g58
NtRp2182
(dp2183
g61
(dp2184
g69
I5
ssg70
g2178
sg63
(lp2185
g1960
asbasbasbag56
(g72
g58
NtRp2186
(dp2187
g61
(dp2188
sg70
g66
sg63
(lp2189
g56
(g77
g58
NtRp2190
(dp2191
g61
(dp2192
g81
g82
ssg70
g2186
sg63
(lp2193
S'is_restful'
p2194
asbag56
(g77
g58
NtRp2195
(dp2196
g61
(dp2197
g88
g89
ssg70
g2186
sg63
(lp2198
S':'
asbag56
(g77
g58
NtRp2199
(dp2200
g61
(dp2201
sg70
g2186
sg63
(lp2202
g56
(g57
g58
NtRp2203
(dp2204
g61
(dp2205
g69
I5
ssg70
g2199
sg63
(lp2206
g99
asbasbasbag56
(g72
g58
NtRp2207
(dp2208
g61
(dp2209
sg70
g66
sg63
(lp2210
g56
(g77
g58
NtRp2211
(dp2212
g61
(dp2213
g81
g82
ssg70
g2207
sg63
(lp2214
S'now'
p2215
asbag56
(g77
g58
NtRp2216
(dp2217
g61
(dp2218
g88
g89
ssg70
g2207
sg63
(lp2219
S':'
asbag56
(g77
g58
NtRp2220
(dp2221
g61
(dp2222
sg70
g2207
sg63
(lp2223
g56
(g57
g58
NtRp2224
(dp2225
g61
(dp2226
g69
I5
ssg70
g2220
sg63
(lp2227
S'datetime.datetime(2011, 9, 7, 20, 16, 33, 683557)'
p2228
asbasbasbag56
(g72
g58
NtRp2229
(dp2230
g61
(dp2231
sg70
g66
sg63
(lp2232
g56
(g77
g58
NtRp2233
(dp2234
g61
(dp2235
g81
g82
ssg70
g2229
sg63
(lp2236
S'post_vars'
p2237
asbag56
(g77
g58
NtRp2238
(dp2239
g61
(dp2240
g88
g89
ssg70
g2229
sg63
(lp2241
S':'
asbag56
(g77
g58
NtRp2242
(dp2243
g61
(dp2244
sg70
g2229
sg63
(lp2245
g56
(g57
g58
NtRp2246
(dp2247
g61
(dp2248
g69
I5
ssg70
g2242
sg63
(lp2249
g56
(g65
g58
NtRp2250
(dp2251
g61
(dp2252
g69
I4
ssg70
Nsg63
(lp2253
sbasbasbasbag56
(g72
g58
NtRp2254
(dp2255
g61
(dp2256
sg70
g66
sg63
(lp2257
g56
(g77
g58
NtRp2258
(dp2259
g61
(dp2260
g81
g82
ssg70
g2254
sg63
(lp2261
S'url'
p2262
asbag56
(g77
g58
NtRp2263
(dp2264
g61
(dp2265
g88
g89
ssg70
g2254
sg63
(lp2266
S':'
asbag56
(g77
g58
NtRp2267
(dp2268
g61
(dp2269
sg70
g2254
sg63
(lp2270
g56
(g57
g58
NtRp2271
(dp2272
g61
(dp2273
g69
I5
ssg70
g2267
sg63
(lp2274
S'/datos/default/index'
p2275
asbasbasbag56
(g72
g58
NtRp2276
(dp2277
g61
(dp2278
sg70
g66
sg63
(lp2279
g56
(g77
g58
NtRp2280
(dp2281
g61
(dp2282
g81
g82
ssg70
g2276
sg63
(lp2283
S'uuid'
p2284
asbag56
(g77
g58
NtRp2285
(dp2286
g61
(dp2287
g88
g89
ssg70
g2276
sg63
(lp2288
S':'
asbag56
(g77
g58
NtRp2289
(dp2290
g61
(dp2291
sg70
g2276
sg63
(lp2292
g56
(g57
g58
NtRp2293
(dp2294
g61
(dp2295
g69
I5
ssg70
g2289
sg63
(lp2296
S'datos/127.0.0.1.2011-09-07.20-16-33.3bab5a59-ebe3-44ab-bb00-bebcc0ac115e'
p2297
asbasbasbag56
(g72
g58
NtRp2298
(dp2299
g61
(dp2300
sg70
g66
sg63
(lp2301
g56
(g77
g58
NtRp2302
(dp2303
g61
(dp2304
g81
g82
ssg70
g2298
sg63
(lp2305
S'vars'
p2306
asbag56
(g77
g58
NtRp2307
(dp2308
g61
(dp2309
g88
g89
ssg70
g2298
sg63
(lp2310
S':'
asbag56
(g77
g58
NtRp2311
(dp2312
g61
(dp2313
sg70
g2298
sg63
(lp2314
g56
(g57
g58
NtRp2315
(dp2316
g61
(dp2317
g69
I5
ssg70
g2311
sg63
(lp2318
g56
(g65
g58
NtRp2319
(dp2320
g61
(dp2321
g69
I4
ssg70
Nsg63
(lp2322
sbasbasbasbag56
(g72
g58
NtRp2323
(dp2324
g61
(dp2325
sg70
g66
sg63
(lp2326
g56
(g77
g58
NtRp2327
(dp2328
g61
(dp2329
g81
g82
ssg70
g2323
sg63
(lp2330
S'wsgi'
p2331
asbag56
(g77
g58
NtRp2332
(dp2333
g61
(dp2334
g88
g89
ssg70
g2323
sg63
(lp2335
S':'
asbag56
(g77
g58
NtRp2336
(dp2337
g61
(dp2338
sg70
g2323
sg63
(lp2339
g56
(g57
g58
NtRp2340
(dp2341
g61
(dp2342
g69
I5
ssg70
g2336
sg63
(lp2343
g56
(g65
g58
NtRp2344
(dp2345
g61
(dp2346
g69
I4
ssg70
Nsg63
(lp2347
g56
(g72
g58
NtRp2348
(dp2349
g61
(dp2350
sg70
g2344
sg63
(lp2351
g56
(g77
g58
NtRp2352
(dp2353
g61
(dp2354
g81
g82
ssg70
g2348
sg63
(lp2355
S'environ'
p2356
asbag56
(g77
g58
NtRp2357
(dp2358
g61
(dp2359
g88
g89
ssg70
g2348
sg63
(lp2360
S':'
asbag56
(g77
g58
NtRp2361
(dp2362
g61
(dp2363
sg70
g2348
sg63
(lp2364
g56
(g57
g58
NtRp2365
(dp2366
g61
(dp2367
g69
I4
ssg70
g2361
sg63
(lp2368
g56
(g65
g58
NtRp2369
(dp2370
g61
(dp2371
g69
I3
ssg70
Nsg63
(lp2372
g56
(g72
g58
NtRp2373
(dp2374
g61
(dp2375
sg70
g2369
sg63
(lp2376
g56
(g77
g58
NtRp2377
(dp2378
g61
(dp2379
g81
g82
ssg70
g2373
sg63
(lp2380
S'HTTP_ACCEPT'
p2381
asbag56
(g77
g58
NtRp2382
(dp2383
g61
(dp2384
g88
g89
ssg70
g2373
sg63
(lp2385
S':'
asbag56
(g77
g58
NtRp2386
(dp2387
g61
(dp2388
sg70
g2373
sg63
(lp2389
g56
(g57
g58
NtRp2390
(dp2391
g61
(dp2392
g69
I3
ssg70
g2386
sg63
(lp2393
g1372
asbasbasbag56
(g72
g58
NtRp2394
(dp2395
g61
(dp2396
sg70
g2369
sg63
(lp2397
g56
(g77
g58
NtRp2398
(dp2399
g61
(dp2400
g81
g82
ssg70
g2394
sg63
(lp2401
S'HTTP_ACCEPT_CHARSET'
p2402
asbag56
(g77
g58
NtRp2403
(dp2404
g61
(dp2405
g88
g89
ssg70
g2394
sg63
(lp2406
S':'
asbag56
(g77
g58
NtRp2407
(dp2408
g61
(dp2409
sg70
g2394
sg63
(lp2410
g56
(g57
g58
NtRp2411
(dp2412
g61
(dp2413
g69
I3
ssg70
g2407
sg63
(lp2414
g1394
asbasbasbag56
(g72
g58
NtRp2415
(dp2416
g61
(dp2417
sg70
g2369
sg63
(lp2418
g56
(g77
g58
NtRp2419
(dp2420
g61
(dp2421
g81
g82
ssg70
g2415
sg63
(lp2422
S'HTTP_ACCEPT_ENCODING'
p2423
asbag56
(g77
g58
NtRp2424
(dp2425
g61
(dp2426
g88
g89
ssg70
g2415
sg63
(lp2427
S':'
asbag56
(g77
g58
NtRp2428
(dp2429
g61
(dp2430
sg70
g2415
sg63
(lp2431
g56
(g57
g58
NtRp2432
(dp2433
g61
(dp2434
g69
I3
ssg70
g2428
sg63
(lp2435
g1416
asbasbasbag56
(g72
g58
NtRp2436
(dp2437
g61
(dp2438
sg70
g2369
sg63
(lp2439
g56
(g77
g58
NtRp2440
(dp2441
g61
(dp2442
g81
g82
ssg70
g2436
sg63
(lp2443
S'HTTP_ACCEPT_LANGUAGE'
p2444
asbag56
(g77
g58
NtRp2445
(dp2446
g61
(dp2447
g88
g89
ssg70
g2436
sg63
(lp2448
S':'
asbag56
(g77
g58
NtRp2449
(dp2450
g61
(dp2451
sg70
g2436
sg63
(lp2452
g56
(g57
g58
NtRp2453
(dp2454
g61
(dp2455
g69
I3
ssg70
g2449
sg63
(lp2456
g1438
asbasbasbag56
(g72
g58
NtRp2457
(dp2458
g61
(dp2459
sg70
g2369
sg63
(lp2460
g56
(g77
g58
NtRp2461
(dp2462
g61
(dp2463
g81
g82
ssg70
g2457
sg63
(lp2464
S'HTTP_CACHE_CONTROL'
p2465
asbag56
(g77
g58
NtRp2466
(dp2467
g61
(dp2468
g88
g89
ssg70
g2457
sg63
(lp2469
S':'
asbag56
(g77
g58
NtRp2470
(dp2471
g61
(dp2472
sg70
g2457
sg63
(lp2473
g56
(g57
g58
NtRp2474
(dp2475
g61
(dp2476
g69
I3
ssg70
g2470
sg63
(lp2477
g1460
asbasbasbag56
(g72
g58
NtRp2478
(dp2479
g61
(dp2480
sg70
g2369
sg63
(lp2481
g56
(g77
g58
NtRp2482
(dp2483
g61
(dp2484
g81
g82
ssg70
g2478
sg63
(lp2485
S'HTTP_CONNECTION'
p2486
asbag56
(g77
g58
NtRp2487
(dp2488
g61
(dp2489
g88
g89
ssg70
g2478
sg63
(lp2490
S':'
asbag56
(g77
g58
NtRp2491
(dp2492
g61
(dp2493
sg70
g2478
sg63
(lp2494
g56
(g57
g58
NtRp2495
(dp2496
g61
(dp2497
g69
I3
ssg70
g2491
sg63
(lp2498
g1482
asbasbasbag56
(g72
g58
NtRp2499
(dp2500
g61
(dp2501
sg70
g2369
sg63
(lp2502
g56
(g77
g58
NtRp2503
(dp2504
g61
(dp2505
g81
g82
ssg70
g2499
sg63
(lp2506
S'HTTP_COOKIE'
p2507
asbag56
(g77
g58
NtRp2508
(dp2509
g61
(dp2510
g88
g89
ssg70
g2499
sg63
(lp2511
S':'
asbag56
(g77
g58
NtRp2512
(dp2513
g61
(dp2514
sg70
g2499
sg63
(lp2515
g56
(g57
g58
NtRp2516
(dp2517
g61
(dp2518
g69
I3
ssg70
g2512
sg63
(lp2519
g1504
asbasbasbag56
(g72
g58
NtRp2520
(dp2521
g61
(dp2522
sg70
g2369
sg63
(lp2523
g56
(g77
g58
NtRp2524
(dp2525
g61
(dp2526
g81
g82
ssg70
g2520
sg63
(lp2527
S'HTTP_HOST'
p2528
asbag56
(g77
g58
NtRp2529
(dp2530
g61
(dp2531
g88
g89
ssg70
g2520
sg63
(lp2532
S':'
asbag56
(g77
g58
NtRp2533
(dp2534
g61
(dp2535
sg70
g2520
sg63
(lp2536
g56
(g57
g58
NtRp2537
(dp2538
g61
(dp2539
g69
I3
ssg70
g2533
sg63
(lp2540
g1526
asbasbasbag56
(g72
g58
NtRp2541
(dp2542
g61
(dp2543
sg70
g2369
sg63
(lp2544
g56
(g77
g58
NtRp2545
(dp2546
g61
(dp2547
g81
g82
ssg70
g2541
sg63
(lp2548
S'HTTP_USER_AGENT'
p2549
asbag56
(g77
g58
NtRp2550
(dp2551
g61
(dp2552
g88
g89
ssg70
g2541
sg63
(lp2553
S':'
asbag56
(g77
g58
NtRp2554
(dp2555
g61
(dp2556
sg70
g2541
sg63
(lp2557
g56
(g57
g58
NtRp2558
(dp2559
g61
(dp2560
g69
I3
ssg70
g2554
sg63
(lp2561
g1548
asbasbasbag56
(g72
g58
NtRp2562
(dp2563
g61
(dp2564
sg70
g2369
sg63
(lp2565
g56
(g77
g58
NtRp2566
(dp2567
g61
(dp2568
g81
g82
ssg70
g2562
sg63
(lp2569
S'PATH_INFO'
p2570
asbag56
(g77
g58
NtRp2571
(dp2572
g61
(dp2573
g88
g89
ssg70
g2562
sg63
(lp2574
S':'
asbag56
(g77
g58
NtRp2575
(dp2576
g61
(dp2577
sg70
g2562
sg63
(lp2578
g56
(g57
g58
NtRp2579
(dp2580
g61
(dp2581
g69
I3
ssg70
g2575
sg63
(lp2582
g1591
asbasbasbag56
(g72
g58
NtRp2583
(dp2584
g61
(dp2585
sg70
g2369
sg63
(lp2586
g56
(g77
g58
NtRp2587
(dp2588
g61
(dp2589
g81
g82
ssg70
g2583
sg63
(lp2590
S'QUERY_STRING'
p2591
asbag56
(g77
g58
NtRp2592
(dp2593
g61
(dp2594
g88
g89
ssg70
g2583
sg63
(lp2595
S':'
asbag56
(g77
g58
NtRp2596
(dp2597
g61
(dp2598
sg70
g2583
sg63
(lp2599
g56
(g57
g58
NtRp2600
(dp2601
g61
(dp2602
g69
I3
ssg70
g2596
sg63
(lp2603
S''
asbasbasbag56
(g72
g58
NtRp2604
(dp2605
g61
(dp2606
sg70
g2369
sg63
(lp2607
g56
(g77
g58
NtRp2608
(dp2609
g61
(dp2610
g81
g82
ssg70
g2604
sg63
(lp2611
S'REMOTE_ADDR'
p2612
asbag56
(g77
g58
NtRp2613
(dp2614
g61
(dp2615
g88
g89
ssg70
g2604
sg63
(lp2616
S':'
asbag56
(g77
g58
NtRp2617
(dp2618
g61
(dp2619
sg70
g2604
sg63
(lp2620
g56
(g57
g58
NtRp2621
(dp2622
g61
(dp2623
g69
I3
ssg70
g2617
sg63
(lp2624
g189
asbasbasbag56
(g72
g58
NtRp2625
(dp2626
g61
(dp2627
sg70
g2369
sg63
(lp2628
g56
(g77
g58
NtRp2629
(dp2630
g61
(dp2631
g81
g82
ssg70
g2625
sg63
(lp2632
S'REMOTE_PORT'
p2633
asbag56
(g77
g58
NtRp2634
(dp2635
g61
(dp2636
g88
g89
ssg70
g2625
sg63
(lp2637
S':'
asbag56
(g77
g58
NtRp2638
(dp2639
g61
(dp2640
sg70
g2625
sg63
(lp2641
g56
(g57
g58
NtRp2642
(dp2643
g61
(dp2644
g69
I3
ssg70
g2638
sg63
(lp2645
g1655
asbasbasbag56
(g72
g58
NtRp2646
(dp2647
g61
(dp2648
sg70
g2369
sg63
(lp2649
g56
(g77
g58
NtRp2650
(dp2651
g61
(dp2652
g81
g82
ssg70
g2646
sg63
(lp2653
S'REQUEST_METHOD'
p2654
asbag56
(g77
g58
NtRp2655
(dp2656
g61
(dp2657
g88
g89
ssg70
g2646
sg63
(lp2658
S':'
asbag56
(g77
g58
NtRp2659
(dp2660
g61
(dp2661
sg70
g2646
sg63
(lp2662
g56
(g57
g58
NtRp2663
(dp2664
g61
(dp2665
g69
I3
ssg70
g2659
sg63
(lp2666
g1677
asbasbasbag56
(g72
g58
NtRp2667
(dp2668
g61
(dp2669
sg70
g2369
sg63
(lp2670
g56
(g77
g58
NtRp2671
(dp2672
g61
(dp2673
g81
g82
ssg70
g2667
sg63
(lp2674
S'SCRIPT_NAME'
p2675
asbag56
(g77
g58
NtRp2676
(dp2677
g61
(dp2678
g88
g89
ssg70
g2667
sg63
(lp2679
S':'
asbag56
(g77
g58
NtRp2680
(dp2681
g61
(dp2682
sg70
g2667
sg63
(lp2683
g56
(g57
g58
NtRp2684
(dp2685
g61
(dp2686
g69
I3
ssg70
g2680
sg63
(lp2687
S''
asbasbasbag56
(g72
g58
NtRp2688
(dp2689
g61
(dp2690
sg70
g2369
sg63
(lp2691
g56
(g77
g58
NtRp2692
(dp2693
g61
(dp2694
g81
g82
ssg70
g2688
sg63
(lp2695
S'SERVER_NAME'
p2696
asbag56
(g77
g58
NtRp2697
(dp2698
g61
(dp2699
g88
g89
ssg70
g2688
sg63
(lp2700
S':'
asbag56
(g77
g58
NtRp2701
(dp2702
g61
(dp2703
sg70
g2688
sg63
(lp2704
g56
(g57
g58
NtRp2705
(dp2706
g61
(dp2707
g69
I3
ssg70
g2701
sg63
(lp2708
g1720
asbasbasbag56
(g72
g58
NtRp2709
(dp2710
g61
(dp2711
sg70
g2369
sg63
(lp2712
g56
(g77
g58
NtRp2713
(dp2714
g61
(dp2715
g81
g82
ssg70
g2709
sg63
(lp2716
S'SERVER_PORT'
p2717
asbag56
(g77
g58
NtRp2718
(dp2719
g61
(dp2720
g88
g89
ssg70
g2709
sg63
(lp2721
S':'
asbag56
(g77
g58
NtRp2722
(dp2723
g61
(dp2724
sg70
g2709
sg63
(lp2725
g56
(g57
g58
NtRp2726
(dp2727
g61
(dp2728
g69
I3
ssg70
g2722
sg63
(lp2729
g1742
asbasbasbag56
(g72
g58
NtRp2730
(dp2731
g61
(dp2732
sg70
g2369
sg63
(lp2733
g56
(g77
g58
NtRp2734
(dp2735
g61
(dp2736
g81
g82
ssg70
g2730
sg63
(lp2737
S'SERVER_PROTOCOL'
p2738
asbag56
(g77
g58
NtRp2739
(dp2740
g61
(dp2741
g88
g89
ssg70
g2730
sg63
(lp2742
S':'
asbag56
(g77
g58
NtRp2743
(dp2744
g61
(dp2745
sg70
g2730
sg63
(lp2746
g56
(g57
g58
NtRp2747
(dp2748
g61
(dp2749
g69
I3
ssg70
g2743
sg63
(lp2750
g1764
asbasbasbag56
(g72
g58
NtRp2751
(dp2752
g61
(dp2753
sg70
g2369
sg63
(lp2754
g56
(g77
g58
NtRp2755
(dp2756
g61
(dp2757
g81
g82
ssg70
g2751
sg63
(lp2758
S'SERVER_SOFTWARE'
p2759
asbag56
(g77
g58
NtRp2760
(dp2761
g61
(dp2762
g88
g89
ssg70
g2751
sg63
(lp2763
S':'
asbag56
(g77
g58
NtRp2764
(dp2765
g61
(dp2766
sg70
g2751
sg63
(lp2767
g56
(g57
g58
NtRp2768
(dp2769
g61
(dp2770
g69
I3
ssg70
g2764
sg63
(lp2771
g1786
asbasbasbag56
(g72
g58
NtRp2772
(dp2773
g61
(dp2774
sg70
g2369
sg63
(lp2775
g56
(g77
g58
NtRp2776
(dp2777
g61
(dp2778
g81
g82
ssg70
g2772
sg63
(lp2779
S'wsgi.errors'
p2780
asbag56
(g77
g58
NtRp2781
(dp2782
g61
(dp2783
g88
g89
ssg70
g2772
sg63
(lp2784
S':'
asbag56
(g77
g58
NtRp2785
(dp2786
g61
(dp2787
sg70
g2772
sg63
(lp2788
g56
(g57
g58
NtRp2789
(dp2790
g61
(dp2791
g69
I3
ssg70
g2785
sg63
(lp2792
S"<open file '<stderr>', mode 'w' at 0xb76e20d0>"
p2793
asbasbasbag56
(g72
g58
NtRp2794
(dp2795
g61
(dp2796
sg70
g2369
sg63
(lp2797
g56
(g77
g58
NtRp2798
(dp2799
g61
(dp2800
g81
g82
ssg70
g2794
sg63
(lp2801
S'wsgi.file_wrapper'
p2802
asbag56
(g77
g58
NtRp2803
(dp2804
g61
(dp2805
g88
g89
ssg70
g2794
sg63
(lp2806
S':'
asbag56
(g77
g58
NtRp2807
(dp2808
g61
(dp2809
sg70
g2794
sg63
(lp2810
g56
(g57
g58
NtRp2811
(dp2812
g61
(dp2813
g69
I3
ssg70
g2807
sg63
(lp2814
S'<class gluon.rocket.FileWrapper at 0x96a132c>'
p2815
asbasbasbag56
(g72
g58
NtRp2816
(dp2817
g61
(dp2818
sg70
g2369
sg63
(lp2819
g56
(g77
g58
NtRp2820
(dp2821
g61
(dp2822
g81
g82
ssg70
g2816
sg63
(lp2823
S'wsgi.input'
p2824
asbag56
(g77
g58
NtRp2825
(dp2826
g61
(dp2827
g88
g89
ssg70
g2816
sg63
(lp2828
S':'
asbag56
(g77
g58
NtRp2829
(dp2830
g61
(dp2831
sg70
g2816
sg63
(lp2832
g56
(g57
g58
NtRp2833
(dp2834
g61
(dp2835
g69
I3
ssg70
g2829
sg63
(lp2836
S'<cStringIO.StringO object at 0x97b4d60>'
p2837
asbasbasbag56
(g72
g58
NtRp2838
(dp2839
g61
(dp2840
sg70
g2369
sg63
(lp2841
g56
(g77
g58
NtRp2842
(dp2843
g61
(dp2844
g81
g82
ssg70
g2838
sg63
(lp2845
S'wsgi.multiprocess'
p2846
asbag56
(g77
g58
NtRp2847
(dp2848
g61
(dp2849
g88
g89
ssg70
g2838
sg63
(lp2850
S':'
asbag56
(g77
g58
NtRp2851
(dp2852
g61
(dp2853
sg70
g2838
sg63
(lp2854
g56
(g57
g58
NtRp2855
(dp2856
g61
(dp2857
g69
I3
ssg70
g2851
sg63
(lp2858
g99
asbasbasbag56
(g72
g58
NtRp2859
(dp2860
g61
(dp2861
sg70
g2369
sg63
(lp2862
g56
(g77
g58
NtRp2863
(dp2864
g61
(dp2865
g81
g82
ssg70
g2859
sg63
(lp2866
S'wsgi.multithread'
p2867
asbag56
(g77
g58
NtRp2868
(dp2869
g61
(dp2870
g88
g89
ssg70
g2859
sg63
(lp2871
S':'
asbag56
(g77
g58
NtRp2872
(dp2873
g61
(dp2874
sg70
g2859
sg63
(lp2875
g56
(g57
g58
NtRp2876
(dp2877
g61
(dp2878
g69
I3
ssg70
g2872
sg63
(lp2879
g1960
asbasbasbag56
(g72
g58
NtRp2880
(dp2881
g61
(dp2882
sg70
g2369
sg63
(lp2883
g56
(g77
g58
NtRp2884
(dp2885
g61
(dp2886
g81
g82
ssg70
g2880
sg63
(lp2887
S'wsgi.run_once'
p2888
asbag56
(g77
g58
NtRp2889
(dp2890
g61
(dp2891
g88
g89
ssg70
g2880
sg63
(lp2892
S':'
asbag56
(g77
g58
NtRp2893
(dp2894
g61
(dp2895
sg70
g2880
sg63
(lp2896
g56
(g57
g58
NtRp2897
(dp2898
g61
(dp2899
g69
I3
ssg70
g2893
sg63
(lp2900
g99
asbasbasbag56
(g72
g58
NtRp2901
(dp2902
g61
(dp2903
sg70
g2369
sg63
(lp2904
g56
(g77
g58
NtRp2905
(dp2906
g61
(dp2907
g81
g82
ssg70
g2901
sg63
(lp2908
S'wsgi.url_scheme'
p2909
asbag56
(g77
g58
NtRp2910
(dp2911
g61
(dp2912
g88
g89
ssg70
g2901
sg63
(lp2913
S':'
asbag56
(g77
g58
NtRp2914
(dp2915
g61
(dp2916
sg70
g2901
sg63
(lp2917
g56
(g57
g58
NtRp2918
(dp2919
g61
(dp2920
g69
I3
ssg70
g2914
sg63
(lp2921
g2003
asbasbasbag56
(g72
g58
NtRp2922
(dp2923
g61
(dp2924
sg70
g2369
sg63
(lp2925
g56
(g77
g58
NtRp2926
(dp2927
g61
(dp2928
g81
g82
ssg70
g2922
sg63
(lp2929
S'wsgi.version'
p2930
asbag56
(g77
g58
NtRp2931
(dp2932
g61
(dp2933
g88
g89
ssg70
g2922
sg63
(lp2934
S':'
asbag56
(g77
g58
NtRp2935
(dp2936
g61
(dp2937
sg70
g2922
sg63
(lp2938
g56
(g57
g58
NtRp2939
(dp2940
g61
(dp2941
g69
I3
ssg70
g2935
sg63
(lp2942
S'1'
asbasbasbasbasbasbasbasbasbasbasbasbasbsS'frames'
p2943
(lp2944
(dp2945
S'file'
p2946
S'/home/alumno/web2py/gluon/restricted.py'
p2947
sS'dump'
p2948
(dp2949
S'environment'
p2950
S"{'A': <class 'gluon.html.A'>, 'B': <class 'gluon.html.B'>, 'BEAUTIFY': <class 'gluon.html.BEAUTIFY'>, 'BODY': <class 'gluon.html.BODY'>, 'BR': <class 'gluon.html.BR'>, 'BUTTON': <class 'gluon.html.BUTTON'>, 'CAT': <class 'gluon.html.CAT'>, 'CENTER': <class 'gluon.html.CENTER'>, 'CLEANUP': <class 'gluon.validators.CLEANUP'>, 'CODE': <class 'gluon.html.CODE'>, ...}"
p2951
sS'ccode'
p2952
S'<code object <module> at 0x9dcc380, file "/home/...ications/datos/views/default/index.html", line 1>'
p2953
ssS'lnum'
p2954
I192
sS'lines'
p2955
(dp2956
I192
S'        exec ccode in environment'
p2957
sI193
S'    except HTTP:'
p2958
sI194
S'        raise'
p2959
sI195
S'    except Exception, error:'
p2960
sI196
S'        # XXX Show exception in Wing IDE if running in debugger'
p2961
sI187
S'    try:'
p2962
sI188
S'        if type(code) == types.CodeType:'
p2963
sI189
S'            ccode = code'
p2964
sI190
S'        else:'
p2965
sI191
S'            ccode = compile2(code,layer)'
p2966
ssS'call'
p2967
S'(code=\'response.write(\\\'<!DOCTYPE html>\\\\n<html lang="\\\', ...t   -->    \\\\n  </body>\\\\n</html>\\\\n\\\', escape=False)\', environment={\'A\': <class \'gluon.html.A\'>, \'B\': <class \'gluon.html.B\'>, \'BEAUTIFY\': <class \'gluon.html.BEAUTIFY\'>, \'BODY\': <class \'gluon.html.BODY\'>, \'BR\': <class \'gluon.html.BR\'>, \'BUTTON\': <class \'gluon.html.BUTTON\'>, \'CAT\': <class \'gluon.html.CAT\'>, \'CENTER\': <class \'gluon.html.CENTER\'>, \'CLEANUP\': <class \'gluon.validators.CLEANUP\'>, \'CODE\': <class \'gluon.html.CODE\'>, ...}, layer=\'/home/alumno/web2py/applications/datos/views/default/index.html\')'
p2968
sS'func'
p2969
S'restricted'
p2970
sa(dp2971
g2946
S'/home/alumno/web2py/applications/datos/views/default/index.html'
p2972
sg2948
(dp2973
sg2954
I115
sg2955
(dp2974
I106
S"    response.write('</strong></li>\\n\\t<li>Fecha de Nacimiento: ', escape=False)"
p2975
sI107
S'    response.write(alumno.fnacimiento)'
p2976
sI108
S"    response.write('</li>\\n\\t<li>Email: ', escape=False)"
p2977
sI109
S'    response.write(alumno.email)'
p2978
sI110
S"    response.write('</li>\\n\\t<li>Pastiempo: ', escape=False)"
p2979
sI111
S'    response.write(alumno.hobby)'
p2980
sI112
S"    response.write('</li>\\n\\t</ul>\\n\\t<hr>\\n', escape=False)"
p2981
sI113
S'    pass'
p2982
sI114
S"response.write('\\n</p>\\n<h2>Profesor</h2>\\n<p>Este es el registro de profesor en el sistema\\n', escape=False)"
p2983
sI115
S'for profesor in profesores:'
p2984
sI116
S"    response.write('\\n\\t<ul>\\n\\t<li><strong>', escape=False)"
p2985
sI117
S'    response.write(profesor.nombre_completo)'
p2986
sI118
S"    response.write('</strong></li>\\n\\t<li>Especialidad: ', escape=False)"
p2987
sI119
S'    response.write(profesor.especialidad)'
p2988
sI120
S"    response.write('</li>\\n\\t<li>A\\xc3\\xb1os de Experiencia: ', escape=False)"
p2989
sI121
S'    response.write(profesor.anios_experiencia)'
p2990
sI122
S"    response.write('</li>\\n\\t</ul>\\n\\t<hr>\\n', escape=False)"
p2991
sI123
S'    pass'
p2992
sI124
S"response.write('\\n</p>\\n', escape=False)"
p2993
sI125
S"response.write('\\t\\n\\t  </div>\\n\\t  <!-- content -->\\n\\n\\t  ', escape=False)"
p2994
ssg2967
S'()'
p2995
sg2969
S'<module>'
p2996
sasS'pyver'
p2997
S'Python 2.6.6: /usr/bin/python'
p2998
sS'session'
p2999
g56
(g57
g58
NtRp3000
(dp3001
g61
(dp3002
sg63
(lp3003
g56
(g65
g58
NtRp3004
(dp3005
g61
(dp3006
g69
I5
ssg70
Nsg63
(lp3007
g56
(g72
g58
NtRp3008
(dp3009
g61
(dp3010
sg70
g3004
sg63
(lp3011
g56
(g77
g58
NtRp3012
(dp3013
g61
(dp3014
g81
g82
ssg70
g3008
sg63
(lp3015
S'last_query'
p3016
asbag56
(g77
g58
NtRp3017
(dp3018
g61
(dp3019
g88
g89
ssg70
g3008
sg63
(lp3020
S':'
asbag56
(g77
g58
NtRp3021
(dp3022
g61
(dp3023
sg70
g3008
sg63
(lp3024
g56
(g57
g58
NtRp3025
(dp3026
g61
(dp3027
g69
I5
ssg70
g3021
sg63
(lp3028
S'db.profesor.id>0'
p3029
asbasbasbasbasbsS'etype'
p3030
S"<type 'exceptions.NameError'>"
p3031
sS'date'
p3032
S'Wed Sep  7 20:16:33 2011'
p3033
sS'response'
p3034
g56
(g57
g58
NtRp3035
(dp3036
g61
(dp3037
sg63
(lp3038
g56
(g65
g58
NtRp3039
(dp3040
g61
(dp3041
g69
I5
ssg70
Nsg63
(lp3042
g56
(g72
g58
NtRp3043
(dp3044
g61
(dp3045
sg70
g3039
sg63
(lp3046
g56
(g77
g58
NtRp3047
(dp3048
g61
(dp3049
g81
g82
ssg70
g3043
sg63
(lp3050
g154
asbag56
(g77
g58
NtRp3051
(dp3052
g61
(dp3053
g88
g89
ssg70
g3043
sg63
(lp3054
S':'
asbag56
(g77
g58
NtRp3055
(dp3056
g61
(dp3057
sg70
g3043
sg63
(lp3058
g56
(g57
g58
NtRp3059
(dp3060
g61
(dp3061
g69
I5
ssg70
g3055
sg63
(lp3062
S'<cStringIO.StringO object at 0x9caa5e0>'
p3063
asbasbasbag56
(g72
g58
NtRp3064
(dp3065
g61
(dp3066
sg70
g3039
sg63
(lp3067
g56
(g77
g58
NtRp3068
(dp3069
g61
(dp3070
g81
g82
ssg70
g3064
sg63
(lp3071
g220
asbag56
(g77
g58
NtRp3072
(dp3073
g61
(dp3074
g88
g89
ssg70
g3064
sg63
(lp3075
S':'
asbag56
(g77
g58
NtRp3076
(dp3077
g61
(dp3078
sg70
g3064
sg63
(lp3079
g56
(g57
g58
NtRp3080
(dp3081
g61
(dp3082
g69
I5
ssg70
g3076
sg63
(lp3083
g56
(g65
g58
NtRp3084
(dp3085
g61
(dp3086
g69
I4
ssg70
Nsg63
(lp3087
g56
(g72
g58
NtRp3088
(dp3089
g61
(dp3090
sg70
g3084
sg63
(lp3091
g56
(g77
g58
NtRp3092
(dp3093
g61
(dp3094
g81
g82
ssg70
g3088
sg63
(lp3095
S'session_id_datos'
p3096
asbag56
(g77
g58
NtRp3097
(dp3098
g61
(dp3099
g88
g89
ssg70
g3088
sg63
(lp3100
S':'
asbag56
(g77
g58
NtRp3101
(dp3102
g61
(dp3103
sg70
g3088
sg63
(lp3104
g56
(g57
g58
NtRp3105
(dp3106
g61
(dp3107
g69
I4
ssg70
g3101
sg63
(lp3108
g56
(g65
g58
NtRp3109
(dp3110
g61
(dp3111
g69
I3
ssg70
Nsg63
(lp3112
g56
(g72
g58
NtRp3113
(dp3114
g61
(dp3115
sg70
g3109
sg63
(lp3116
g56
(g77
g58
NtRp3117
(dp3118
g61
(dp3119
g81
g82
ssg70
g3113
sg63
(lp3120
g270
asbag56
(g77
g58
NtRp3121
(dp3122
g61
(dp3123
g88
g89
ssg70
g3113
sg63
(lp3124
S':'
asbag56
(g77
g58
NtRp3125
(dp3126
g61
(dp3127
sg70
g3113
sg63
(lp3128
g56
(g57
g58
NtRp3129
(dp3130
g61
(dp3131
g69
I3
ssg70
g3125
sg63
(lp3132
S''
asbasbasbag56
(g72
g58
NtRp3133
(dp3134
g61
(dp3135
sg70
g3109
sg63
(lp3136
g56
(g77
g58
NtRp3137
(dp3138
g61
(dp3139
g81
g82
ssg70
g3133
sg63
(lp3140
g291
asbag56
(g77
g58
NtRp3141
(dp3142
g61
(dp3143
g88
g89
ssg70
g3133
sg63
(lp3144
S':'
asbag56
(g77
g58
NtRp3145
(dp3146
g61
(dp3147
sg70
g3133
sg63
(lp3148
g56
(g57
g58
NtRp3149
(dp3150
g61
(dp3151
g69
I3
ssg70
g3145
sg63
(lp3152
S''
asbasbasbag56
(g72
g58
NtRp3153
(dp3154
g61
(dp3155
sg70
g3109
sg63
(lp3156
g56
(g77
g58
NtRp3157
(dp3158
g61
(dp3159
g81
g82
ssg70
g3153
sg63
(lp3160
g312
asbag56
(g77
g58
NtRp3161
(dp3162
g61
(dp3163
g88
g89
ssg70
g3153
sg63
(lp3164
S':'
asbag56
(g77
g58
NtRp3165
(dp3166
g61
(dp3167
sg70
g3153
sg63
(lp3168
g56
(g57
g58
NtRp3169
(dp3170
g61
(dp3171
g69
I3
ssg70
g3165
sg63
(lp3172
S''
asbasbasbag56
(g72
g58
NtRp3173
(dp3174
g61
(dp3175
sg70
g3109
sg63
(lp3176
g56
(g77
g58
NtRp3177
(dp3178
g61
(dp3179
g81
g82
ssg70
g3173
sg63
(lp3180
g333
asbag56
(g77
g58
NtRp3181
(dp3182
g61
(dp3183
g88
g89
ssg70
g3173
sg63
(lp3184
S':'
asbag56
(g77
g58
NtRp3185
(dp3186
g61
(dp3187
sg70
g3173
sg63
(lp3188
g56
(g57
g58
NtRp3189
(dp3190
g61
(dp3191
g69
I3
ssg70
g3185
sg63
(lp3192
S''
asbasbasbag56
(g72
g58
NtRp3193
(dp3194
g61
(dp3195
sg70
g3109
sg63
(lp3196
g56
(g77
g58
NtRp3197
(dp3198
g61
(dp3199
g81
g82
ssg70
g3193
sg63
(lp3200
g354
asbag56
(g77
g58
NtRp3201
(dp3202
g61
(dp3203
g88
g89
ssg70
g3193
sg63
(lp3204
S':'
asbag56
(g77
g58
NtRp3205
(dp3206
g61
(dp3207
sg70
g3193
sg63
(lp3208
g56
(g57
g58
NtRp3209
(dp3210
g61
(dp3211
g69
I3
ssg70
g3205
sg63
(lp3212
S''
asbasbasbag56
(g72
g58
NtRp3213
(dp3214
g61
(dp3215
sg70
g3109
sg63
(lp3216
g56
(g77
g58
NtRp3217
(dp3218
g61
(dp3219
g81
g82
ssg70
g3213
sg63
(lp3220
g375
asbag56
(g77
g58
NtRp3221
(dp3222
g61
(dp3223
g88
g89
ssg70
g3213
sg63
(lp3224
S':'
asbag56
(g77
g58
NtRp3225
(dp3226
g61
(dp3227
sg70
g3213
sg63
(lp3228
g56
(g57
g58
NtRp3229
(dp3230
g61
(dp3231
g69
I3
ssg70
g3225
sg63
(lp3232
S'/'
asbasbasbag56
(g72
g58
NtRp3233
(dp3234
g61
(dp3235
sg70
g3109
sg63
(lp3236
g56
(g77
g58
NtRp3237
(dp3238
g61
(dp3239
g81
g82
ssg70
g3233
sg63
(lp3240
g396
asbag56
(g77
g58
NtRp3241
(dp3242
g61
(dp3243
g88
g89
ssg70
g3233
sg63
(lp3244
S':'
asbag56
(g77
g58
NtRp3245
(dp3246
g61
(dp3247
sg70
g3233
sg63
(lp3248
g56
(g57
g58
NtRp3249
(dp3250
g61
(dp3251
g69
I3
ssg70
g3245
sg63
(lp3252
S''
asbasbasbag56
(g72
g58
NtRp3253
(dp3254
g61
(dp3255
sg70
g3109
sg63
(lp3256
g56
(g77
g58
NtRp3257
(dp3258
g61
(dp3259
g81
g82
ssg70
g3253
sg63
(lp3260
g417
asbag56
(g77
g58
NtRp3261
(dp3262
g61
(dp3263
g88
g89
ssg70
g3253
sg63
(lp3264
S':'
asbag56
(g77
g58
NtRp3265
(dp3266
g61
(dp3267
sg70
g3253
sg63
(lp3268
g56
(g57
g58
NtRp3269
(dp3270
g61
(dp3271
g69
I3
ssg70
g3265
sg63
(lp3272
S''
asbasbasbasbasbasbasbasbasbasbasbag56
(g72
g58
NtRp3273
(dp3274
g61
(dp3275
sg70
g3039
sg63
(lp3276
g56
(g77
g58
NtRp3277
(dp3278
g61
(dp3279
g81
g82
ssg70
g3273
sg63
(lp3280
S'files'
p3281
asbag56
(g77
g58
NtRp3282
(dp3283
g61
(dp3284
g88
g89
ssg70
g3273
sg63
(lp3285
S':'
asbag56
(g77
g58
NtRp3286
(dp3287
g61
(dp3288
sg70
g3273
sg63
(lp3289
g56
(g57
g58
NtRp3290
(dp3291
g61
(dp3292
g69
I5
ssg70
g3286
sg63
(lp3293
g56
(g65
g58
NtRp3294
(dp3295
g61
(dp3296
g69
I4
ssg70
Nsg63
(lp3297
g56
(g72
g58
NtRp3298
(dp3299
g61
(dp3300
sg70
g3294
sg63
(lp3301
g56
(g77
g58
NtRp3302
(dp3303
g61
(dp3304
sg70
g3298
sg63
(lp3305
g56
(g57
g58
NtRp3306
(dp3307
g61
(dp3308
g69
I4
ssg70
g3302
sg63
(lp3309
S'/datos/static/js/jquery.js'
p3310
asbasbasbag56
(g72
g58
NtRp3311
(dp3312
g61
(dp3313
sg70
g3294
sg63
(lp3314
g56
(g77
g58
NtRp3315
(dp3316
g61
(dp3317
sg70
g3311
sg63
(lp3318
g56
(g57
g58
NtRp3319
(dp3320
g61
(dp3321
g69
I4
ssg70
g3315
sg63
(lp3322
S'/datos/static/css/calendar.css'
p3323
asbasbasbag56
(g72
g58
NtRp3324
(dp3325
g61
(dp3326
sg70
g3294
sg63
(lp3327
g56
(g77
g58
NtRp3328
(dp3329
g61
(dp3330
sg70
g3324
sg63
(lp3331
g56
(g57
g58
NtRp3332
(dp3333
g61
(dp3334
g69
I4
ssg70
g3328
sg63
(lp3335
S'/datos/static/js/calendar.js'
p3336
asbasbasbag56
(g72
g58
NtRp3337
(dp3338
g61
(dp3339
sg70
g3294
sg63
(lp3340
g56
(g77
g58
NtRp3341
(dp3342
g61
(dp3343
sg70
g3337
sg63
(lp3344
g56
(g57
g58
NtRp3345
(dp3346
g61
(dp3347
g69
I4
ssg70
g3341
sg63
(lp3348
S'/datos/static/css/base.css'
p3349
asbasbasbag56
(g72
g58
NtRp3350
(dp3351
g61
(dp3352
sg70
g3294
sg63
(lp3353
g56
(g77
g58
NtRp3354
(dp3355
g61
(dp3356
sg70
g3350
sg63
(lp3357
g56
(g57
g58
NtRp3358
(dp3359
g61
(dp3360
g69
I4
ssg70
g3354
sg63
(lp3361
S'/datos/static/css/superfish.css'
p3362
asbasbasbag56
(g72
g58
NtRp3363
(dp3364
g61
(dp3365
sg70
g3294
sg63
(lp3366
g56
(g77
g58
NtRp3367
(dp3368
g61
(dp3369
sg70
g3363
sg63
(lp3370
g56
(g57
g58
NtRp3371
(dp3372
g61
(dp3373
g69
I4
ssg70
g3367
sg63
(lp3374
S'/datos/static/js/superfish.js'
p3375
asbasbasbasbasbasbasbag56
(g72
g58
NtRp3376
(dp3377
g61
(dp3378
sg70
g3039
sg63
(lp3379
g56
(g77
g58
NtRp3380
(dp3381
g61
(dp3382
g81
g82
ssg70
g3376
sg63
(lp3383
S'flash'
p3384
asbag56
(g77
g58
NtRp3385
(dp3386
g61
(dp3387
g88
g89
ssg70
g3376
sg63
(lp3388
S':'
asbag56
(g77
g58
NtRp3389
(dp3390
g61
(dp3391
sg70
g3376
sg63
(lp3392
g56
(g57
g58
NtRp3393
(dp3394
g61
(dp3395
g69
I5
ssg70
g3389
sg63
(lp3396
S''
asbasbasbag56
(g72
g58
NtRp3397
(dp3398
g61
(dp3399
sg70
g3039
sg63
(lp3400
g56
(g77
g58
NtRp3401
(dp3402
g61
(dp3403
g81
g82
ssg70
g3397
sg63
(lp3404
S'generic_patterns'
p3405
asbag56
(g77
g58
NtRp3406
(dp3407
g61
(dp3408
g88
g89
ssg70
g3397
sg63
(lp3409
S':'
asbag56
(g77
g58
NtRp3410
(dp3411
g61
(dp3412
sg70
g3397
sg63
(lp3413
g56
(g57
g58
NtRp3414
(dp3415
g61
(dp3416
g69
I5
ssg70
g3410
sg63
(lp3417
g56
(g65
g58
NtRp3418
(dp3419
g61
(dp3420
g69
I4
ssg70
Nsg63
(lp3421
sbasbasbasbag56
(g72
g58
NtRp3422
(dp3423
g61
(dp3424
sg70
g3039
sg63
(lp3425
g56
(g77
g58
NtRp3426
(dp3427
g61
(dp3428
g81
g82
ssg70
g3422
sg63
(lp3429
S'headers'
p3430
asbag56
(g77
g58
NtRp3431
(dp3432
g61
(dp3433
g88
g89
ssg70
g3422
sg63
(lp3434
S':'
asbag56
(g77
g58
NtRp3435
(dp3436
g61
(dp3437
sg70
g3422
sg63
(lp3438
g56
(g57
g58
NtRp3439
(dp3440
g61
(dp3441
g69
I5
ssg70
g3435
sg63
(lp3442
g56
(g65
g58
NtRp3443
(dp3444
g61
(dp3445
g69
I4
ssg70
Nsg63
(lp3446
g56
(g72
g58
NtRp3447
(dp3448
g61
(dp3449
sg70
g3443
sg63
(lp3450
g56
(g77
g58
NtRp3451
(dp3452
g61
(dp3453
g81
g82
ssg70
g3447
sg63
(lp3454
S'Cache-Control'
p3455
asbag56
(g77
g58
NtRp3456
(dp3457
g61
(dp3458
g88
g89
ssg70
g3447
sg63
(lp3459
S':'
asbag56
(g77
g58
NtRp3460
(dp3461
g61
(dp3462
sg70
g3447
sg63
(lp3463
g56
(g57
g58
NtRp3464
(dp3465
g61
(dp3466
g69
I4
ssg70
g3460
sg63
(lp3467
S'no-store, no-cache, must-revalidate, post-check=0, pre-check=0'
p3468
asbasbasbag56
(g72
g58
NtRp3469
(dp3470
g61
(dp3471
sg70
g3443
sg63
(lp3472
g56
(g77
g58
NtRp3473
(dp3474
g61
(dp3475
g81
g82
ssg70
g3469
sg63
(lp3476
S'Content-Type'
p3477
asbag56
(g77
g58
NtRp3478
(dp3479
g61
(dp3480
g88
g89
ssg70
g3469
sg63
(lp3481
S':'
asbag56
(g77
g58
NtRp3482
(dp3483
g61
(dp3484
sg70
g3469
sg63
(lp3485
g56
(g57
g58
NtRp3486
(dp3487
g61
(dp3488
g69
I4
ssg70
g3482
sg63
(lp3489
S'text/html; charset=utf-8'
p3490
asbasbasbag56
(g72
g58
NtRp3491
(dp3492
g61
(dp3493
sg70
g3443
sg63
(lp3494
g56
(g77
g58
NtRp3495
(dp3496
g61
(dp3497
g81
g82
ssg70
g3491
sg63
(lp3498
S'Expires'
p3499
asbag56
(g77
g58
NtRp3500
(dp3501
g61
(dp3502
g88
g89
ssg70
g3491
sg63
(lp3503
S':'
asbag56
(g77
g58
NtRp3504
(dp3505
g61
(dp3506
sg70
g3491
sg63
(lp3507
g56
(g57
g58
NtRp3508
(dp3509
g61
(dp3510
g69
I4
ssg70
g3504
sg63
(lp3511
S'Thu, 08 Sep 2011 01:16:33 GMT'
p3512
asbasbasbag56
(g72
g58
NtRp3513
(dp3514
g61
(dp3515
sg70
g3443
sg63
(lp3516
g56
(g77
g58
NtRp3517
(dp3518
g61
(dp3519
g81
g82
ssg70
g3513
sg63
(lp3520
S'Pragma'
p3521
asbag56
(g77
g58
NtRp3522
(dp3523
g61
(dp3524
g88
g89
ssg70
g3513
sg63
(lp3525
S':'
asbag56
(g77
g58
NtRp3526
(dp3527
g61
(dp3528
sg70
g3513
sg63
(lp3529
g56
(g57
g58
NtRp3530
(dp3531
g61
(dp3532
g69
I4
ssg70
g3526
sg63
(lp3533
S'no-cache'
p3534
asbasbasbag56
(g72
g58
NtRp3535
(dp3536
g61
(dp3537
sg70
g3443
sg63
(lp3538
g56
(g77
g58
NtRp3539
(dp3540
g61
(dp3541
g81
g82
ssg70
g3535
sg63
(lp3542
S'X-Powered-By'
p3543
asbag56
(g77
g58
NtRp3544
(dp3545
g61
(dp3546
g88
g89
ssg70
g3535
sg63
(lp3547
S':'
asbag56
(g77
g58
NtRp3548
(dp3549
g61
(dp3550
sg70
g3535
sg63
(lp3551
g56
(g57
g58
NtRp3552
(dp3553
g61
(dp3554
g69
I4
ssg70
g3548
sg63
(lp3555
S'web2py'
p3556
asbasbasbasbasbasbasbag56
(g72
g58
NtRp3557
(dp3558
g61
(dp3559
sg70
g3039
sg63
(lp3560
g56
(g77
g58
NtRp3561
(dp3562
g61
(dp3563
g81
g82
ssg70
g3557
sg63
(lp3564
S'menu'
p3565
asbag56
(g77
g58
NtRp3566
(dp3567
g61
(dp3568
g88
g89
ssg70
g3557
sg63
(lp3569
S':'
asbag56
(g77
g58
NtRp3570
(dp3571
g61
(dp3572
sg70
g3557
sg63
(lp3573
g56
(g57
g58
NtRp3574
(dp3575
g61
(dp3576
g69
I5
ssg70
g3570
sg63
(lp3577
g56
(g65
g58
NtRp3578
(dp3579
g61
(dp3580
g69
I4
ssg70
Nsg63
(lp3581
g56
(g72
g58
NtRp3582
(dp3583
g61
(dp3584
sg70
g3578
sg63
(lp3585
g56
(g77
g58
NtRp3586
(dp3587
g61
(dp3588
sg70
g3582
sg63
(lp3589
g56
(g57
g58
NtRp3590
(dp3591
g61
(dp3592
g69
I4
ssg70
g3586
sg63
(lp3593
g56
(g65
g58
NtRp3594
(dp3595
g61
(dp3596
g69
I3
ssg70
Nsg63
(lp3597
g56
(g72
g58
NtRp3598
(dp3599
g61
(dp3600
sg70
g3594
sg63
(lp3601
g56
(g77
g58
NtRp3602
(dp3603
g61
(dp3604
sg70
g3598
sg63
(lp3605
g56
(g57
g58
NtRp3606
(dp3607
g61
(dp3608
g69
I3
ssg70
g3602
sg63
(lp3609
cgluon.languages
lazyT_unpickle
p3610
(S's\x04\x00\x00\x00Home'
tRp3611
asbasbasbag56
(g72
g58
NtRp3612
(dp3613
g61
(dp3614
sg70
g3594
sg63
(lp3615
g56
(g77
g58
NtRp3616
(dp3617
g61
(dp3618
sg70
g3612
sg63
(lp3619
g56
(g57
g58
NtRp3620
(dp3621
g61
(dp3622
g69
I3
ssg70
g3616
sg63
(lp3623
g99
asbasbasbag56
(g72
g58
NtRp3624
(dp3625
g61
(dp3626
sg70
g3594
sg63
(lp3627
g56
(g77
g58
NtRp3628
(dp3629
g61
(dp3630
sg70
g3624
sg63
(lp3631
g56
(g57
g58
NtRp3632
(dp3633
g61
(dp3634
g69
I3
ssg70
g3628
sg63
(lp3635
S'/datos/default/index'
p3636
asbasbasbag56
(g72
g58
NtRp3637
(dp3638
g61
(dp3639
sg70
g3594
sg63
(lp3640
g56
(g77
g58
NtRp3641
(dp3642
g61
(dp3643
sg70
g3637
sg63
(lp3644
g56
(g57
g58
NtRp3645
(dp3646
g61
(dp3647
g69
I3
ssg70
g3641
sg63
(lp3648
g56
(g65
g58
NtRp3649
(dp3650
g61
(dp3651
g69
I2
ssg70
Nsg63
(lp3652
sbasbasbasbasbasbasbasbag56
(g72
g58
NtRp3653
(dp3654
g61
(dp3655
sg70
g3578
sg63
(lp3656
g56
(g77
g58
NtRp3657
(dp3658
g61
(dp3659
sg70
g3653
sg63
(lp3660
g56
(g57
g58
NtRp3661
(dp3662
g61
(dp3663
g69
I4
ssg70
g3657
sg63
(lp3664
g56
(g65
g58
NtRp3665
(dp3666
g61
(dp3667
g69
I3
ssg70
Nsg63
(lp3668
g56
(g72
g58
NtRp3669
(dp3670
g61
(dp3671
sg70
g3665
sg63
(lp3672
g56
(g77
g58
NtRp3673
(dp3674
g61
(dp3675
sg70
g3669
sg63
(lp3676
g56
(g57
g58
NtRp3677
(dp3678
g61
(dp3679
g69
I3
ssg70
g3673
sg63
(lp3680
g3610
(S's\x08\x00\x00\x00This App'
tRp3681
asbasbasbag56
(g72
g58
NtRp3682
(dp3683
g61
(dp3684
sg70
g3665
sg63
(lp3685
g56
(g77
g58
NtRp3686
(dp3687
g61
(dp3688
sg70
g3682
sg63
(lp3689
g56
(g57
g58
NtRp3690
(dp3691
g61
(dp3692
g69
I3
ssg70
g3686
sg63
(lp3693
g99
asbasbasbag56
(g72
g58
NtRp3694
(dp3695
g61
(dp3696
sg70
g3665
sg63
(lp3697
g56
(g77
g58
NtRp3698
(dp3699
g61
(dp3700
sg70
g3694
sg63
(lp3701
g56
(g57
g58
NtRp3702
(dp3703
g61
(dp3704
g69
I3
ssg70
g3698
sg63
(lp3705
S'/admin/default/design/datos'
p3706
asbasbasbag56
(g72
g58
NtRp3707
(dp3708
g61
(dp3709
sg70
g3665
sg63
(lp3710
g56
(g77
g58
NtRp3711
(dp3712
g61
(dp3713
sg70
g3707
sg63
(lp3714
g56
(g57
g58
NtRp3715
(dp3716
g61
(dp3717
g69
I3
ssg70
g3711
sg63
(lp3718
g56
(g65
g58
NtRp3719
(dp3720
g61
(dp3721
g69
I2
ssg70
Nsg63
(lp3722
g56
(g72
g58
NtRp3723
(dp3724
g61
(dp3725
sg70
g3719
sg63
(lp3726
g56
(g77
g58
NtRp3727
(dp3728
g61
(dp3729
sg70
g3723
sg63
(lp3730
g56
(g57
g58
NtRp3731
(dp3732
g61
(dp3733
g69
I2
ssg70
g3727
sg63
(lp3734
g56
(g65
g58
NtRp3735
(dp3736
g61
(dp3737
g69
I1
ssg70
Nsg63
(lp3738
g56
(g72
g58
NtRp3739
(dp3740
g61
(dp3741
sg70
g3735
sg63
(lp3742
g56
(g77
g58
NtRp3743
(dp3744
g61
(dp3745
sg70
g3739
sg63
(lp3746
g56
(g57
g58
NtRp3747
(dp3748
g61
(dp3749
g69
I1
ssg70
g3743
sg63
(lp3750
g3610
(S's\n\x00\x00\x00Controller'
tRp3751
asbasbasbag56
(g72
g58
NtRp3752
(dp3753
g61
(dp3754
sg70
g3735
sg63
(lp3755
g56
(g77
g58
NtRp3756
(dp3757
g61
(dp3758
sg70
g3752
sg63
(lp3759
g56
(g57
g58
NtRp3760
(dp3761
g61
(dp3762
g69
I1
ssg70
g3756
sg63
(lp3763
I00
asbasbasbag56
(g72
g58
NtRp3764
(dp3765
g61
(dp3766
sg70
g3735
sg63
(lp3767
g56
(g77
g58
NtRp3768
(dp3769
g61
(dp3770
sg70
g3764
sg63
(lp3771
g56
(g57
g58
NtRp3772
(dp3773
g61
(dp3774
g69
I1
ssg70
g3768
sg63
(lp3775
S'/admin/default/edit/datos/controllers/default.py'
p3776
asbasbasbasbasbasbasbag56
(g72
g58
NtRp3777
(dp3778
g61
(dp3779
sg70
g3719
sg63
(lp3780
g56
(g77
g58
NtRp3781
(dp3782
g61
(dp3783
sg70
g3777
sg63
(lp3784
g56
(g57
g58
NtRp3785
(dp3786
g61
(dp3787
g69
I2
ssg70
g3781
sg63
(lp3788
g56
(g65
g58
NtRp3789
(dp3790
g61
(dp3791
g69
I1
ssg70
Nsg63
(lp3792
g56
(g72
g58
NtRp3793
(dp3794
g61
(dp3795
sg70
g3789
sg63
(lp3796
g56
(g77
g58
NtRp3797
(dp3798
g61
(dp3799
sg70
g3793
sg63
(lp3800
g56
(g57
g58
NtRp3801
(dp3802
g61
(dp3803
g69
I1
ssg70
g3797
sg63
(lp3804
g3610
(S's\x04\x00\x00\x00View'
tRp3805
asbasbasbag56
(g72
g58
NtRp3806
(dp3807
g61
(dp3808
sg70
g3789
sg63
(lp3809
g56
(g77
g58
NtRp3810
(dp3811
g61
(dp3812
sg70
g3806
sg63
(lp3813
g56
(g57
g58
NtRp3814
(dp3815
g61
(dp3816
g69
I1
ssg70
g3810
sg63
(lp3817
I00
asbasbasbag56
(g72
g58
NtRp3818
(dp3819
g61
(dp3820
sg70
g3789
sg63
(lp3821
g56
(g77
g58
NtRp3822
(dp3823
g61
(dp3824
sg70
g3818
sg63
(lp3825
g56
(g57
g58
NtRp3826
(dp3827
g61
(dp3828
g69
I1
ssg70
g3822
sg63
(lp3829
S'/admin/default/edit/datos/views/default/index.html'
p3830
asbasbasbasbasbasbasbag56
(g72
g58
NtRp3831
(dp3832
g61
(dp3833
sg70
g3719
sg63
(lp3834
g56
(g77
g58
NtRp3835
(dp3836
g61
(dp3837
sg70
g3831
sg63
(lp3838
g56
(g57
g58
NtRp3839
(dp3840
g61
(dp3841
g69
I2
ssg70
g3835
sg63
(lp3842
g56
(g65
g58
NtRp3843
(dp3844
g61
(dp3845
g69
I1
ssg70
Nsg63
(lp3846
g56
(g72
g58
NtRp3847
(dp3848
g61
(dp3849
sg70
g3843
sg63
(lp3850
g56
(g77
g58
NtRp3851
(dp3852
g61
(dp3853
sg70
g3847
sg63
(lp3854
g56
(g57
g58
NtRp3855
(dp3856
g61
(dp3857
g69
I1
ssg70
g3851
sg63
(lp3858
g3610
(S's\x06\x00\x00\x00Layout'
tRp3859
asbasbasbag56
(g72
g58
NtRp3860
(dp3861
g61
(dp3862
sg70
g3843
sg63
(lp3863
g56
(g77
g58
NtRp3864
(dp3865
g61
(dp3866
sg70
g3860
sg63
(lp3867
g56
(g57
g58
NtRp3868
(dp3869
g61
(dp3870
g69
I1
ssg70
g3864
sg63
(lp3871
I00
asbasbasbag56
(g72
g58
NtRp3872
(dp3873
g61
(dp3874
sg70
g3843
sg63
(lp3875
g56
(g77
g58
NtRp3876
(dp3877
g61
(dp3878
sg70
g3872
sg63
(lp3879
g56
(g57
g58
NtRp3880
(dp3881
g61
(dp3882
g69
I1
ssg70
g3876
sg63
(lp3883
S'/admin/default/edit/datos/views/layout.html'
p3884
asbasbasbasbasbasbasbag56
(g72
g58
NtRp3885
(dp3886
g61
(dp3887
sg70
g3719
sg63
(lp3888
g56
(g77
g58
NtRp3889
(dp3890
g61
(dp3891
sg70
g3885
sg63
(lp3892
g56
(g57
g58
NtRp3893
(dp3894
g61
(dp3895
g69
I2
ssg70
g3889
sg63
(lp3896
g56
(g65
g58
NtRp3897
(dp3898
g61
(dp3899
g69
I1
ssg70
Nsg63
(lp3900
g56
(g72
g58
NtRp3901
(dp3902
g61
(dp3903
sg70
g3897
sg63
(lp3904
g56
(g77
g58
NtRp3905
(dp3906
g61
(dp3907
sg70
g3901
sg63
(lp3908
g56
(g57
g58
NtRp3909
(dp3910
g61
(dp3911
g69
I1
ssg70
g3905
sg63
(lp3912
g3610
(S's\n\x00\x00\x00Stylesheet'
tRp3913
asbasbasbag56
(g72
g58
NtRp3914
(dp3915
g61
(dp3916
sg70
g3897
sg63
(lp3917
g56
(g77
g58
NtRp3918
(dp3919
g61
(dp3920
sg70
g3914
sg63
(lp3921
g56
(g57
g58
NtRp3922
(dp3923
g61
(dp3924
g69
I1
ssg70
g3918
sg63
(lp3925
I00
asbasbasbag56
(g72
g58
NtRp3926
(dp3927
g61
(dp3928
sg70
g3897
sg63
(lp3929
g56
(g77
g58
NtRp3930
(dp3931
g61
(dp3932
sg70
g3926
sg63
(lp3933
g56
(g57
g58
NtRp3934
(dp3935
g61
(dp3936
g69
I1
ssg70
g3930
sg63
(lp3937
S'/admin/default/edit/datos/static/base.css'
p3938
asbasbasbasbasbasbasbag56
(g72
g58
NtRp3939
(dp3940
g61
(dp3941
sg70
g3719
sg63
(lp3942
g56
(g77
g58
NtRp3943
(dp3944
g61
(dp3945
sg70
g3939
sg63
(lp3946
g56
(g57
g58
NtRp3947
(dp3948
g61
(dp3949
g69
I2
ssg70
g3943
sg63
(lp3950
g56
(g65
g58
NtRp3951
(dp3952
g61
(dp3953
g69
I1
ssg70
Nsg63
(lp3954
g56
(g72
g58
NtRp3955
(dp3956
g61
(dp3957
sg70
g3951
sg63
(lp3958
g56
(g77
g58
NtRp3959
(dp3960
g61
(dp3961
sg70
g3955
sg63
(lp3962
g56
(g57
g58
NtRp3963
(dp3964
g61
(dp3965
g69
I1
ssg70
g3959
sg63
(lp3966
g3610
(S's\x08\x00\x00\x00DB Model'
tRp3967
asbasbasbag56
(g72
g58
NtRp3968
(dp3969
g61
(dp3970
sg70
g3951
sg63
(lp3971
g56
(g77
g58
NtRp3972
(dp3973
g61
(dp3974
sg70
g3968
sg63
(lp3975
g56
(g57
g58
NtRp3976
(dp3977
g61
(dp3978
g69
I1
ssg70
g3972
sg63
(lp3979
I00
asbasbasbag56
(g72
g58
NtRp3980
(dp3981
g61
(dp3982
sg70
g3951
sg63
(lp3983
g56
(g77
g58
NtRp3984
(dp3985
g61
(dp3986
sg70
g3980
sg63
(lp3987
g56
(g57
g58
NtRp3988
(dp3989
g61
(dp3990
g69
I1
ssg70
g3984
sg63
(lp3991
S'/admin/default/edit/datos/models/db.py'
p3992
asbasbasbasbasbasbasbag56
(g72
g58
NtRp3993
(dp3994
g61
(dp3995
sg70
g3719
sg63
(lp3996
g56
(g77
g58
NtRp3997
(dp3998
g61
(dp3999
sg70
g3993
sg63
(lp4000
g56
(g57
g58
NtRp4001
(dp4002
g61
(dp4003
g69
I2
ssg70
g3997
sg63
(lp4004
g56
(g65
g58
NtRp4005
(dp4006
g61
(dp4007
g69
I1
ssg70
Nsg63
(lp4008
g56
(g72
g58
NtRp4009
(dp4010
g61
(dp4011
sg70
g4005
sg63
(lp4012
g56
(g77
g58
NtRp4013
(dp4014
g61
(dp4015
sg70
g4009
sg63
(lp4016
g56
(g57
g58
NtRp4017
(dp4018
g61
(dp4019
g69
I1
ssg70
g4013
sg63
(lp4020
g3610
(S's\n\x00\x00\x00Menu Model'
tRp4021
asbasbasbag56
(g72
g58
NtRp4022
(dp4023
g61
(dp4024
sg70
g4005
sg63
(lp4025
g56
(g77
g58
NtRp4026
(dp4027
g61
(dp4028
sg70
g4022
sg63
(lp4029
g56
(g57
g58
NtRp4030
(dp4031
g61
(dp4032
g69
I1
ssg70
g4026
sg63
(lp4033
I00
asbasbasbag56
(g72
g58
NtRp4034
(dp4035
g61
(dp4036
sg70
g4005
sg63
(lp4037
g56
(g77
g58
NtRp4038
(dp4039
g61
(dp4040
sg70
g4034
sg63
(lp4041
g56
(g57
g58
NtRp4042
(dp4043
g61
(dp4044
g69
I1
ssg70
g4038
sg63
(lp4045
S'/admin/default/edit/datos/models/menu.py'
p4046
asbasbasbasbasbasbasbag56
(g72
g58
NtRp4047
(dp4048
g61
(dp4049
sg70
g3719
sg63
(lp4050
g56
(g77
g58
NtRp4051
(dp4052
g61
(dp4053
sg70
g4047
sg63
(lp4054
g56
(g57
g58
NtRp4055
(dp4056
g61
(dp4057
g69
I2
ssg70
g4051
sg63
(lp4058
g56
(g65
g58
NtRp4059
(dp4060
g61
(dp4061
g69
I1
ssg70
Nsg63
(lp4062
g56
(g72
g58
NtRp4063
(dp4064
g61
(dp4065
sg70
g4059
sg63
(lp4066
g56
(g77
g58
NtRp4067
(dp4068
g61
(dp4069
sg70
g4063
sg63
(lp4070
g56
(g57
g58
NtRp4071
(dp4072
g61
(dp4073
g69
I1
ssg70
g4067
sg63
(lp4074
g3610
(S's\x08\x00\x00\x00Database'
tRp4075
asbasbasbag56
(g72
g58
NtRp4076
(dp4077
g61
(dp4078
sg70
g4059
sg63
(lp4079
g56
(g77
g58
NtRp4080
(dp4081
g61
(dp4082
sg70
g4076
sg63
(lp4083
g56
(g57
g58
NtRp4084
(dp4085
g61
(dp4086
g69
I1
ssg70
g4080
sg63
(lp4087
I00
asbasbasbag56
(g72
g58
NtRp4088
(dp4089
g61
(dp4090
sg70
g4059
sg63
(lp4091
g56
(g77
g58
NtRp4092
(dp4093
g61
(dp4094
sg70
g4088
sg63
(lp4095
g56
(g57
g58
NtRp4096
(dp4097
g61
(dp4098
g69
I1
ssg70
g4092
sg63
(lp4099
S'/datos/appadmin/index'
p4100
asbasbasbasbasbasbasbag56
(g72
g58
NtRp4101
(dp4102
g61
(dp4103
sg70
g3719
sg63
(lp4104
g56
(g77
g58
NtRp4105
(dp4106
g61
(dp4107
sg70
g4101
sg63
(lp4108
g56
(g57
g58
NtRp4109
(dp4110
g61
(dp4111
g69
I2
ssg70
g4105
sg63
(lp4112
g56
(g65
g58
NtRp4113
(dp4114
g61
(dp4115
g69
I1
ssg70
Nsg63
(lp4116
g56
(g72
g58
NtRp4117
(dp4118
g61
(dp4119
sg70
g4113
sg63
(lp4120
g56
(g77
g58
NtRp4121
(dp4122
g61
(dp4123
sg70
g4117
sg63
(lp4124
g56
(g57
g58
NtRp4125
(dp4126
g61
(dp4127
g69
I1
ssg70
g4121
sg63
(lp4128
g3610
(S's\x06\x00\x00\x00Errors'
tRp4129
asbasbasbag56
(g72
g58
NtRp4130
(dp4131
g61
(dp4132
sg70
g4113
sg63
(lp4133
g56
(g77
g58
NtRp4134
(dp4135
g61
(dp4136
sg70
g4130
sg63
(lp4137
g56
(g57
g58
NtRp4138
(dp4139
g61
(dp4140
g69
I1
ssg70
g4134
sg63
(lp4141
I00
asbasbasbag56
(g72
g58
NtRp4142
(dp4143
g61
(dp4144
sg70
g4113
sg63
(lp4145
g56
(g77
g58
NtRp4146
(dp4147
g61
(dp4148
sg70
g4142
sg63
(lp4149
g56
(g57
g58
NtRp4150
(dp4151
g61
(dp4152
g69
I1
ssg70
g4146
sg63
(lp4153
S'/admin/default/errors/datos'
p4154
asbasbasbasbasbasbasbag56
(g72
g58
NtRp4155
(dp4156
g61
(dp4157
sg70
g3719
sg63
(lp4158
g56
(g77
g58
NtRp4159
(dp4160
g61
(dp4161
sg70
g4155
sg63
(lp4162
g56
(g57
g58
NtRp4163
(dp4164
g61
(dp4165
g69
I2
ssg70
g4159
sg63
(lp4166
g56
(g65
g58
NtRp4167
(dp4168
g61
(dp4169
g69
I1
ssg70
Nsg63
(lp4170
g56
(g72
g58
NtRp4171
(dp4172
g61
(dp4173
sg70
g4167
sg63
(lp4174
g56
(g77
g58
NtRp4175
(dp4176
g61
(dp4177
sg70
g4171
sg63
(lp4178
g56
(g57
g58
NtRp4179
(dp4180
g61
(dp4181
g69
I1
ssg70
g4175
sg63
(lp4182
g3610
(S's\x05\x00\x00\x00About'
tRp4183
asbasbasbag56
(g72
g58
NtRp4184
(dp4185
g61
(dp4186
sg70
g4167
sg63
(lp4187
g56
(g77
g58
NtRp4188
(dp4189
g61
(dp4190
sg70
g4184
sg63
(lp4191
g56
(g57
g58
NtRp4192
(dp4193
g61
(dp4194
g69
I1
ssg70
g4188
sg63
(lp4195
I00
asbasbasbag56
(g72
g58
NtRp4196
(dp4197
g61
(dp4198
sg70
g4167
sg63
(lp4199
g56
(g77
g58
NtRp4200
(dp4201
g61
(dp4202
sg70
g4196
sg63
(lp4203
g56
(g57
g58
NtRp4204
(dp4205
g61
(dp4206
g69
I1
ssg70
g4200
sg63
(lp4207
S'/admin/default/about/datos'
p4208
asbasbasbasbasbasbasbasbasbasbasbasbasbasbasbag56
(g72
g58
NtRp4209
(dp4210
g61
(dp4211
sg70
g3578
sg63
(lp4212
g56
(g77
g58
NtRp4213
(dp4214
g61
(dp4215
sg70
g4209
sg63
(lp4216
g56
(g57
g58
NtRp4217
(dp4218
g61
(dp4219
g69
I4
ssg70
g4213
sg63
(lp4220
g56
(g65
g58
NtRp4221
(dp4222
g61
(dp4223
g69
I3
ssg70
Nsg63
(lp4224
g56
(g72
g58
NtRp4225
(dp4226
g61
(dp4227
sg70
g4221
sg63
(lp4228
g56
(g77
g58
NtRp4229
(dp4230
g61
(dp4231
sg70
g4225
sg63
(lp4232
g56
(g57
g58
NtRp4233
(dp4234
g61
(dp4235
g69
I3
ssg70
g4229
sg63
(lp4236
g3610
(S's\t\x00\x00\x00Resources'
tRp4237
asbasbasbag56
(g72
g58
NtRp4238
(dp4239
g61
(dp4240
sg70
g4221
sg63
(lp4241
g56
(g77
g58
NtRp4242
(dp4243
g61
(dp4244
sg70
g4238
sg63
(lp4245
g56
(g57
g58
NtRp4246
(dp4247
g61
(dp4248
g69
I3
ssg70
g4242
sg63
(lp4249
g99
asbasbasbag56
(g72
g58
NtRp4250
(dp4251
g61
(dp4252
sg70
g4221
sg63
(lp4253
g56
(g77
g58
NtRp4254
(dp4255
g61
(dp4256
sg70
g4250
sg63
(lp4257
g56
(g57
g58
NtRp4258
(dp4259
g61
(dp4260
g69
I3
ssg70
g4254
sg63
(lp4261
S'None'
p4262
asbasbasbag56
(g72
g58
NtRp4263
(dp4264
g61
(dp4265
sg70
g4221
sg63
(lp4266
g56
(g77
g58
NtRp4267
(dp4268
g61
(dp4269
sg70
g4263
sg63
(lp4270
g56
(g57
g58
NtRp4271
(dp4272
g61
(dp4273
g69
I3
ssg70
g4267
sg63
(lp4274
g56
(g65
g58
NtRp4275
(dp4276
g61
(dp4277
g69
I2
ssg70
Nsg63
(lp4278
g56
(g72
g58
NtRp4279
(dp4280
g61
(dp4281
sg70
g4275
sg63
(lp4282
g56
(g77
g58
NtRp4283
(dp4284
g61
(dp4285
sg70
g4279
sg63
(lp4286
g56
(g57
g58
NtRp4287
(dp4288
g61
(dp4289
g69
I2
ssg70
g4283
sg63
(lp4290
g56
(g65
g58
NtRp4291
(dp4292
g61
(dp4293
g69
I1
ssg70
Nsg63
(lp4294
g56
(g72
g58
NtRp4295
(dp4296
g61
(dp4297
sg70
g4291
sg63
(lp4298
g56
(g77
g58
NtRp4299
(dp4300
g61
(dp4301
sg70
g4295
sg63
(lp4302
g56
(g57
g58
NtRp4303
(dp4304
g61
(dp4305
g69
I1
ssg70
g4299
sg63
(lp4306
g3610
(S's\r\x00\x00\x00Documentation'
tRp4307
asbasbasbag56
(g72
g58
NtRp4308
(dp4309
g61
(dp4310
sg70
g4291
sg63
(lp4311
g56
(g77
g58
NtRp4312
(dp4313
g61
(dp4314
sg70
g4308
sg63
(lp4315
g56
(g57
g58
NtRp4316
(dp4317
g61
(dp4318
g69
I1
ssg70
g4312
sg63
(lp4319
I00
asbasbasbag56
(g72
g58
NtRp4320
(dp4321
g61
(dp4322
sg70
g4291
sg63
(lp4323
g56
(g77
g58
NtRp4324
(dp4325
g61
(dp4326
sg70
g4320
sg63
(lp4327
g56
(g57
g58
NtRp4328
(dp4329
g61
(dp4330
g69
I1
ssg70
g4324
sg63
(lp4331
S'http://www.web2py.com/book'
p4332
asbasbasbag56
(g72
g58
NtRp4333
(dp4334
g61
(dp4335
sg70
g4291
sg63
(lp4336
g56
(g77
g58
NtRp4337
(dp4338
g61
(dp4339
sg70
g4333
sg63
(lp4340
g56
(g57
g58
NtRp4341
(dp4342
g61
(dp4343
g69
I1
ssg70
g4337
sg63
(lp4344
(lp4345
(g3610
(S's\x07\x00\x00\x00Preface'
tRp4346
I00
S'http://www.web2py.com/book/default/chapter/00'
tp4347
a(g3610
(S's\x0c\x00\x00\x00Introduction'
tRp4348
I00
S'http://www.web2py.com/book/default/chapter/01'
tp4349
a(g3610
(S's\x06\x00\x00\x00Python'
tRp4350
I00
S'http://www.web2py.com/book/default/chapter/02'
tp4351
a(g3610
(S's\x08\x00\x00\x00Overview'
tRp4352
I00
S'http://www.web2py.com/book/default/chapter/03'
tp4353
a(g3610
(S's\x08\x00\x00\x00The Core'
tRp4354
I00
S'http://www.web2py.com/book/default/chapter/04'
tp4355
a(g3610
(S's\t\x00\x00\x00The Views'
tRp4356
I00
S'http://www.web2py.com/book/default/chapter/05'
tp4357
a(g3610
(S's\x08\x00\x00\x00Database'
tRp4358
I00
S'http://www.web2py.com/book/default/chapter/06'
tp4359
a(g3610
(S's\x14\x00\x00\x00Forms and Validators'
tRp4360
I00
S'http://www.web2py.com/book/default/chapter/07'
tp4361
a(g3610
(S's\x0e\x00\x00\x00Access Control'
tRp4362
I00
S'http://www.web2py.com/book/default/chapter/08'
tp4363
a(g3610
(S's\x08\x00\x00\x00Services'
tRp4364
I00
S'http://www.web2py.com/book/default/chapter/09'
tp4365
a(g3610
(S's\x0c\x00\x00\x00Ajax Recipes'
tRp4366
I00
S'http://www.web2py.com/book/default/chapter/10'
tp4367
a(g3610
(S's\x12\x00\x00\x00Deployment Recipes'
tRp4368
I00
S'http://www.web2py.com/book/default/chapter/11'
tp4369
a(g3610
(S's\r\x00\x00\x00Other Recipes'
tRp4370
I00
S'http://www.web2py.com/book/default/chapter/12'
tp4371
a(g3610
(S's\r\x00\x00\x00Buy this book'
tRp4372
I00
S'http://stores.lulu.com/web2py'
tp4373
aasbasbasbasbasbasbasbag56
(g72
g58
NtRp4374
(dp4375
g61
(dp4376
sg70
g4275
sg63
(lp4377
g56
(g77
g58
NtRp4378
(dp4379
g61
(dp4380
sg70
g4374
sg63
(lp4381
g56
(g57
g58
NtRp4382
(dp4383
g61
(dp4384
g69
I2
ssg70
g4378
sg63
(lp4385
g56
(g65
g58
NtRp4386
(dp4387
g61
(dp4388
g69
I1
ssg70
Nsg63
(lp4389
g56
(g72
g58
NtRp4390
(dp4391
g61
(dp4392
sg70
g4386
sg63
(lp4393
g56
(g77
g58
NtRp4394
(dp4395
g61
(dp4396
sg70
g4390
sg63
(lp4397
g56
(g57
g58
NtRp4398
(dp4399
g61
(dp4400
g69
I1
ssg70
g4394
sg63
(lp4401
g3610
(S's\t\x00\x00\x00Community'
tRp4402
asbasbasbag56
(g72
g58
NtRp4403
(dp4404
g61
(dp4405
sg70
g4386
sg63
(lp4406
g56
(g77
g58
NtRp4407
(dp4408
g61
(dp4409
sg70
g4403
sg63
(lp4410
g56
(g57
g58
NtRp4411
(dp4412
g61
(dp4413
g69
I1
ssg70
g4407
sg63
(lp4414
I00
asbasbasbag56
(g72
g58
NtRp4415
(dp4416
g61
(dp4417
sg70
g4386
sg63
(lp4418
g56
(g77
g58
NtRp4419
(dp4420
g61
(dp4421
sg70
g4415
sg63
(lp4422
g56
(g57
g58
NtRp4423
(dp4424
g61
(dp4425
g69
I1
ssg70
g4419
sg63
(lp4426
Nasbasbasbag56
(g72
g58
NtRp4427
(dp4428
g61
(dp4429
sg70
g4386
sg63
(lp4430
g56
(g77
g58
NtRp4431
(dp4432
g61
(dp4433
sg70
g4427
sg63
(lp4434
g56
(g57
g58
NtRp4435
(dp4436
g61
(dp4437
g69
I1
ssg70
g4431
sg63
(lp4438
(lp4439
(g3610
(S's\x06\x00\x00\x00Groups'
tRp4440
I00
S'http://www.web2py.com/examples/default/usergroups'
tp4441
a(g3610
(S's\x07\x00\x00\x00Twitter'
tRp4442
I00
S'http://twitter.com/web2py'
tp4443
a(g3610
(S's\t\x00\x00\x00Live chat'
tRp4444
I00
S'http://mibbit.com/?channel=%23web2py&server=irc.mibbit.net'
tp4445
a(g3610
(S's\n\x00\x00\x00User Voice'
tRp4446
I00
S'http://web2py.uservoice.com/'
tp4447
aasbasbasbasbasbasbasbag56
(g72
g58
NtRp4448
(dp4449
g61
(dp4450
sg70
g4275
sg63
(lp4451
g56
(g77
g58
NtRp4452
(dp4453
g61
(dp4454
sg70
g4448
sg63
(lp4455
g56
(g57
g58
NtRp4456
(dp4457
g61
(dp4458
g69
I2
ssg70
g4452
sg63
(lp4459
g56
(g65
g58
NtRp4460
(dp4461
g61
(dp4462
g69
I1
ssg70
Nsg63
(lp4463
g56
(g72
g58
NtRp4464
(dp4465
g61
(dp4466
sg70
g4460
sg63
(lp4467
g56
(g77
g58
NtRp4468
(dp4469
g61
(dp4470
sg70
g4464
sg63
(lp4471
g56
(g57
g58
NtRp4472
(dp4473
g61
(dp4474
g69
I1
ssg70
g4468
sg63
(lp4475
g3610
(S's\x06\x00\x00\x00Web2py'
tRp4476
asbasbasbag56
(g72
g58
NtRp4477
(dp4478
g61
(dp4479
sg70
g4460
sg63
(lp4480
g56
(g77
g58
NtRp4481
(dp4482
g61
(dp4483
sg70
g4477
sg63
(lp4484
g56
(g57
g58
NtRp4485
(dp4486
g61
(dp4487
g69
I1
ssg70
g4481
sg63
(lp4488
I00
asbasbasbag56
(g72
g58
NtRp4489
(dp4490
g61
(dp4491
sg70
g4460
sg63
(lp4492
g56
(g77
g58
NtRp4493
(dp4494
g61
(dp4495
sg70
g4489
sg63
(lp4496
g56
(g57
g58
NtRp4497
(dp4498
g61
(dp4499
g69
I1
ssg70
g4493
sg63
(lp4500
S'http://www.web2py.com'
p4501
asbasbasbag56
(g72
g58
NtRp4502
(dp4503
g61
(dp4504
sg70
g4460
sg63
(lp4505
g56
(g77
g58
NtRp4506
(dp4507
g61
(dp4508
sg70
g4502
sg63
(lp4509
g56
(g57
g58
NtRp4510
(dp4511
g61
(dp4512
g69
I1
ssg70
g4506
sg63
(lp4513
(lp4514
(g3610
(S's\x08\x00\x00\x00Download'
tRp4515
I00
S'http://www.web2py.com/examples/default/download'
tp4516
a(g3610
(S's\x07\x00\x00\x00Support'
tRp4517
I00
S'http://www.web2py.com/examples/default/support'
tp4518
a(g3610
(S's\x0e\x00\x00\x00Quick Examples'
tRp4519
I00
S'http://web2py.com/examples/default/examples'
tp4520
a(g3610
(S's\x03\x00\x00\x00FAQ'
tRp4521
I00
S'http://web2py.com/AlterEgo'
tp4522
a(g3610
(S's\x11\x00\x00\x00Free Applications'
tRp4523
I00
S'http://web2py.com/appliances'
tp4524
a(g3610
(S's\x07\x00\x00\x00Plugins'
tRp4525
I00
S'http://web2py.com/plugins'
tp4526
a(g3610
(S's\x07\x00\x00\x00Recipes'
tRp4527
I00
S'http://web2pyslices.com/'
tp4528
a(g3610
(S's\x04\x00\x00\x00Demo'
tRp4529
I00
S'http://web2py.com/demo_admin'
tp4530
a(g3610
(S's\x08\x00\x00\x00Semantic'
tRp4531
I00
S'http://web2py.com/semantic'
tp4532
a(g3610
(S's\x07\x00\x00\x00Layouts'
tRp4533
I00
S'http://web2py.com/layouts'
tp4534
a(g3610
(S's\x06\x00\x00\x00Videos'
tRp4535
I00
S'http://www.web2py.com/examples/default/videos/'
tp4536
aasbasbasbasbasbasbasbasbasbasbasbasbasbasbasbasbasbasbasbag56
(g72
g58
NtRp4537
(dp4538
g61
(dp4539
sg70
g3039
sg63
(lp4540
g56
(g77
g58
NtRp4541
(dp4542
g61
(dp4543
g81
g82
ssg70
g4537
sg63
(lp4544
S'meta'
p4545
asbag56
(g77
g58
NtRp4546
(dp4547
g61
(dp4548
g88
g89
ssg70
g4537
sg63
(lp4549
S':'
asbag56
(g77
g58
NtRp4550
(dp4551
g61
(dp4552
sg70
g4537
sg63
(lp4553
g56
(g57
g58
NtRp4554
(dp4555
g61
(dp4556
g69
I5
ssg70
g4550
sg63
(lp4557
g56
(g65
g58
NtRp4558
(dp4559
g61
(dp4560
g69
I4
ssg70
Nsg63
(lp4561
g56
(g72
g58
NtRp4562
(dp4563
g61
(dp4564
sg70
g4558
sg63
(lp4565
g56
(g77
g58
NtRp4566
(dp4567
g61
(dp4568
g81
g82
ssg70
g4562
sg63
(lp4569
S'author'
p4570
asbag56
(g77
g58
NtRp4571
(dp4572
g61
(dp4573
g88
g89
ssg70
g4562
sg63
(lp4574
S':'
asbag56
(g77
g58
NtRp4575
(dp4576
g61
(dp4577
sg70
g4562
sg63
(lp4578
g56
(g57
g58
NtRp4579
(dp4580
g61
(dp4581
g69
I4
ssg70
g4575
sg63
(lp4582
S'you'
p4583
asbasbasbag56
(g72
g58
NtRp4584
(dp4585
g61
(dp4586
sg70
g4558
sg63
(lp4587
g56
(g77
g58
NtRp4588
(dp4589
g61
(dp4590
g81
g82
ssg70
g4584
sg63
(lp4591
S'copyright'
p4592
asbag56
(g77
g58
NtRp4593
(dp4594
g61
(dp4595
g88
g89
ssg70
g4584
sg63
(lp4596
S':'
asbag56
(g77
g58
NtRp4597
(dp4598
g61
(dp4599
sg70
g4584
sg63
(lp4600
g56
(g57
g58
NtRp4601
(dp4602
g61
(dp4603
g69
I4
ssg70
g4597
sg63
(lp4604
S'Copyright 2007-2010'
p4605
asbasbasbag56
(g72
g58
NtRp4606
(dp4607
g61
(dp4608
sg70
g4558
sg63
(lp4609
g56
(g77
g58
NtRp4610
(dp4611
g61
(dp4612
g81
g82
ssg70
g4606
sg63
(lp4613
S'description'
p4614
asbag56
(g77
g58
NtRp4615
(dp4616
g61
(dp4617
g88
g89
ssg70
g4606
sg63
(lp4618
S':'
asbag56
(g77
g58
NtRp4619
(dp4620
g61
(dp4621
sg70
g4606
sg63
(lp4622
g56
(g57
g58
NtRp4623
(dp4624
g61
(dp4625
g69
I4
ssg70
g4619
sg63
(lp4626
S'Free and open source full-stack enterprise framework for agile development of fast, scalable, secure and portable database-driven web-based applications. Written and programmable in Python'
p4627
asbasbasbag56
(g72
g58
NtRp4628
(dp4629
g61
(dp4630
sg70
g4558
sg63
(lp4631
g56
(g77
g58
NtRp4632
(dp4633
g61
(dp4634
g81
g82
ssg70
g4628
sg63
(lp4635
S'generator'
p4636
asbag56
(g77
g58
NtRp4637
(dp4638
g61
(dp4639
g88
g89
ssg70
g4628
sg63
(lp4640
S':'
asbag56
(g77
g58
NtRp4641
(dp4642
g61
(dp4643
sg70
g4628
sg63
(lp4644
g56
(g57
g58
NtRp4645
(dp4646
g61
(dp4647
g69
I4
ssg70
g4641
sg63
(lp4648
S'Web2py Enterprise Framework'
p4649
asbasbasbag56
(g72
g58
NtRp4650
(dp4651
g61
(dp4652
sg70
g4558
sg63
(lp4653
g56
(g77
g58
NtRp4654
(dp4655
g61
(dp4656
g81
g82
ssg70
g4650
sg63
(lp4657
S'keywords'
p4658
asbag56
(g77
g58
NtRp4659
(dp4660
g61
(dp4661
g88
g89
ssg70
g4650
sg63
(lp4662
S':'
asbag56
(g77
g58
NtRp4663
(dp4664
g61
(dp4665
sg70
g4650
sg63
(lp4666
g56
(g57
g58
NtRp4667
(dp4668
g61
(dp4669
g69
I4
ssg70
g4663
sg63
(lp4670
S'web2py, python, framework'
p4671
asbasbasbasbasbasbasbag56
(g72
g58
NtRp4672
(dp4673
g61
(dp4674
sg70
g3039
sg63
(lp4675
g56
(g77
g58
NtRp4676
(dp4677
g61
(dp4678
g81
g82
ssg70
g4672
sg63
(lp4679
S'postprocessing'
p4680
asbag56
(g77
g58
NtRp4681
(dp4682
g61
(dp4683
g88
g89
ssg70
g4672
sg63
(lp4684
S':'
asbag56
(g77
g58
NtRp4685
(dp4686
g61
(dp4687
sg70
g4672
sg63
(lp4688
g56
(g57
g58
NtRp4689
(dp4690
g61
(dp4691
g69
I5
ssg70
g4685
sg63
(lp4692
g56
(g65
g58
NtRp4693
(dp4694
g61
(dp4695
g69
I4
ssg70
Nsg63
(lp4696
sbasbasbasbag56
(g72
g58
NtRp4697
(dp4698
g61
(dp4699
sg70
g3039
sg63
(lp4700
g56
(g77
g58
NtRp4701
(dp4702
g61
(dp4703
g81
g82
ssg70
g4697
sg63
(lp4704
S'session_file'
p4705
asbag56
(g77
g58
NtRp4706
(dp4707
g61
(dp4708
g88
g89
ssg70
g4697
sg63
(lp4709
S':'
asbag56
(g77
g58
NtRp4710
(dp4711
g61
(dp4712
sg70
g4697
sg63
(lp4713
g56
(g57
g58
NtRp4714
(dp4715
g61
(dp4716
g69
I5
ssg70
g4710
sg63
(lp4717
S"<open file '/home/alumno/web2py/applications/datos/sessions/127.0.0.1-db62c583-5264-4eba-ba24-7cb87b43795a', mode 'rb+' at 0x97070d0>"
p4718
asbasbasbag56
(g72
g58
NtRp4719
(dp4720
g61
(dp4721
sg70
g3039
sg63
(lp4722
g56
(g77
g58
NtRp4723
(dp4724
g61
(dp4725
g81
g82
ssg70
g4719
sg63
(lp4726
S'session_filename'
p4727
asbag56
(g77
g58
NtRp4728
(dp4729
g61
(dp4730
g88
g89
ssg70
g4719
sg63
(lp4731
S':'
asbag56
(g77
g58
NtRp4732
(dp4733
g61
(dp4734
sg70
g4719
sg63
(lp4735
g56
(g57
g58
NtRp4736
(dp4737
g61
(dp4738
g69
I5
ssg70
g4732
sg63
(lp4739
S'/home/alumno/web2py/applications/datos/sessions/127.0.0.1-db62c583-5264-4eba-ba24-7cb87b43795a'
p4740
asbasbasbag56
(g72
g58
NtRp4741
(dp4742
g61
(dp4743
sg70
g3039
sg63
(lp4744
g56
(g77
g58
NtRp4745
(dp4746
g61
(dp4747
g81
g82
ssg70
g4741
sg63
(lp4748
S'session_id'
p4749
asbag56
(g77
g58
NtRp4750
(dp4751
g61
(dp4752
g88
g89
ssg70
g4741
sg63
(lp4753
S':'
asbag56
(g77
g58
NtRp4754
(dp4755
g61
(dp4756
sg70
g4741
sg63
(lp4757
g56
(g57
g58
NtRp4758
(dp4759
g61
(dp4760
g69
I5
ssg70
g4754
sg63
(lp4761
S'127.0.0.1-db62c583-5264-4eba-ba24-7cb87b43795a'
p4762
asbasbasbag56
(g72
g58
NtRp4763
(dp4764
g61
(dp4765
sg70
g3039
sg63
(lp4766
g56
(g77
g58
NtRp4767
(dp4768
g61
(dp4769
g81
g82
ssg70
g4763
sg63
(lp4770
S'session_id_name'
p4771
asbag56
(g77
g58
NtRp4772
(dp4773
g61
(dp4774
g88
g89
ssg70
g4763
sg63
(lp4775
S':'
asbag56
(g77
g58
NtRp4776
(dp4777
g61
(dp4778
sg70
g4763
sg63
(lp4779
g56
(g57
g58
NtRp4780
(dp4781
g61
(dp4782
g69
I5
ssg70
g4776
sg63
(lp4783
g3096
asbasbasbag56
(g72
g58
NtRp4784
(dp4785
g61
(dp4786
sg70
g3039
sg63
(lp4787
g56
(g77
g58
NtRp4788
(dp4789
g61
(dp4790
g81
g82
ssg70
g4784
sg63
(lp4791
S'session_locked'
p4792
asbag56
(g77
g58
NtRp4793
(dp4794
g61
(dp4795
g88
g89
ssg70
g4784
sg63
(lp4796
S':'
asbag56
(g77
g58
NtRp4797
(dp4798
g61
(dp4799
sg70
g4784
sg63
(lp4800
g56
(g57
g58
NtRp4801
(dp4802
g61
(dp4803
g69
I5
ssg70
g4797
sg63
(lp4804
g1960
asbasbasbag56
(g72
g58
NtRp4805
(dp4806
g61
(dp4807
sg70
g3039
sg63
(lp4808
g56
(g77
g58
NtRp4809
(dp4810
g61
(dp4811
g81
g82
ssg70
g4805
sg63
(lp4812
S'session_new'
p4813
asbag56
(g77
g58
NtRp4814
(dp4815
g61
(dp4816
g88
g89
ssg70
g4805
sg63
(lp4817
S':'
asbag56
(g77
g58
NtRp4818
(dp4819
g61
(dp4820
sg70
g4805
sg63
(lp4821
g56
(g57
g58
NtRp4822
(dp4823
g61
(dp4824
g69
I5
ssg70
g4818
sg63
(lp4825
g99
asbasbasbag56
(g72
g58
NtRp4826
(dp4827
g61
(dp4828
sg70
g3039
sg63
(lp4829
g56
(g77
g58
NtRp4830
(dp4831
g61
(dp4832
g81
g82
ssg70
g4826
sg63
(lp4833
S'status'
p4834
asbag56
(g77
g58
NtRp4835
(dp4836
g61
(dp4837
g88
g89
ssg70
g4826
sg63
(lp4838
S':'
asbag56
(g77
g58
NtRp4839
(dp4840
g61
(dp4841
sg70
g4826
sg63
(lp4842
g56
(g57
g58
NtRp4843
(dp4844
g61
(dp4845
g69
I5
ssg70
g4839
sg63
(lp4846
S'200'
p4847
asbasbasbag56
(g72
g58
NtRp4848
(dp4849
g61
(dp4850
sg70
g3039
sg63
(lp4851
g56
(g77
g58
NtRp4852
(dp4853
g61
(dp4854
g81
g82
ssg70
g4848
sg63
(lp4855
S'subtitle'
p4856
asbag56
(g77
g58
NtRp4857
(dp4858
g61
(dp4859
g88
g89
ssg70
g4848
sg63
(lp4860
S':'
asbag56
(g77
g58
NtRp4861
(dp4862
g61
(dp4863
sg70
g4848
sg63
(lp4864
g56
(g57
g58
NtRp4865
(dp4866
g61
(dp4867
g69
I5
ssg70
g4861
sg63
(lp4868
g3610
(S's\r\x00\x00\x00customize me!'
tRp4869
asbasbasbag56
(g72
g58
NtRp4870
(dp4871
g61
(dp4872
sg70
g3039
sg63
(lp4873
g56
(g77
g58
NtRp4874
(dp4875
g61
(dp4876
g81
g82
ssg70
g4870
sg63
(lp4877
S'title'
p4878
asbag56
(g77
g58
NtRp4879
(dp4880
g61
(dp4881
g88
g89
ssg70
g4870
sg63
(lp4882
S':'
asbag56
(g77
g58
NtRp4883
(dp4884
g61
(dp4885
sg70
g4870
sg63
(lp4886
g56
(g57
g58
NtRp4887
(dp4888
g61
(dp4889
g69
I5
ssg70
g4883
sg63
(lp4890
g121
asbasbasbag56
(g72
g58
NtRp4891
(dp4892
g61
(dp4893
sg70
g3039
sg63
(lp4894
g56
(g77
g58
NtRp4895
(dp4896
g61
(dp4897
g81
g82
ssg70
g4891
sg63
(lp4898
g2284
asbag56
(g77
g58
NtRp4899
(dp4900
g61
(dp4901
g88
g89
ssg70
g4891
sg63
(lp4902
S':'
asbag56
(g77
g58
NtRp4903
(dp4904
g61
(dp4905
sg70
g4891
sg63
(lp4906
g56
(g57
g58
NtRp4907
(dp4908
g61
(dp4909
g69
I5
ssg70
g4903
sg63
(lp4910
g2297
asbasbasbag56
(g72
g58
NtRp4911
(dp4912
g61
(dp4913
sg70
g3039
sg63
(lp4914
g56
(g77
g58
NtRp4915
(dp4916
g61
(dp4917
g81
g82
ssg70
g4911
sg63
(lp4918
S'view'
p4919
asbag56
(g77
g58
NtRp4920
(dp4921
g61
(dp4922
g88
g89
ssg70
g4911
sg63
(lp4923
S':'
asbag56
(g77
g58
NtRp4924
(dp4925
g61
(dp4926
sg70
g4911
sg63
(lp4927
g56
(g57
g58
NtRp4928
(dp4929
g61
(dp4930
g69
I5
ssg70
g4924
sg63
(lp4931
S'default/index.html'
p4932
asbasbasbasbasbsS'locals'
p4933
(dp4934
S'OBJECT'
p4935
S"<class 'gluon.html.OBJECT'>"
p4936
sS'_file'
p4937
S"'/datos/static/js/superfish.js'"
p4938
sS'SQLDB'
p4939
S"<class 'gluon.dal.DAL'>"
p4940
sg2999
S"<Storage {'last_query': 'db.profesor.id>0', '_Se...mno/1]': '0a0a702b-1797-4003-b3f0-be5df862215a'}>"
p4941
sS'LINK'
p4942
S"<class 'gluon.html.LINK'>"
p4943
sS'BR'
p4944
S"<class 'gluon.html.BR'>"
p4945
sS'local_import'
p4946
S'<function <lambda>>'
p4947
sS'OPTGROUP'
p4948
S"<class 'gluon.html.OPTGROUP'>"
p4949
sS'PRE'
p4950
S"<class 'gluon.html.PRE'>"
p4951
sS'IS_INT_IN_RANGE'
p4952
S"<class 'gluon.validators.IS_INT_IN_RANGE'>"
p4953
sS'left_sidebar_enabled'
p4954
g99
sS'IS_LOWER'
p4955
S"<class 'gluon.validators.IS_LOWER'>"
p4956
sS'IS_STRONG'
p4957
S"<class 'gluon.validators.IS_STRONG'>"
p4958
sS'cache'
p4959
S'<gluon.cache.Cache object>'
p4960
sS'IS_IN_DB'
p4961
S"<class 'gluon.validators.IS_IN_DB'>"
p4962
sS'TAG'
p4963
S'<gluon.html.__TAG__ object>'
p4964
sS'_k'
p4965
S'5'
sS'SQLField'
p4966
S"<class 'gluon.dal.Field'>"
p4967
sS'BODY'
p4968
S"<class 'gluon.html.BODY'>"
p4969
sS'IS_DATE_IN_RANGE'
p4970
S"<class 'gluon.validators.IS_DATE_IN_RANGE'>"
p4971
sS'TH'
p4972
S"<class 'gluon.html.TH'>"
p4973
sS'URL'
p4974
S'<function URL>'
p4975
sS'__file__'
p4976
S"'/home/alumno/web2py/applications/datos/views/default/index.html'"
p4977
sS'db'
p4978
S"<DAL {'_migrate_enabled': True, '_lastsql': 'SEL...'_uri_hash': 'eb1dad4d662ce09be948e804719cfbad'}>"
p4979
sS'P'
S"<class 'gluon.html.P'>"
p4980
sS'TFOOT'
p4981
S"<class 'gluon.html.TFOOT'>"
p4982
sS'XHTML'
p4983
S"<class 'gluon.html.XHTML'>"
p4984
sS'ON'
p4985
g1960
sS'OL'
p4986
S"<class 'gluon.html.OL'>"
p4987
sS'TEXTAREA'
p4988
S"<class 'gluon.html.TEXTAREA'>"
p4989
sS'MENU'
p4990
S"<class 'gluon.html.MENU'>"
p4991
sS'_file0'
p4992
S"'/datos/static/js/superfish.js'"
p4993
sS'LOAD'
p4994
S'<gluon.compileapp.LoadFactory object>'
p4995
sS'CODE'
p4996
S"<class 'gluon.html.CODE'>"
p4997
sS'HTTP'
p4998
S"<class 'gluon.http.HTTP'>"
p4999
sS'HR'
p5000
S"<class 'gluon.html.HR'>"
p5001
sS'IS_DATETIME'
p5002
S"<class 'gluon.validators.IS_DATETIME'>"
p5003
sS'HEAD'
p5004
S"<class 'gluon.html.HEAD'>"
p5005
sS'LABEL'
p5006
S"<class 'gluon.html.LABEL'>"
p5007
sS'CLEANUP'
p5008
S"<class 'gluon.validators.CLEANUP'>"
p5009
sS'SELECT'
p5010
S"<class 'gluon.html.SELECT'>"
p5011
sS'CENTER'
p5012
S"<class 'gluon.html.CENTER'>"
p5013
sS'left_sidebar_style'
p5014
S'\'style="display: none;"\''
p5015
sS'alumnos'
p5016
S'<gluon.dal.Rows object>'
p5017
sS'__builtins__'
p5018
S"{'ArithmeticError': <type 'exceptions.ArithmeticError'>, 'AssertionError': <type 'exceptions.AssertionError'>, 'AttributeError': <type 'exceptions.AttributeError'>, 'BaseException': <type 'exceptions.BaseException'>, 'BufferError': <type 'exceptions.BufferError'>, 'BytesWarning': <type 'exceptions.BytesWarning'>, 'DeprecationWarning': <type 'exceptions.DeprecationWarning'>, 'EOFError': <type 'exceptions.EOFError'>, 'Ellipsis': Ellipsis, 'EnvironmentError': <type 'exceptions.EnvironmentError'>, ...}"
p5019
sS'IS_LIST_OF'
p5020
S"<class 'gluon.validators.IS_LIST_OF'>"
p5021
sS'SQLFORM'
p5022
S"<class 'gluon.sqlhtml.SQLFORM'>"
p5023
sS'_item'
p5024
S"'author'"
p5025
sS'EM'
p5026
S"<class 'gluon.html.EM'>"
p5027
sS'redirect'
p5028
S'<function redirect>'
p5029
sS'FIELDSET'
p5030
S"<class 'gluon.html.FIELDSET'>"
p5031
sS'IS_EQUAL_TO'
p5032
S"<class 'gluon.validators.IS_EQUAL_TO'>"
p5033
sS'embed64'
p5034
S'<function embed64>'
p5035
sS'INPUT'
p5036
S"<class 'gluon.html.INPUT'>"
p5037
sS'EMBED'
p5038
S"<class 'gluon.html.EMBED'>"
p5039
sS'FORM'
p5040
S"<class 'gluon.html.FORM'>"
p5041
sS'width_content'
p5042
S"'100%'"
p5043
sS'H2'
p5044
S"<class 'gluon.html.H2'>"
p5045
sS'H3'
p5046
S"<class 'gluon.html.H3'>"
p5047
sS'BUTTON'
p5048
S"<class 'gluon.html.BUTTON'>"
p5049
sS'H1'
p5050
S"<class 'gluon.html.H1'>"
p5051
sS'H6'
p5052
S"<class 'gluon.html.H6'>"
p5053
sS'H4'
p5054
S"<class 'gluon.html.H4'>"
p5055
sS'H5'
p5056
S"<class 'gluon.html.H5'>"
p5057
sS'UL'
p5058
S"<class 'gluon.html.UL'>"
p5059
sS'IS_UPPER'
p5060
S"<class 'gluon.validators.IS_UPPER'>"
p5061
sS'xmlescape'
p5062
S'<function xmlescape>'
p5063
sS'IS_TIME'
p5064
S"<class 'gluon.validators.IS_TIME'>"
p5065
sS'OPTION'
p5066
S"<class 'gluon.html.OPTION'>"
p5067
sS'TITLE'
p5068
S"<class 'gluon.html.TITLE'>"
p5069
sS'CRYPT'
p5070
S"<class 'gluon.validators.CRYPT'>"
p5071
sS'IS_EMPTY_OR'
p5072
S"<class 'gluon.validators.IS_EMPTY_OR'>"
p5073
sS'MARKMIN'
p5074
S"<class 'gluon.html.MARKMIN'>"
p5075
sS'SCRIPT'
p5076
S"<class 'gluon.html.SCRIPT'>"
p5077
sS'TABLE'
p5078
S"<class 'gluon.html.TABLE'>"
p5079
sS'IS_IPV4'
p5080
S"<class 'gluon.validators.IS_IPV4'>"
p5081
sS'IS_LENGTH'
p5082
S"<class 'gluon.validators.IS_LENGTH'>"
p5083
sS'XML'
p5084
S"<class 'gluon.html.XML'>"
p5085
sS'B'
S"<class 'gluon.html.B'>"
p5086
sS'IMG'
p5087
S"<class 'gluon.html.IMG'>"
p5088
sS'SQLTABLE'
p5089
S"<class 'gluon.sqlhtml.SQLTABLE'>"
p5090
sS'IS_MATCH'
p5091
S"<class 'gluon.validators.IS_MATCH'>"
p5092
sS'IS_ALPHANUMERIC'
p5093
S"<class 'gluon.validators.IS_ALPHANUMERIC'>"
p5094
sS'SPAN'
p5095
S"<class 'gluon.html.SPAN'>"
p5096
sS'IS_SLUG'
p5097
S"<class 'gluon.validators.IS_SLUG'>"
p5098
sS'BEAUTIFY'
p5099
S"<class 'gluon.html.BEAUTIFY'>"
p5100
sS'META'
p5101
S"<class 'gluon.html.META'>"
p5102
sS'IS_DATE'
p5103
S"<class 'gluon.validators.IS_DATE'>"
p5104
sS'IS_EMAIL'
p5105
S"<class 'gluon.validators.IS_EMAIL'>"
p5106
sS'IS_NOT_EMPTY'
p5107
S"<class 'gluon.validators.IS_NOT_EMPTY'>"
p5108
sg55
S"<Storage {'is_local': True, 'function': 'index',....20-16-33.3bab5a59-ebe3-44ab-bb00-bebcc0ac115e'}>"
p5109
sS'TBODY'
p5110
S"<class 'gluon.html.TBODY'>"
p5111
sS'CAT'
p5112
S"<class 'gluon.html.CAT'>"
p5113
sS'Field'
p5114
S"<class 'gluon.dal.Field'>"
p5115
sS'DIV'
p5116
S"<class 'gluon.html.DIV'>"
p5117
sS'LEGEND'
p5118
S"<class 'gluon.html.LEGEND'>"
p5119
sS'DAL'
p5120
S"<class 'gluon.dal.DAL'>"
p5121
sS'TT'
p5122
S"<class 'gluon.html.TT'>"
p5123
sS'TR'
p5124
S"<class 'gluon.html.TR'>"
p5125
sS'LI'
p5126
S"<class 'gluon.html.LI'>"
p5127
sS'right_sidebar_enabled'
p5128
g99
sS'IFRAME'
p5129
S"<class 'gluon.html.IFRAME'>"
p5130
sS'TD'
p5131
S"<class 'gluon.html.TD'>"
p5132
sS'IS_URL'
p5133
S"<class 'gluon.validators.IS_URL'>"
p5134
sS'A'
S"<class 'gluon.html.A'>"
p5135
sS'STYLE'
p5136
S"<class 'gluon.html.STYLE'>"
p5137
sS'IS_DATETIME_IN_RANGE'
p5138
S"<class 'gluon.validators.IS_DATETIME_IN_RANGE'>"
p5139
sS'HTML'
p5140
S"<class 'gluon.html.HTML'>"
p5141
sS'IS_IMAGE'
p5142
S"<class 'gluon.validators.IS_IMAGE'>"
p5143
sS'I'
S"<class 'gluon.html.I'>"
p5144
sS'right_sidebar_style'
p5145
S'\'style="display: none;"\''
p5146
sS'IS_NOT_IN_DB'
p5147
S"<class 'gluon.validators.IS_NOT_IN_DB'>"
p5148
sg3034
S"<Storage {'body': <cStringIO.StringO object at 0...da> at 0x9c4925c>, 'view': 'default/index.html'}>"
p5149
sS'THEAD'
p5150
S"<class 'gluon.html.THEAD'>"
p5151
sS'IS_NULL_OR'
p5152
S"<class 'gluon.validators.IS_EMPTY_OR'>"
p5153
sS'alumno'
p5154
S"<Row {'update_record': <function <lambda> at 0xa...elete_record': <function <lambda> at 0xa31f224>}>"
p5155
sS'IS_FLOAT_IN_RANGE'
p5156
S"<class 'gluon.validators.IS_FLOAT_IN_RANGE'>"
p5157
sS'IS_EXPR'
p5158
S"<class 'gluon.validators.IS_EXPR'>"
p5159
sS'T'
S'<gluon.languages.translator object>'
p5160
sS'IS_IN_SET'
p5161
S"<class 'gluon.validators.IS_IN_SET'>"
p5162
sS'IS_UPLOAD_FILENAME'
p5163
S"<class 'gluon.validators.IS_UPLOAD_FILENAME'>"
p5164
sS'style_content'
p5165
S'\'style="width: 100%"\''
p5166
sS'IS_DECIMAL_IN_RANGE'
p5167
S"<class 'gluon.validators.IS_DECIMAL_IN_RANGE'>"
p5168
sssS'traceback'
p5169
S'Traceback (most recent call last):\n  File "/home/alumno/web2py/gluon/restricted.py", line 192, in restricted\n    exec ccode in environment\n  File "/home/alumno/web2py/applications/datos/views/default/index.html", line 115, in <module>\nNameError: name \'profesores\' is not defined\n'
p5170
s.