(dp1
S'output'
p2
S''
sS'layer'
p3
S'/home/alumno/web2py/applications/datos/models/db.py'
p4
sS'code'
p5
S"# -*- coding: utf-8 -*-\n\ndb = DAL('sqlite://datos.db');\n# definimos la base de datos \ndb.define_table('alumno',Field('codigo'),\n\t\t\t\t\t\tField('nombres'),\n\t\t\t\t\t\tField('apellidos'),\n\t\t\t\t\t\tField('fnacimiento','date'),\n\t\t\t\t\t\tField('email'),\n\t\t\t\t\t\tField('hobby','text'))\n.alumno.codigo.requires = IS_NOT_EMPTY(error_message='no puede estar vacio')\n.alumno.nombres.requires = IS_LENGTH(20,error_message='no mas de 20')\n.alumno.apellidos.requires = IS_ALPHANUMERIC()\n.alumno.fnacimiento.requires = IS_DATE('%Y-%m-%d')\n.alumno.email.requires = IS_EMAIL()\n.alumno.hobby.default = 'Estudiar :P'\n"
p6
sS'snapshot'
p7
(dp8
S'exception'
p9
(dp10
S'__getslice__'
p11
S"<method-wrapper '__getslice__' of exceptions.SyntaxError object>"
p12
sS'text'
p13
S'".alumno.codigo.requires = IS_NOT_EMPTY(error_message=\'no puede estar vacio\')\\n"'
p14
sS'__str__'
p15
S"<method-wrapper '__str__' of exceptions.SyntaxError object>"
p16
sS'__reduce__'
p17
S'<built-in method __reduce__ of exceptions.SyntaxError object>'
p18
sS'__dict__'
p19
S'{}'
p20
sS'__sizeof__'
p21
S'<built-in method __sizeof__ of exceptions.SyntaxError object>'
p22
sS'__init__'
p23
S"<method-wrapper '__init__' of exceptions.SyntaxError object>"
p24
sS'__setattr__'
p25
S"<method-wrapper '__setattr__' of exceptions.SyntaxError object>"
p26
sS'__reduce_ex__'
p27
S'<built-in method __reduce_ex__ of exceptions.SyntaxError object>'
p28
sS'__new__'
p29
S'<built-in method __new__ of type object>'
p30
sS'__format__'
p31
S'<built-in method __format__ of exceptions.SyntaxError object>'
p32
sS'__class__'
p33
S"<type 'exceptions.SyntaxError'>"
p34
sS'filename'
p35
S"'/home/alumno/web2py/applications/datos/models/db.py'"
p36
sS'lineno'
p37
S'11'
p38
sS'msg'
p39
S"'invalid syntax'"
p40
sS'__doc__'
p41
S"'Invalid syntax.'"
p42
sS'__getitem__'
p43
S"<method-wrapper '__getitem__' of exceptions.SyntaxError object>"
p44
sS'__setstate__'
p45
S'<built-in method __setstate__ of exceptions.SyntaxError object>'
p46
sS'__getattribute__'
p47
S"<method-wrapper '__getattribute__' of exceptions.SyntaxError object>"
p48
sS'print_file_and_line'
p49
S'None'
p50
sS'args'
p51
S'(\'invalid syntax\', (\'/home/alumno/web2py/applications/datos/models/db.py\', 11, 1, ".alumno.codigo.requires = IS_NOT_EMPTY(error_message=\'no puede estar vacio\')\\n"))'
p52
sS'__subclasshook__'
p53
S'<built-in method __subclasshook__ of type object>'
p54
sS'offset'
p55
S'1'
sS'__unicode__'
p56
S'<built-in method __unicode__ of exceptions.SyntaxError object>'
p57
sS'__delattr__'
p58
S"<method-wrapper '__delattr__' of exceptions.SyntaxError object>"
p59
sS'__repr__'
p60
S"<method-wrapper '__repr__' of exceptions.SyntaxError object>"
p61
sS'__hash__'
p62
S"<method-wrapper '__hash__' of exceptions.SyntaxError object>"
p63
ssS'evalue'
p64
S'invalid syntax (db.py, line 11)'
p65
sS'request'
p66
ccopy_reg
_reconstructor
p67
(cgluon.html
BEAUTIFY
p68
c__builtin__
object
p69
NtRp70
(dp71
S'attributes'
p72
(dp73
sS'components'
p74
(lp75
g67
(cgluon.html
TABLE
p76
g69
NtRp77
(dp78
g72
(dp79
S'level'
p80
I5
ssS'parent'
p81
Nsg74
(lp82
g67
(cgluon.html
TR
p83
g69
NtRp84
(dp85
g72
(dp86
sg81
g77
sg74
(lp87
g67
(cgluon.html
TD
p88
g69
NtRp89
(dp90
g72
(dp91
S'_style'
p92
S'font-weight:bold;'
p93
ssg81
g84
sg74
(lp94
S'ajax'
p95
asbag67
(g88
g69
NtRp96
(dp97
g72
(dp98
S'_valign'
p99
S'top'
p100
ssg81
g84
sg74
(lp101
S':'
asbag67
(g88
g69
NtRp102
(dp103
g72
(dp104
sg81
g84
sg74
(lp105
g67
(g68
g69
NtRp106
(dp107
g72
(dp108
g80
I5
ssg81
g102
sg74
(lp109
S'False'
p110
asbasbasbag67
(g83
g69
NtRp111
(dp112
g72
(dp113
sg81
g77
sg74
(lp114
g67
(g88
g69
NtRp115
(dp116
g72
(dp117
g92
g93
ssg81
g111
sg74
(lp118
S'application'
p119
asbag67
(g88
g69
NtRp120
(dp121
g72
(dp122
g99
g100
ssg81
g111
sg74
(lp123
S':'
asbag67
(g88
g69
NtRp124
(dp125
g72
(dp126
sg81
g111
sg74
(lp127
g67
(g68
g69
NtRp128
(dp129
g72
(dp130
g80
I5
ssg81
g124
sg74
(lp131
S'datos'
p132
asbasbasbag67
(g83
g69
NtRp133
(dp134
g72
(dp135
sg81
g77
sg74
(lp136
g67
(g88
g69
NtRp137
(dp138
g72
(dp139
g92
g93
ssg81
g133
sg74
(lp140
g51
asbag67
(g88
g69
NtRp141
(dp142
g72
(dp143
g99
g100
ssg81
g133
sg74
(lp144
S':'
asbag67
(g88
g69
NtRp145
(dp146
g72
(dp147
sg81
g133
sg74
(lp148
g67
(g68
g69
NtRp149
(dp150
g72
(dp151
g80
I5
ssg81
g145
sg74
(lp152
g67
(g76
g69
NtRp153
(dp154
g72
(dp155
g80
I4
ssg81
Nsg74
(lp156
g67
(g83
g69
NtRp157
(dp158
g72
(dp159
sg81
g153
sg74
(lp160
g67
(g88
g69
NtRp161
(dp162
g72
(dp163
sg81
g157
sg74
(lp164
g67
(g68
g69
NtRp165
(dp166
g72
(dp167
g80
I4
ssg81
g161
sg74
(lp168
S'db'
p169
asbasbasbag67
(g83
g69
NtRp170
(dp171
g72
(dp172
sg81
g153
sg74
(lp173
g67
(g88
g69
NtRp174
(dp175
g72
(dp176
sg81
g170
sg74
(lp177
g67
(g68
g69
NtRp178
(dp179
g72
(dp180
g80
I4
ssg81
g174
sg74
(lp181
S'alumno'
p182
asbasbasbasbasbasbasbag67
(g83
g69
NtRp183
(dp184
g72
(dp185
sg81
g77
sg74
(lp186
g67
(g88
g69
NtRp187
(dp188
g72
(dp189
g92
g93
ssg81
g183
sg74
(lp190
S'body'
p191
asbag67
(g88
g69
NtRp192
(dp193
g72
(dp194
g99
g100
ssg81
g183
sg74
(lp195
S':'
asbag67
(g88
g69
NtRp196
(dp197
g72
(dp198
sg81
g183
sg74
(lp199
g67
(g68
g69
NtRp200
(dp201
g72
(dp202
g80
I5
ssg81
g196
sg74
(lp203
S"<open file '<fdopen>', mode 'w+b' at 0xa325128>"
p204
asbasbasbag67
(g83
g69
NtRp205
(dp206
g72
(dp207
sg81
g77
sg74
(lp208
g67
(g88
g69
NtRp209
(dp210
g72
(dp211
g92
g93
ssg81
g205
sg74
(lp212
S'client'
p213
asbag67
(g88
g69
NtRp214
(dp215
g72
(dp216
g99
g100
ssg81
g205
sg74
(lp217
S':'
asbag67
(g88
g69
NtRp218
(dp219
g72
(dp220
sg81
g205
sg74
(lp221
g67
(g68
g69
NtRp222
(dp223
g72
(dp224
g80
I5
ssg81
g218
sg74
(lp225
S'127.0.0.1'
p226
asbasbasbag67
(g83
g69
NtRp227
(dp228
g72
(dp229
sg81
g77
sg74
(lp230
g67
(g88
g69
NtRp231
(dp232
g72
(dp233
g92
g93
ssg81
g227
sg74
(lp234
S'controller'
p235
asbag67
(g88
g69
NtRp236
(dp237
g72
(dp238
g99
g100
ssg81
g227
sg74
(lp239
S':'
asbag67
(g88
g69
NtRp240
(dp241
g72
(dp242
sg81
g227
sg74
(lp243
g67
(g68
g69
NtRp244
(dp245
g72
(dp246
g80
I5
ssg81
g240
sg74
(lp247
S'appadmin'
p248
asbasbasbag67
(g83
g69
NtRp249
(dp250
g72
(dp251
sg81
g77
sg74
(lp252
g67
(g88
g69
NtRp253
(dp254
g72
(dp255
g92
g93
ssg81
g249
sg74
(lp256
S'cookies'
p257
asbag67
(g88
g69
NtRp258
(dp259
g72
(dp260
g99
g100
ssg81
g249
sg74
(lp261
S':'
asbag67
(g88
g69
NtRp262
(dp263
g72
(dp264
sg81
g249
sg74
(lp265
g67
(g68
g69
NtRp266
(dp267
g72
(dp268
g80
I5
ssg81
g262
sg74
(lp269
g67
(g76
g69
NtRp270
(dp271
g72
(dp272
g80
I4
ssg81
Nsg74
(lp273
g67
(g83
g69
NtRp274
(dp275
g72
(dp276
sg81
g270
sg74
(lp277
g67
(g88
g69
NtRp278
(dp279
g72
(dp280
g92
g93
ssg81
g274
sg74
(lp281
S'adminLanguage'
p282
asbag67
(g88
g69
NtRp283
(dp284
g72
(dp285
g99
g100
ssg81
g274
sg74
(lp286
S':'
asbag67
(g88
g69
NtRp287
(dp288
g72
(dp289
sg81
g274
sg74
(lp290
g67
(g68
g69
NtRp291
(dp292
g72
(dp293
g80
I4
ssg81
g287
sg74
(lp294
g67
(g76
g69
NtRp295
(dp296
g72
(dp297
g80
I3
ssg81
Nsg74
(lp298
g67
(g83
g69
NtRp299
(dp300
g72
(dp301
sg81
g295
sg74
(lp302
g67
(g88
g69
NtRp303
(dp304
g72
(dp305
g92
g93
ssg81
g299
sg74
(lp306
S'comment'
p307
asbag67
(g88
g69
NtRp308
(dp309
g72
(dp310
g99
g100
ssg81
g299
sg74
(lp311
S':'
asbag67
(g88
g69
NtRp312
(dp313
g72
(dp314
sg81
g299
sg74
(lp315
g67
(g68
g69
NtRp316
(dp317
g72
(dp318
g80
I3
ssg81
g312
sg74
(lp319
S''
asbasbasbag67
(g83
g69
NtRp320
(dp321
g72
(dp322
sg81
g295
sg74
(lp323
g67
(g88
g69
NtRp324
(dp325
g72
(dp326
g92
g93
ssg81
g320
sg74
(lp327
S'domain'
p328
asbag67
(g88
g69
NtRp329
(dp330
g72
(dp331
g99
g100
ssg81
g320
sg74
(lp332
S':'
asbag67
(g88
g69
NtRp333
(dp334
g72
(dp335
sg81
g320
sg74
(lp336
g67
(g68
g69
NtRp337
(dp338
g72
(dp339
g80
I3
ssg81
g333
sg74
(lp340
S''
asbasbasbag67
(g83
g69
NtRp341
(dp342
g72
(dp343
sg81
g295
sg74
(lp344
g67
(g88
g69
NtRp345
(dp346
g72
(dp347
g92
g93
ssg81
g341
sg74
(lp348
S'expires'
p349
asbag67
(g88
g69
NtRp350
(dp351
g72
(dp352
g99
g100
ssg81
g341
sg74
(lp353
S':'
asbag67
(g88
g69
NtRp354
(dp355
g72
(dp356
sg81
g341
sg74
(lp357
g67
(g68
g69
NtRp358
(dp359
g72
(dp360
g80
I3
ssg81
g354
sg74
(lp361
S''
asbasbasbag67
(g83
g69
NtRp362
(dp363
g72
(dp364
sg81
g295
sg74
(lp365
g67
(g88
g69
NtRp366
(dp367
g72
(dp368
g92
g93
ssg81
g362
sg74
(lp369
S'httponly'
p370
asbag67
(g88
g69
NtRp371
(dp372
g72
(dp373
g99
g100
ssg81
g362
sg74
(lp374
S':'
asbag67
(g88
g69
NtRp375
(dp376
g72
(dp377
sg81
g362
sg74
(lp378
g67
(g68
g69
NtRp379
(dp380
g72
(dp381
g80
I3
ssg81
g375
sg74
(lp382
S''
asbasbasbag67
(g83
g69
NtRp383
(dp384
g72
(dp385
sg81
g295
sg74
(lp386
g67
(g88
g69
NtRp387
(dp388
g72
(dp389
g92
g93
ssg81
g383
sg74
(lp390
S'max-age'
p391
asbag67
(g88
g69
NtRp392
(dp393
g72
(dp394
g99
g100
ssg81
g383
sg74
(lp395
S':'
asbag67
(g88
g69
NtRp396
(dp397
g72
(dp398
sg81
g383
sg74
(lp399
g67
(g68
g69
NtRp400
(dp401
g72
(dp402
g80
I3
ssg81
g396
sg74
(lp403
S''
asbasbasbag67
(g83
g69
NtRp404
(dp405
g72
(dp406
sg81
g295
sg74
(lp407
g67
(g88
g69
NtRp408
(dp409
g72
(dp410
g92
g93
ssg81
g404
sg74
(lp411
S'path'
p412
asbag67
(g88
g69
NtRp413
(dp414
g72
(dp415
g99
g100
ssg81
g404
sg74
(lp416
S':'
asbag67
(g88
g69
NtRp417
(dp418
g72
(dp419
sg81
g404
sg74
(lp420
g67
(g68
g69
NtRp421
(dp422
g72
(dp423
g80
I3
ssg81
g417
sg74
(lp424
S''
asbasbasbag67
(g83
g69
NtRp425
(dp426
g72
(dp427
sg81
g295
sg74
(lp428
g67
(g88
g69
NtRp429
(dp430
g72
(dp431
g92
g93
ssg81
g425
sg74
(lp432
S'secure'
p433
asbag67
(g88
g69
NtRp434
(dp435
g72
(dp436
g99
g100
ssg81
g425
sg74
(lp437
S':'
asbag67
(g88
g69
NtRp438
(dp439
g72
(dp440
sg81
g425
sg74
(lp441
g67
(g68
g69
NtRp442
(dp443
g72
(dp444
g80
I3
ssg81
g438
sg74
(lp445
S''
asbasbasbag67
(g83
g69
NtRp446
(dp447
g72
(dp448
sg81
g295
sg74
(lp449
g67
(g88
g69
NtRp450
(dp451
g72
(dp452
g92
g93
ssg81
g446
sg74
(lp453
S'version'
p454
asbag67
(g88
g69
NtRp455
(dp456
g72
(dp457
g99
g100
ssg81
g446
sg74
(lp458
S':'
asbag67
(g88
g69
NtRp459
(dp460
g72
(dp461
sg81
g446
sg74
(lp462
g67
(g68
g69
NtRp463
(dp464
g72
(dp465
g80
I3
ssg81
g459
sg74
(lp466
S''
asbasbasbasbasbasbasbag67
(g83
g69
NtRp467
(dp468
g72
(dp469
sg81
g270
sg74
(lp470
g67
(g88
g69
NtRp471
(dp472
g72
(dp473
g92
g93
ssg81
g467
sg74
(lp474
S'session_id_admin'
p475
asbag67
(g88
g69
NtRp476
(dp477
g72
(dp478
g99
g100
ssg81
g467
sg74
(lp479
S':'
asbag67
(g88
g69
NtRp480
(dp481
g72
(dp482
sg81
g467
sg74
(lp483
g67
(g68
g69
NtRp484
(dp485
g72
(dp486
g80
I4
ssg81
g480
sg74
(lp487
g67
(g76
g69
NtRp488
(dp489
g72
(dp490
g80
I3
ssg81
Nsg74
(lp491
g67
(g83
g69
NtRp492
(dp493
g72
(dp494
sg81
g488
sg74
(lp495
g67
(g88
g69
NtRp496
(dp497
g72
(dp498
g92
g93
ssg81
g492
sg74
(lp499
g307
asbag67
(g88
g69
NtRp500
(dp501
g72
(dp502
g99
g100
ssg81
g492
sg74
(lp503
S':'
asbag67
(g88
g69
NtRp504
(dp505
g72
(dp506
sg81
g492
sg74
(lp507
g67
(g68
g69
NtRp508
(dp509
g72
(dp510
g80
I3
ssg81
g504
sg74
(lp511
S''
asbasbasbag67
(g83
g69
NtRp512
(dp513
g72
(dp514
sg81
g488
sg74
(lp515
g67
(g88
g69
NtRp516
(dp517
g72
(dp518
g92
g93
ssg81
g512
sg74
(lp519
g328
asbag67
(g88
g69
NtRp520
(dp521
g72
(dp522
g99
g100
ssg81
g512
sg74
(lp523
S':'
asbag67
(g88
g69
NtRp524
(dp525
g72
(dp526
sg81
g512
sg74
(lp527
g67
(g68
g69
NtRp528
(dp529
g72
(dp530
g80
I3
ssg81
g524
sg74
(lp531
S''
asbasbasbag67
(g83
g69
NtRp532
(dp533
g72
(dp534
sg81
g488
sg74
(lp535
g67
(g88
g69
NtRp536
(dp537
g72
(dp538
g92
g93
ssg81
g532
sg74
(lp539
g349
asbag67
(g88
g69
NtRp540
(dp541
g72
(dp542
g99
g100
ssg81
g532
sg74
(lp543
S':'
asbag67
(g88
g69
NtRp544
(dp545
g72
(dp546
sg81
g532
sg74
(lp547
g67
(g68
g69
NtRp548
(dp549
g72
(dp550
g80
I3
ssg81
g544
sg74
(lp551
S''
asbasbasbag67
(g83
g69
NtRp552
(dp553
g72
(dp554
sg81
g488
sg74
(lp555
g67
(g88
g69
NtRp556
(dp557
g72
(dp558
g92
g93
ssg81
g552
sg74
(lp559
g370
asbag67
(g88
g69
NtRp560
(dp561
g72
(dp562
g99
g100
ssg81
g552
sg74
(lp563
S':'
asbag67
(g88
g69
NtRp564
(dp565
g72
(dp566
sg81
g552
sg74
(lp567
g67
(g68
g69
NtRp568
(dp569
g72
(dp570
g80
I3
ssg81
g564
sg74
(lp571
S''
asbasbasbag67
(g83
g69
NtRp572
(dp573
g72
(dp574
sg81
g488
sg74
(lp575
g67
(g88
g69
NtRp576
(dp577
g72
(dp578
g92
g93
ssg81
g572
sg74
(lp579
g391
asbag67
(g88
g69
NtRp580
(dp581
g72
(dp582
g99
g100
ssg81
g572
sg74
(lp583
S':'
asbag67
(g88
g69
NtRp584
(dp585
g72
(dp586
sg81
g572
sg74
(lp587
g67
(g68
g69
NtRp588
(dp589
g72
(dp590
g80
I3
ssg81
g584
sg74
(lp591
S''
asbasbasbag67
(g83
g69
NtRp592
(dp593
g72
(dp594
sg81
g488
sg74
(lp595
g67
(g88
g69
NtRp596
(dp597
g72
(dp598
g92
g93
ssg81
g592
sg74
(lp599
g412
asbag67
(g88
g69
NtRp600
(dp601
g72
(dp602
g99
g100
ssg81
g592
sg74
(lp603
S':'
asbag67
(g88
g69
NtRp604
(dp605
g72
(dp606
sg81
g592
sg74
(lp607
g67
(g68
g69
NtRp608
(dp609
g72
(dp610
g80
I3
ssg81
g604
sg74
(lp611
S''
asbasbasbag67
(g83
g69
NtRp612
(dp613
g72
(dp614
sg81
g488
sg74
(lp615
g67
(g88
g69
NtRp616
(dp617
g72
(dp618
g92
g93
ssg81
g612
sg74
(lp619
g433
asbag67
(g88
g69
NtRp620
(dp621
g72
(dp622
g99
g100
ssg81
g612
sg74
(lp623
S':'
asbag67
(g88
g69
NtRp624
(dp625
g72
(dp626
sg81
g612
sg74
(lp627
g67
(g68
g69
NtRp628
(dp629
g72
(dp630
g80
I3
ssg81
g624
sg74
(lp631
S''
asbasbasbag67
(g83
g69
NtRp632
(dp633
g72
(dp634
sg81
g488
sg74
(lp635
g67
(g88
g69
NtRp636
(dp637
g72
(dp638
g92
g93
ssg81
g632
sg74
(lp639
g454
asbag67
(g88
g69
NtRp640
(dp641
g72
(dp642
g99
g100
ssg81
g632
sg74
(lp643
S':'
asbag67
(g88
g69
NtRp644
(dp645
g72
(dp646
sg81
g632
sg74
(lp647
g67
(g68
g69
NtRp648
(dp649
g72
(dp650
g80
I3
ssg81
g644
sg74
(lp651
S''
asbasbasbasbasbasbasbag67
(g83
g69
NtRp652
(dp653
g72
(dp654
sg81
g270
sg74
(lp655
g67
(g88
g69
NtRp656
(dp657
g72
(dp658
g92
g93
ssg81
g652
sg74
(lp659
S'session_id_datos'
p660
asbag67
(g88
g69
NtRp661
(dp662
g72
(dp663
g99
g100
ssg81
g652
sg74
(lp664
S':'
asbag67
(g88
g69
NtRp665
(dp666
g72
(dp667
sg81
g652
sg74
(lp668
g67
(g68
g69
NtRp669
(dp670
g72
(dp671
g80
I4
ssg81
g665
sg74
(lp672
g67
(g76
g69
NtRp673
(dp674
g72
(dp675
g80
I3
ssg81
Nsg74
(lp676
g67
(g83
g69
NtRp677
(dp678
g72
(dp679
sg81
g673
sg74
(lp680
g67
(g88
g69
NtRp681
(dp682
g72
(dp683
g92
g93
ssg81
g677
sg74
(lp684
g307
asbag67
(g88
g69
NtRp685
(dp686
g72
(dp687
g99
g100
ssg81
g677
sg74
(lp688
S':'
asbag67
(g88
g69
NtRp689
(dp690
g72
(dp691
sg81
g677
sg74
(lp692
g67
(g68
g69
NtRp693
(dp694
g72
(dp695
g80
I3
ssg81
g689
sg74
(lp696
S''
asbasbasbag67
(g83
g69
NtRp697
(dp698
g72
(dp699
sg81
g673
sg74
(lp700
g67
(g88
g69
NtRp701
(dp702
g72
(dp703
g92
g93
ssg81
g697
sg74
(lp704
g328
asbag67
(g88
g69
NtRp705
(dp706
g72
(dp707
g99
g100
ssg81
g697
sg74
(lp708
S':'
asbag67
(g88
g69
NtRp709
(dp710
g72
(dp711
sg81
g697
sg74
(lp712
g67
(g68
g69
NtRp713
(dp714
g72
(dp715
g80
I3
ssg81
g709
sg74
(lp716
S''
asbasbasbag67
(g83
g69
NtRp717
(dp718
g72
(dp719
sg81
g673
sg74
(lp720
g67
(g88
g69
NtRp721
(dp722
g72
(dp723
g92
g93
ssg81
g717
sg74
(lp724
g349
asbag67
(g88
g69
NtRp725
(dp726
g72
(dp727
g99
g100
ssg81
g717
sg74
(lp728
S':'
asbag67
(g88
g69
NtRp729
(dp730
g72
(dp731
sg81
g717
sg74
(lp732
g67
(g68
g69
NtRp733
(dp734
g72
(dp735
g80
I3
ssg81
g729
sg74
(lp736
S''
asbasbasbag67
(g83
g69
NtRp737
(dp738
g72
(dp739
sg81
g673
sg74
(lp740
g67
(g88
g69
NtRp741
(dp742
g72
(dp743
g92
g93
ssg81
g737
sg74
(lp744
g370
asbag67
(g88
g69
NtRp745
(dp746
g72
(dp747
g99
g100
ssg81
g737
sg74
(lp748
S':'
asbag67
(g88
g69
NtRp749
(dp750
g72
(dp751
sg81
g737
sg74
(lp752
g67
(g68
g69
NtRp753
(dp754
g72
(dp755
g80
I3
ssg81
g749
sg74
(lp756
S''
asbasbasbag67
(g83
g69
NtRp757
(dp758
g72
(dp759
sg81
g673
sg74
(lp760
g67
(g88
g69
NtRp761
(dp762
g72
(dp763
g92
g93
ssg81
g757
sg74
(lp764
g391
asbag67
(g88
g69
NtRp765
(dp766
g72
(dp767
g99
g100
ssg81
g757
sg74
(lp768
S':'
asbag67
(g88
g69
NtRp769
(dp770
g72
(dp771
sg81
g757
sg74
(lp772
g67
(g68
g69
NtRp773
(dp774
g72
(dp775
g80
I3
ssg81
g769
sg74
(lp776
S''
asbasbasbag67
(g83
g69
NtRp777
(dp778
g72
(dp779
sg81
g673
sg74
(lp780
g67
(g88
g69
NtRp781
(dp782
g72
(dp783
g92
g93
ssg81
g777
sg74
(lp784
g412
asbag67
(g88
g69
NtRp785
(dp786
g72
(dp787
g99
g100
ssg81
g777
sg74
(lp788
S':'
asbag67
(g88
g69
NtRp789
(dp790
g72
(dp791
sg81
g777
sg74
(lp792
g67
(g68
g69
NtRp793
(dp794
g72
(dp795
g80
I3
ssg81
g789
sg74
(lp796
S''
asbasbasbag67
(g83
g69
NtRp797
(dp798
g72
(dp799
sg81
g673
sg74
(lp800
g67
(g88
g69
NtRp801
(dp802
g72
(dp803
g92
g93
ssg81
g797
sg74
(lp804
g433
asbag67
(g88
g69
NtRp805
(dp806
g72
(dp807
g99
g100
ssg81
g797
sg74
(lp808
S':'
asbag67
(g88
g69
NtRp809
(dp810
g72
(dp811
sg81
g797
sg74
(lp812
g67
(g68
g69
NtRp813
(dp814
g72
(dp815
g80
I3
ssg81
g809
sg74
(lp816
S''
asbasbasbag67
(g83
g69
NtRp817
(dp818
g72
(dp819
sg81
g673
sg74
(lp820
g67
(g88
g69
NtRp821
(dp822
g72
(dp823
g92
g93
ssg81
g817
sg74
(lp824
g454
asbag67
(g88
g69
NtRp825
(dp826
g72
(dp827
g99
g100
ssg81
g817
sg74
(lp828
S':'
asbag67
(g88
g69
NtRp829
(dp830
g72
(dp831
sg81
g817
sg74
(lp832
g67
(g68
g69
NtRp833
(dp834
g72
(dp835
g80
I3
ssg81
g829
sg74
(lp836
S''
asbasbasbasbasbasbasbag67
(g83
g69
NtRp837
(dp838
g72
(dp839
sg81
g270
sg74
(lp840
g67
(g88
g69
NtRp841
(dp842
g72
(dp843
g92
g93
ssg81
g837
sg74
(lp844
S'session_id_my_web'
p845
asbag67
(g88
g69
NtRp846
(dp847
g72
(dp848
g99
g100
ssg81
g837
sg74
(lp849
S':'
asbag67
(g88
g69
NtRp850
(dp851
g72
(dp852
sg81
g837
sg74
(lp853
g67
(g68
g69
NtRp854
(dp855
g72
(dp856
g80
I4
ssg81
g850
sg74
(lp857
g67
(g76
g69
NtRp858
(dp859
g72
(dp860
g80
I3
ssg81
Nsg74
(lp861
g67
(g83
g69
NtRp862
(dp863
g72
(dp864
sg81
g858
sg74
(lp865
g67
(g88
g69
NtRp866
(dp867
g72
(dp868
g92
g93
ssg81
g862
sg74
(lp869
g307
asbag67
(g88
g69
NtRp870
(dp871
g72
(dp872
g99
g100
ssg81
g862
sg74
(lp873
S':'
asbag67
(g88
g69
NtRp874
(dp875
g72
(dp876
sg81
g862
sg74
(lp877
g67
(g68
g69
NtRp878
(dp879
g72
(dp880
g80
I3
ssg81
g874
sg74
(lp881
S''
asbasbasbag67
(g83
g69
NtRp882
(dp883
g72
(dp884
sg81
g858
sg74
(lp885
g67
(g88
g69
NtRp886
(dp887
g72
(dp888
g92
g93
ssg81
g882
sg74
(lp889
g328
asbag67
(g88
g69
NtRp890
(dp891
g72
(dp892
g99
g100
ssg81
g882
sg74
(lp893
S':'
asbag67
(g88
g69
NtRp894
(dp895
g72
(dp896
sg81
g882
sg74
(lp897
g67
(g68
g69
NtRp898
(dp899
g72
(dp900
g80
I3
ssg81
g894
sg74
(lp901
S''
asbasbasbag67
(g83
g69
NtRp902
(dp903
g72
(dp904
sg81
g858
sg74
(lp905
g67
(g88
g69
NtRp906
(dp907
g72
(dp908
g92
g93
ssg81
g902
sg74
(lp909
g349
asbag67
(g88
g69
NtRp910
(dp911
g72
(dp912
g99
g100
ssg81
g902
sg74
(lp913
S':'
asbag67
(g88
g69
NtRp914
(dp915
g72
(dp916
sg81
g902
sg74
(lp917
g67
(g68
g69
NtRp918
(dp919
g72
(dp920
g80
I3
ssg81
g914
sg74
(lp921
S''
asbasbasbag67
(g83
g69
NtRp922
(dp923
g72
(dp924
sg81
g858
sg74
(lp925
g67
(g88
g69
NtRp926
(dp927
g72
(dp928
g92
g93
ssg81
g922
sg74
(lp929
g370
asbag67
(g88
g69
NtRp930
(dp931
g72
(dp932
g99
g100
ssg81
g922
sg74
(lp933
S':'
asbag67
(g88
g69
NtRp934
(dp935
g72
(dp936
sg81
g922
sg74
(lp937
g67
(g68
g69
NtRp938
(dp939
g72
(dp940
g80
I3
ssg81
g934
sg74
(lp941
S''
asbasbasbag67
(g83
g69
NtRp942
(dp943
g72
(dp944
sg81
g858
sg74
(lp945
g67
(g88
g69
NtRp946
(dp947
g72
(dp948
g92
g93
ssg81
g942
sg74
(lp949
g391
asbag67
(g88
g69
NtRp950
(dp951
g72
(dp952
g99
g100
ssg81
g942
sg74
(lp953
S':'
asbag67
(g88
g69
NtRp954
(dp955
g72
(dp956
sg81
g942
sg74
(lp957
g67
(g68
g69
NtRp958
(dp959
g72
(dp960
g80
I3
ssg81
g954
sg74
(lp961
S''
asbasbasbag67
(g83
g69
NtRp962
(dp963
g72
(dp964
sg81
g858
sg74
(lp965
g67
(g88
g69
NtRp966
(dp967
g72
(dp968
g92
g93
ssg81
g962
sg74
(lp969
g412
asbag67
(g88
g69
NtRp970
(dp971
g72
(dp972
g99
g100
ssg81
g962
sg74
(lp973
S':'
asbag67
(g88
g69
NtRp974
(dp975
g72
(dp976
sg81
g962
sg74
(lp977
g67
(g68
g69
NtRp978
(dp979
g72
(dp980
g80
I3
ssg81
g974
sg74
(lp981
S''
asbasbasbag67
(g83
g69
NtRp982
(dp983
g72
(dp984
sg81
g858
sg74
(lp985
g67
(g88
g69
NtRp986
(dp987
g72
(dp988
g92
g93
ssg81
g982
sg74
(lp989
g433
asbag67
(g88
g69
NtRp990
(dp991
g72
(dp992
g99
g100
ssg81
g982
sg74
(lp993
S':'
asbag67
(g88
g69
NtRp994
(dp995
g72
(dp996
sg81
g982
sg74
(lp997
g67
(g68
g69
NtRp998
(dp999
g72
(dp1000
g80
I3
ssg81
g994
sg74
(lp1001
S''
asbasbasbag67
(g83
g69
NtRp1002
(dp1003
g72
(dp1004
sg81
g858
sg74
(lp1005
g67
(g88
g69
NtRp1006
(dp1007
g72
(dp1008
g92
g93
ssg81
g1002
sg74
(lp1009
g454
asbag67
(g88
g69
NtRp1010
(dp1011
g72
(dp1012
g99
g100
ssg81
g1002
sg74
(lp1013
S':'
asbag67
(g88
g69
NtRp1014
(dp1015
g72
(dp1016
sg81
g1002
sg74
(lp1017
g67
(g68
g69
NtRp1018
(dp1019
g72
(dp1020
g80
I3
ssg81
g1014
sg74
(lp1021
S''
asbasbasbasbasbasbasbag67
(g83
g69
NtRp1022
(dp1023
g72
(dp1024
sg81
g270
sg74
(lp1025
g67
(g88
g69
NtRp1026
(dp1027
g72
(dp1028
g92
g93
ssg81
g1022
sg74
(lp1029
S'session_id_welcome'
p1030
asbag67
(g88
g69
NtRp1031
(dp1032
g72
(dp1033
g99
g100
ssg81
g1022
sg74
(lp1034
S':'
asbag67
(g88
g69
NtRp1035
(dp1036
g72
(dp1037
sg81
g1022
sg74
(lp1038
g67
(g68
g69
NtRp1039
(dp1040
g72
(dp1041
g80
I4
ssg81
g1035
sg74
(lp1042
g67
(g76
g69
NtRp1043
(dp1044
g72
(dp1045
g80
I3
ssg81
Nsg74
(lp1046
g67
(g83
g69
NtRp1047
(dp1048
g72
(dp1049
sg81
g1043
sg74
(lp1050
g67
(g88
g69
NtRp1051
(dp1052
g72
(dp1053
g92
g93
ssg81
g1047
sg74
(lp1054
g307
asbag67
(g88
g69
NtRp1055
(dp1056
g72
(dp1057
g99
g100
ssg81
g1047
sg74
(lp1058
S':'
asbag67
(g88
g69
NtRp1059
(dp1060
g72
(dp1061
sg81
g1047
sg74
(lp1062
g67
(g68
g69
NtRp1063
(dp1064
g72
(dp1065
g80
I3
ssg81
g1059
sg74
(lp1066
S''
asbasbasbag67
(g83
g69
NtRp1067
(dp1068
g72
(dp1069
sg81
g1043
sg74
(lp1070
g67
(g88
g69
NtRp1071
(dp1072
g72
(dp1073
g92
g93
ssg81
g1067
sg74
(lp1074
g328
asbag67
(g88
g69
NtRp1075
(dp1076
g72
(dp1077
g99
g100
ssg81
g1067
sg74
(lp1078
S':'
asbag67
(g88
g69
NtRp1079
(dp1080
g72
(dp1081
sg81
g1067
sg74
(lp1082
g67
(g68
g69
NtRp1083
(dp1084
g72
(dp1085
g80
I3
ssg81
g1079
sg74
(lp1086
S''
asbasbasbag67
(g83
g69
NtRp1087
(dp1088
g72
(dp1089
sg81
g1043
sg74
(lp1090
g67
(g88
g69
NtRp1091
(dp1092
g72
(dp1093
g92
g93
ssg81
g1087
sg74
(lp1094
g349
asbag67
(g88
g69
NtRp1095
(dp1096
g72
(dp1097
g99
g100
ssg81
g1087
sg74
(lp1098
S':'
asbag67
(g88
g69
NtRp1099
(dp1100
g72
(dp1101
sg81
g1087
sg74
(lp1102
g67
(g68
g69
NtRp1103
(dp1104
g72
(dp1105
g80
I3
ssg81
g1099
sg74
(lp1106
S''
asbasbasbag67
(g83
g69
NtRp1107
(dp1108
g72
(dp1109
sg81
g1043
sg74
(lp1110
g67
(g88
g69
NtRp1111
(dp1112
g72
(dp1113
g92
g93
ssg81
g1107
sg74
(lp1114
g370
asbag67
(g88
g69
NtRp1115
(dp1116
g72
(dp1117
g99
g100
ssg81
g1107
sg74
(lp1118
S':'
asbag67
(g88
g69
NtRp1119
(dp1120
g72
(dp1121
sg81
g1107
sg74
(lp1122
g67
(g68
g69
NtRp1123
(dp1124
g72
(dp1125
g80
I3
ssg81
g1119
sg74
(lp1126
S''
asbasbasbag67
(g83
g69
NtRp1127
(dp1128
g72
(dp1129
sg81
g1043
sg74
(lp1130
g67
(g88
g69
NtRp1131
(dp1132
g72
(dp1133
g92
g93
ssg81
g1127
sg74
(lp1134
g391
asbag67
(g88
g69
NtRp1135
(dp1136
g72
(dp1137
g99
g100
ssg81
g1127
sg74
(lp1138
S':'
asbag67
(g88
g69
NtRp1139
(dp1140
g72
(dp1141
sg81
g1127
sg74
(lp1142
g67
(g68
g69
NtRp1143
(dp1144
g72
(dp1145
g80
I3
ssg81
g1139
sg74
(lp1146
S''
asbasbasbag67
(g83
g69
NtRp1147
(dp1148
g72
(dp1149
sg81
g1043
sg74
(lp1150
g67
(g88
g69
NtRp1151
(dp1152
g72
(dp1153
g92
g93
ssg81
g1147
sg74
(lp1154
g412
asbag67
(g88
g69
NtRp1155
(dp1156
g72
(dp1157
g99
g100
ssg81
g1147
sg74
(lp1158
S':'
asbag67
(g88
g69
NtRp1159
(dp1160
g72
(dp1161
sg81
g1147
sg74
(lp1162
g67
(g68
g69
NtRp1163
(dp1164
g72
(dp1165
g80
I3
ssg81
g1159
sg74
(lp1166
S''
asbasbasbag67
(g83
g69
NtRp1167
(dp1168
g72
(dp1169
sg81
g1043
sg74
(lp1170
g67
(g88
g69
NtRp1171
(dp1172
g72
(dp1173
g92
g93
ssg81
g1167
sg74
(lp1174
g433
asbag67
(g88
g69
NtRp1175
(dp1176
g72
(dp1177
g99
g100
ssg81
g1167
sg74
(lp1178
S':'
asbag67
(g88
g69
NtRp1179
(dp1180
g72
(dp1181
sg81
g1167
sg74
(lp1182
g67
(g68
g69
NtRp1183
(dp1184
g72
(dp1185
g80
I3
ssg81
g1179
sg74
(lp1186
S''
asbasbasbag67
(g83
g69
NtRp1187
(dp1188
g72
(dp1189
sg81
g1043
sg74
(lp1190
g67
(g88
g69
NtRp1191
(dp1192
g72
(dp1193
g92
g93
ssg81
g1187
sg74
(lp1194
g454
asbag67
(g88
g69
NtRp1195
(dp1196
g72
(dp1197
g99
g100
ssg81
g1187
sg74
(lp1198
S':'
asbag67
(g88
g69
NtRp1199
(dp1200
g72
(dp1201
sg81
g1187
sg74
(lp1202
g67
(g68
g69
NtRp1203
(dp1204
g72
(dp1205
g80
I3
ssg81
g1199
sg74
(lp1206
S''
asbasbasbasbasbasbasbasbasbasbasbag67
(g83
g69
NtRp1207
(dp1208
g72
(dp1209
sg81
g77
sg74
(lp1210
g67
(g88
g69
NtRp1211
(dp1212
g72
(dp1213
g92
g93
ssg81
g1207
sg74
(lp1214
S'env'
p1215
asbag67
(g88
g69
NtRp1216
(dp1217
g72
(dp1218
g99
g100
ssg81
g1207
sg74
(lp1219
S':'
asbag67
(g88
g69
NtRp1220
(dp1221
g72
(dp1222
sg81
g1207
sg74
(lp1223
g67
(g68
g69
NtRp1224
(dp1225
g72
(dp1226
g80
I5
ssg81
g1220
sg74
(lp1227
g67
(g76
g69
NtRp1228
(dp1229
g72
(dp1230
g80
I4
ssg81
Nsg74
(lp1231
g67
(g83
g69
NtRp1232
(dp1233
g72
(dp1234
sg81
g1228
sg74
(lp1235
g67
(g88
g69
NtRp1236
(dp1237
g72
(dp1238
g92
g93
ssg81
g1232
sg74
(lp1239
S'app_folders'
p1240
asbag67
(g88
g69
NtRp1241
(dp1242
g72
(dp1243
g99
g100
ssg81
g1232
sg74
(lp1244
S':'
asbag67
(g88
g69
NtRp1245
(dp1246
g72
(dp1247
sg81
g1232
sg74
(lp1248
g67
(g68
g69
NtRp1249
(dp1250
g72
(dp1251
g80
I4
ssg81
g1245
sg74
(lp1252
S"set(['/home/alumno/web2py/applications/admin/', '/home/alumno/web2py/applications/my_web/', '/home/alumno/web2py/applications/examples/', '/home/alumno/web2py/applications/welcome/', '/home/alumno/web2py/applications/datos/'])"
p1253
asbasbasbag67
(g83
g69
NtRp1254
(dp1255
g72
(dp1256
sg81
g1228
sg74
(lp1257
g67
(g88
g69
NtRp1258
(dp1259
g72
(dp1260
g92
g93
ssg81
g1254
sg74
(lp1261
S'applications_parent'
p1262
asbag67
(g88
g69
NtRp1263
(dp1264
g72
(dp1265
g99
g100
ssg81
g1254
sg74
(lp1266
S':'
asbag67
(g88
g69
NtRp1267
(dp1268
g72
(dp1269
sg81
g1254
sg74
(lp1270
g67
(g68
g69
NtRp1271
(dp1272
g72
(dp1273
g80
I4
ssg81
g1267
sg74
(lp1274
S'/home/alumno/web2py'
p1275
asbasbasbag67
(g83
g69
NtRp1276
(dp1277
g72
(dp1278
sg81
g1228
sg74
(lp1279
g67
(g88
g69
NtRp1280
(dp1281
g72
(dp1282
g92
g93
ssg81
g1276
sg74
(lp1283
S'cmd_args'
p1284
asbag67
(g88
g69
NtRp1285
(dp1286
g72
(dp1287
g99
g100
ssg81
g1276
sg74
(lp1288
S':'
asbag67
(g88
g69
NtRp1289
(dp1290
g72
(dp1291
sg81
g1276
sg74
(lp1292
g67
(g68
g69
NtRp1293
(dp1294
g72
(dp1295
g80
I4
ssg81
g1289
sg74
(lp1296
g67
(g76
g69
NtRp1297
(dp1298
g72
(dp1299
g80
I3
ssg81
Nsg74
(lp1300
sbasbasbasbag67
(g83
g69
NtRp1301
(dp1302
g72
(dp1303
sg81
g1228
sg74
(lp1304
g67
(g88
g69
NtRp1305
(dp1306
g72
(dp1307
g92
g93
ssg81
g1301
sg74
(lp1308
S'cmd_options'
p1309
asbag67
(g88
g69
NtRp1310
(dp1311
g72
(dp1312
g99
g100
ssg81
g1301
sg74
(lp1313
S':'
asbag67
(g88
g69
NtRp1314
(dp1315
g72
(dp1316
sg81
g1301
sg74
(lp1317
g67
(g68
g69
NtRp1318
(dp1319
g72
(dp1320
g80
I4
ssg81
g1314
sg74
(lp1321
S"<Values at 0x98648ac: {'verbose': False, 'ip': '127.0.0.1', 'shutdown_timeout': 5, 'taskbar': False, 'port': 8000, 'maxthreads': None, 'softcron': False, 'server_name': 'ubuntu-dev', 'bpython': False, 'nogui': False, 'nocron': False, 'extcron': False, 'debuglevel': 30, 'test': None, 'folder': '/home/alumno/web2py', 'config': '', 'import_models': False, 'winservice': '', 'shell': None, 'run': '', 'log_filename': 'httpserver.log', 'args': [''], 'profiler_filename': None, 'ssl_private_key': '', 'password': 'conti', 'request_queue_size': 5, 'ssl_certificate': '', 'cronjob': False, 'plain': False, 'quiet': False, 'interfaces': None, 'minthreads': None, 'timeout': 10, 'numthreads': None, 'nobanner': False, 'pid_filename': 'httpserver.pid'}>"
p1322
asbasbasbag67
(g83
g69
NtRp1323
(dp1324
g72
(dp1325
sg81
g1228
sg74
(lp1326
g67
(g88
g69
NtRp1327
(dp1328
g72
(dp1329
g92
g93
ssg81
g1323
sg74
(lp1330
S'content_length'
p1331
asbag67
(g88
g69
NtRp1332
(dp1333
g72
(dp1334
g99
g100
ssg81
g1323
sg74
(lp1335
S':'
asbag67
(g88
g69
NtRp1336
(dp1337
g72
(dp1338
sg81
g1323
sg74
(lp1339
g67
(g68
g69
NtRp1340
(dp1341
g72
(dp1342
g80
I4
ssg81
g1336
sg74
(lp1343
S'1037'
p1344
asbasbasbag67
(g83
g69
NtRp1345
(dp1346
g72
(dp1347
sg81
g1228
sg74
(lp1348
g67
(g88
g69
NtRp1349
(dp1350
g72
(dp1351
g92
g93
ssg81
g1345
sg74
(lp1352
S'content_type'
p1353
asbag67
(g88
g69
NtRp1354
(dp1355
g72
(dp1356
g99
g100
ssg81
g1345
sg74
(lp1357
S':'
asbag67
(g88
g69
NtRp1358
(dp1359
g72
(dp1360
sg81
g1345
sg74
(lp1361
g67
(g68
g69
NtRp1362
(dp1363
g72
(dp1364
g80
I4
ssg81
g1358
sg74
(lp1365
S'multipart/form-data; boundary=---------------------------489363264117496490158121067'
p1366
asbasbasbag67
(g83
g69
NtRp1367
(dp1368
g72
(dp1369
sg81
g1228
sg74
(lp1370
g67
(g88
g69
NtRp1371
(dp1372
g72
(dp1373
g92
g93
ssg81
g1367
sg74
(lp1374
S'db_sessions'
p1375
asbag67
(g88
g69
NtRp1376
(dp1377
g72
(dp1378
g99
g100
ssg81
g1367
sg74
(lp1379
S':'
asbag67
(g88
g69
NtRp1380
(dp1381
g72
(dp1382
sg81
g1367
sg74
(lp1383
g67
(g68
g69
NtRp1384
(dp1385
g72
(dp1386
g80
I4
ssg81
g1380
sg74
(lp1387
S'set([])'
p1388
asbasbasbag67
(g83
g69
NtRp1389
(dp1390
g72
(dp1391
sg81
g1228
sg74
(lp1392
g67
(g88
g69
NtRp1393
(dp1394
g72
(dp1395
g92
g93
ssg81
g1389
sg74
(lp1396
S'debugging'
p1397
asbag67
(g88
g69
NtRp1398
(dp1399
g72
(dp1400
g99
g100
ssg81
g1389
sg74
(lp1401
S':'
asbag67
(g88
g69
NtRp1402
(dp1403
g72
(dp1404
sg81
g1389
sg74
(lp1405
g67
(g68
g69
NtRp1406
(dp1407
g72
(dp1408
g80
I4
ssg81
g1402
sg74
(lp1409
g110
asbasbasbag67
(g83
g69
NtRp1410
(dp1411
g72
(dp1412
sg81
g1228
sg74
(lp1413
g67
(g88
g69
NtRp1414
(dp1415
g72
(dp1416
g92
g93
ssg81
g1410
sg74
(lp1417
S'gluon_parent'
p1418
asbag67
(g88
g69
NtRp1419
(dp1420
g72
(dp1421
g99
g100
ssg81
g1410
sg74
(lp1422
S':'
asbag67
(g88
g69
NtRp1423
(dp1424
g72
(dp1425
sg81
g1410
sg74
(lp1426
g67
(g68
g69
NtRp1427
(dp1428
g72
(dp1429
g80
I4
ssg81
g1423
sg74
(lp1430
S'/home/alumno/web2py'
p1431
asbasbasbag67
(g83
g69
NtRp1432
(dp1433
g72
(dp1434
sg81
g1228
sg74
(lp1435
g67
(g88
g69
NtRp1436
(dp1437
g72
(dp1438
g92
g93
ssg81
g1432
sg74
(lp1439
S'http_accept'
p1440
asbag67
(g88
g69
NtRp1441
(dp1442
g72
(dp1443
g99
g100
ssg81
g1432
sg74
(lp1444
S':'
asbag67
(g88
g69
NtRp1445
(dp1446
g72
(dp1447
sg81
g1432
sg74
(lp1448
g67
(g68
g69
NtRp1449
(dp1450
g72
(dp1451
g80
I4
ssg81
g1445
sg74
(lp1452
S'text/html,application/xhtml+xml,application/xml;q=0.9,*/*;q=0.8'
p1453
asbasbasbag67
(g83
g69
NtRp1454
(dp1455
g72
(dp1456
sg81
g1228
sg74
(lp1457
g67
(g88
g69
NtRp1458
(dp1459
g72
(dp1460
g92
g93
ssg81
g1454
sg74
(lp1461
S'http_accept_charset'
p1462
asbag67
(g88
g69
NtRp1463
(dp1464
g72
(dp1465
g99
g100
ssg81
g1454
sg74
(lp1466
S':'
asbag67
(g88
g69
NtRp1467
(dp1468
g72
(dp1469
sg81
g1454
sg74
(lp1470
g67
(g68
g69
NtRp1471
(dp1472
g72
(dp1473
g80
I4
ssg81
g1467
sg74
(lp1474
S'ISO-8859-1,utf-8;q=0.7,*;q=0.7'
p1475
asbasbasbag67
(g83
g69
NtRp1476
(dp1477
g72
(dp1478
sg81
g1228
sg74
(lp1479
g67
(g88
g69
NtRp1480
(dp1481
g72
(dp1482
g92
g93
ssg81
g1476
sg74
(lp1483
S'http_accept_encoding'
p1484
asbag67
(g88
g69
NtRp1485
(dp1486
g72
(dp1487
g99
g100
ssg81
g1476
sg74
(lp1488
S':'
asbag67
(g88
g69
NtRp1489
(dp1490
g72
(dp1491
sg81
g1476
sg74
(lp1492
g67
(g68
g69
NtRp1493
(dp1494
g72
(dp1495
g80
I4
ssg81
g1489
sg74
(lp1496
S'gzip, deflate'
p1497
asbasbasbag67
(g83
g69
NtRp1498
(dp1499
g72
(dp1500
sg81
g1228
sg74
(lp1501
g67
(g88
g69
NtRp1502
(dp1503
g72
(dp1504
g92
g93
ssg81
g1498
sg74
(lp1505
S'http_accept_language'
p1506
asbag67
(g88
g69
NtRp1507
(dp1508
g72
(dp1509
g99
g100
ssg81
g1498
sg74
(lp1510
S':'
asbag67
(g88
g69
NtRp1511
(dp1512
g72
(dp1513
sg81
g1498
sg74
(lp1514
g67
(g68
g69
NtRp1515
(dp1516
g72
(dp1517
g80
I4
ssg81
g1511
sg74
(lp1518
S'es-ar,es;q=0.8,en-us;q=0.5,en;q=0.3'
p1519
asbasbasbag67
(g83
g69
NtRp1520
(dp1521
g72
(dp1522
sg81
g1228
sg74
(lp1523
g67
(g88
g69
NtRp1524
(dp1525
g72
(dp1526
g92
g93
ssg81
g1520
sg74
(lp1527
S'http_cache_control'
p1528
asbag67
(g88
g69
NtRp1529
(dp1530
g72
(dp1531
g99
g100
ssg81
g1520
sg74
(lp1532
S':'
asbag67
(g88
g69
NtRp1533
(dp1534
g72
(dp1535
sg81
g1520
sg74
(lp1536
g67
(g68
g69
NtRp1537
(dp1538
g72
(dp1539
g80
I4
ssg81
g1533
sg74
(lp1540
S'max-age=0'
p1541
asbasbasbag67
(g83
g69
NtRp1542
(dp1543
g72
(dp1544
sg81
g1228
sg74
(lp1545
g67
(g88
g69
NtRp1546
(dp1547
g72
(dp1548
g92
g93
ssg81
g1542
sg74
(lp1549
S'http_connection'
p1550
asbag67
(g88
g69
NtRp1551
(dp1552
g72
(dp1553
g99
g100
ssg81
g1542
sg74
(lp1554
S':'
asbag67
(g88
g69
NtRp1555
(dp1556
g72
(dp1557
sg81
g1542
sg74
(lp1558
g67
(g68
g69
NtRp1559
(dp1560
g72
(dp1561
g80
I4
ssg81
g1555
sg74
(lp1562
S'keep-alive'
p1563
asbasbasbag67
(g83
g69
NtRp1564
(dp1565
g72
(dp1566
sg81
g1228
sg74
(lp1567
g67
(g88
g69
NtRp1568
(dp1569
g72
(dp1570
g92
g93
ssg81
g1564
sg74
(lp1571
S'http_content_length'
p1572
asbag67
(g88
g69
NtRp1573
(dp1574
g72
(dp1575
g99
g100
ssg81
g1564
sg74
(lp1576
S':'
asbag67
(g88
g69
NtRp1577
(dp1578
g72
(dp1579
sg81
g1564
sg74
(lp1580
g67
(g68
g69
NtRp1581
(dp1582
g72
(dp1583
g80
I4
ssg81
g1577
sg74
(lp1584
g1344
asbasbasbag67
(g83
g69
NtRp1585
(dp1586
g72
(dp1587
sg81
g1228
sg74
(lp1588
g67
(g88
g69
NtRp1589
(dp1590
g72
(dp1591
g92
g93
ssg81
g1585
sg74
(lp1592
S'http_content_type'
p1593
asbag67
(g88
g69
NtRp1594
(dp1595
g72
(dp1596
g99
g100
ssg81
g1585
sg74
(lp1597
S':'
asbag67
(g88
g69
NtRp1598
(dp1599
g72
(dp1600
sg81
g1585
sg74
(lp1601
g67
(g68
g69
NtRp1602
(dp1603
g72
(dp1604
g80
I4
ssg81
g1598
sg74
(lp1605
g1366
asbasbasbag67
(g83
g69
NtRp1606
(dp1607
g72
(dp1608
sg81
g1228
sg74
(lp1609
g67
(g88
g69
NtRp1610
(dp1611
g72
(dp1612
g92
g93
ssg81
g1606
sg74
(lp1613
S'http_cookie'
p1614
asbag67
(g88
g69
NtRp1615
(dp1616
g72
(dp1617
g99
g100
ssg81
g1606
sg74
(lp1618
S':'
asbag67
(g88
g69
NtRp1619
(dp1620
g72
(dp1621
sg81
g1606
sg74
(lp1622
g67
(g68
g69
NtRp1623
(dp1624
g72
(dp1625
g80
I4
ssg81
g1619
sg74
(lp1626
S'session_id_welcome=127.0.0.1-9d762582-aeab-478d-b2b3-d1c071f4ad01; session_id_admin=127.0.0.1-f292cc01-f792-44fe-abe4-b2667851a938; adminLanguage=es-es; session_id_my_web=127.0.0.1-47c190eb-acb3-4e98-b30b-5e2f6df99186; session_id_datos=127.0.0.1-db62c583-5264-4eba-ba24-7cb87b43795a'
p1627
asbasbasbag67
(g83
g69
NtRp1628
(dp1629
g72
(dp1630
sg81
g1228
sg74
(lp1631
g67
(g88
g69
NtRp1632
(dp1633
g72
(dp1634
g92
g93
ssg81
g1628
sg74
(lp1635
S'http_host'
p1636
asbag67
(g88
g69
NtRp1637
(dp1638
g72
(dp1639
g99
g100
ssg81
g1628
sg74
(lp1640
S':'
asbag67
(g88
g69
NtRp1641
(dp1642
g72
(dp1643
sg81
g1628
sg74
(lp1644
g67
(g68
g69
NtRp1645
(dp1646
g72
(dp1647
g80
I4
ssg81
g1641
sg74
(lp1648
S'127.0.0.1:8000'
p1649
asbasbasbag67
(g83
g69
NtRp1650
(dp1651
g72
(dp1652
sg81
g1228
sg74
(lp1653
g67
(g88
g69
NtRp1654
(dp1655
g72
(dp1656
g92
g93
ssg81
g1650
sg74
(lp1657
S'http_referer'
p1658
asbag67
(g88
g69
NtRp1659
(dp1660
g72
(dp1661
g99
g100
ssg81
g1650
sg74
(lp1662
S':'
asbag67
(g88
g69
NtRp1663
(dp1664
g72
(dp1665
sg81
g1650
sg74
(lp1666
g67
(g68
g69
NtRp1667
(dp1668
g72
(dp1669
g80
I4
ssg81
g1663
sg74
(lp1670
S'http://127.0.0.1:8000/datos/appadmin/insert/db/alumno'
p1671
asbasbasbag67
(g83
g69
NtRp1672
(dp1673
g72
(dp1674
sg81
g1228
sg74
(lp1675
g67
(g88
g69
NtRp1676
(dp1677
g72
(dp1678
g92
g93
ssg81
g1672
sg74
(lp1679
S'http_user_agent'
p1680
asbag67
(g88
g69
NtRp1681
(dp1682
g72
(dp1683
g99
g100
ssg81
g1672
sg74
(lp1684
S':'
asbag67
(g88
g69
NtRp1685
(dp1686
g72
(dp1687
sg81
g1672
sg74
(lp1688
g67
(g68
g69
NtRp1689
(dp1690
g72
(dp1691
g80
I4
ssg81
g1685
sg74
(lp1692
S'Mozilla/5.0 (X11; Linux i686; rv:6.0) Gecko/20100101 Firefox/6.0'
p1693
asbasbasbag67
(g83
g69
NtRp1694
(dp1695
g72
(dp1696
sg81
g1228
sg74
(lp1697
g67
(g88
g69
NtRp1698
(dp1699
g72
(dp1700
g92
g93
ssg81
g1694
sg74
(lp1701
S'is_jython'
p1702
asbag67
(g88
g69
NtRp1703
(dp1704
g72
(dp1705
g99
g100
ssg81
g1694
sg74
(lp1706
S':'
asbag67
(g88
g69
NtRp1707
(dp1708
g72
(dp1709
sg81
g1694
sg74
(lp1710
g67
(g68
g69
NtRp1711
(dp1712
g72
(dp1713
g80
I4
ssg81
g1707
sg74
(lp1714
g110
asbasbasbag67
(g83
g69
NtRp1715
(dp1716
g72
(dp1717
sg81
g1228
sg74
(lp1718
g67
(g88
g69
NtRp1719
(dp1720
g72
(dp1721
g92
g93
ssg81
g1715
sg74
(lp1722
S'path_info'
p1723
asbag67
(g88
g69
NtRp1724
(dp1725
g72
(dp1726
g99
g100
ssg81
g1715
sg74
(lp1727
S':'
asbag67
(g88
g69
NtRp1728
(dp1729
g72
(dp1730
sg81
g1715
sg74
(lp1731
g67
(g68
g69
NtRp1732
(dp1733
g72
(dp1734
g80
I4
ssg81
g1728
sg74
(lp1735
S'/datos/appadmin/insert/db/alumno'
p1736
asbasbasbag67
(g83
g69
NtRp1737
(dp1738
g72
(dp1739
sg81
g1228
sg74
(lp1740
g67
(g88
g69
NtRp1741
(dp1742
g72
(dp1743
g92
g93
ssg81
g1737
sg74
(lp1744
S'query_string'
p1745
asbag67
(g88
g69
NtRp1746
(dp1747
g72
(dp1748
g99
g100
ssg81
g1737
sg74
(lp1749
S':'
asbag67
(g88
g69
NtRp1750
(dp1751
g72
(dp1752
sg81
g1737
sg74
(lp1753
g67
(g68
g69
NtRp1754
(dp1755
g72
(dp1756
g80
I4
ssg81
g1750
sg74
(lp1757
S''
asbasbasbag67
(g83
g69
NtRp1758
(dp1759
g72
(dp1760
sg81
g1228
sg74
(lp1761
g67
(g88
g69
NtRp1762
(dp1763
g72
(dp1764
g92
g93
ssg81
g1758
sg74
(lp1765
S'remote_addr'
p1766
asbag67
(g88
g69
NtRp1767
(dp1768
g72
(dp1769
g99
g100
ssg81
g1758
sg74
(lp1770
S':'
asbag67
(g88
g69
NtRp1771
(dp1772
g72
(dp1773
sg81
g1758
sg74
(lp1774
g67
(g68
g69
NtRp1775
(dp1776
g72
(dp1777
g80
I4
ssg81
g1771
sg74
(lp1778
g226
asbasbasbag67
(g83
g69
NtRp1779
(dp1780
g72
(dp1781
sg81
g1228
sg74
(lp1782
g67
(g88
g69
NtRp1783
(dp1784
g72
(dp1785
g92
g93
ssg81
g1779
sg74
(lp1786
S'remote_port'
p1787
asbag67
(g88
g69
NtRp1788
(dp1789
g72
(dp1790
g99
g100
ssg81
g1779
sg74
(lp1791
S':'
asbag67
(g88
g69
NtRp1792
(dp1793
g72
(dp1794
sg81
g1779
sg74
(lp1795
g67
(g68
g69
NtRp1796
(dp1797
g72
(dp1798
g80
I4
ssg81
g1792
sg74
(lp1799
S'46391'
p1800
asbasbasbag67
(g83
g69
NtRp1801
(dp1802
g72
(dp1803
sg81
g1228
sg74
(lp1804
g67
(g88
g69
NtRp1805
(dp1806
g72
(dp1807
g92
g93
ssg81
g1801
sg74
(lp1808
S'request_method'
p1809
asbag67
(g88
g69
NtRp1810
(dp1811
g72
(dp1812
g99
g100
ssg81
g1801
sg74
(lp1813
S':'
asbag67
(g88
g69
NtRp1814
(dp1815
g72
(dp1816
sg81
g1801
sg74
(lp1817
g67
(g68
g69
NtRp1818
(dp1819
g72
(dp1820
g80
I4
ssg81
g1814
sg74
(lp1821
S'POST'
p1822
asbasbasbag67
(g83
g69
NtRp1823
(dp1824
g72
(dp1825
sg81
g1228
sg74
(lp1826
g67
(g88
g69
NtRp1827
(dp1828
g72
(dp1829
g92
g93
ssg81
g1823
sg74
(lp1830
S'script_name'
p1831
asbag67
(g88
g69
NtRp1832
(dp1833
g72
(dp1834
g99
g100
ssg81
g1823
sg74
(lp1835
S':'
asbag67
(g88
g69
NtRp1836
(dp1837
g72
(dp1838
sg81
g1823
sg74
(lp1839
g67
(g68
g69
NtRp1840
(dp1841
g72
(dp1842
g80
I4
ssg81
g1836
sg74
(lp1843
S''
asbasbasbag67
(g83
g69
NtRp1844
(dp1845
g72
(dp1846
sg81
g1228
sg74
(lp1847
g67
(g88
g69
NtRp1848
(dp1849
g72
(dp1850
g92
g93
ssg81
g1844
sg74
(lp1851
S'server_name'
p1852
asbag67
(g88
g69
NtRp1853
(dp1854
g72
(dp1855
g99
g100
ssg81
g1844
sg74
(lp1856
S':'
asbag67
(g88
g69
NtRp1857
(dp1858
g72
(dp1859
sg81
g1844
sg74
(lp1860
g67
(g68
g69
NtRp1861
(dp1862
g72
(dp1863
g80
I4
ssg81
g1857
sg74
(lp1864
S'ubuntu-dev'
p1865
asbasbasbag67
(g83
g69
NtRp1866
(dp1867
g72
(dp1868
sg81
g1228
sg74
(lp1869
g67
(g88
g69
NtRp1870
(dp1871
g72
(dp1872
g92
g93
ssg81
g1866
sg74
(lp1873
S'server_port'
p1874
asbag67
(g88
g69
NtRp1875
(dp1876
g72
(dp1877
g99
g100
ssg81
g1866
sg74
(lp1878
S':'
asbag67
(g88
g69
NtRp1879
(dp1880
g72
(dp1881
sg81
g1866
sg74
(lp1882
g67
(g68
g69
NtRp1883
(dp1884
g72
(dp1885
g80
I4
ssg81
g1879
sg74
(lp1886
S'8000'
p1887
asbasbasbag67
(g83
g69
NtRp1888
(dp1889
g72
(dp1890
sg81
g1228
sg74
(lp1891
g67
(g88
g69
NtRp1892
(dp1893
g72
(dp1894
g92
g93
ssg81
g1888
sg74
(lp1895
S'server_protocol'
p1896
asbag67
(g88
g69
NtRp1897
(dp1898
g72
(dp1899
g99
g100
ssg81
g1888
sg74
(lp1900
S':'
asbag67
(g88
g69
NtRp1901
(dp1902
g72
(dp1903
sg81
g1888
sg74
(lp1904
g67
(g68
g69
NtRp1905
(dp1906
g72
(dp1907
g80
I4
ssg81
g1901
sg74
(lp1908
S'HTTP/1.1'
p1909
asbasbasbag67
(g83
g69
NtRp1910
(dp1911
g72
(dp1912
sg81
g1228
sg74
(lp1913
g67
(g88
g69
NtRp1914
(dp1915
g72
(dp1916
g92
g93
ssg81
g1910
sg74
(lp1917
S'server_software'
p1918
asbag67
(g88
g69
NtRp1919
(dp1920
g72
(dp1921
g99
g100
ssg81
g1910
sg74
(lp1922
S':'
asbag67
(g88
g69
NtRp1923
(dp1924
g72
(dp1925
sg81
g1910
sg74
(lp1926
g67
(g68
g69
NtRp1927
(dp1928
g72
(dp1929
g80
I4
ssg81
g1923
sg74
(lp1930
S'Rocket 1.2.2'
p1931
asbasbasbag67
(g83
g69
NtRp1932
(dp1933
g72
(dp1934
sg81
g1228
sg74
(lp1935
g67
(g88
g69
NtRp1936
(dp1937
g72
(dp1938
g92
g93
ssg81
g1932
sg74
(lp1939
S'web2py_crontype'
p1940
asbag67
(g88
g69
NtRp1941
(dp1942
g72
(dp1943
g99
g100
ssg81
g1932
sg74
(lp1944
S':'
asbag67
(g88
g69
NtRp1945
(dp1946
g72
(dp1947
sg81
g1932
sg74
(lp1948
g67
(g68
g69
NtRp1949
(dp1950
g72
(dp1951
g80
I4
ssg81
g1945
sg74
(lp1952
S'hard'
p1953
asbasbasbag67
(g83
g69
NtRp1954
(dp1955
g72
(dp1956
sg81
g1228
sg74
(lp1957
g67
(g88
g69
NtRp1958
(dp1959
g72
(dp1960
g92
g93
ssg81
g1954
sg74
(lp1961
S'web2py_path'
p1962
asbag67
(g88
g69
NtRp1963
(dp1964
g72
(dp1965
g99
g100
ssg81
g1954
sg74
(lp1966
S':'
asbag67
(g88
g69
NtRp1967
(dp1968
g72
(dp1969
sg81
g1954
sg74
(lp1970
g67
(g68
g69
NtRp1971
(dp1972
g72
(dp1973
g80
I4
ssg81
g1967
sg74
(lp1974
g1275
asbasbasbag67
(g83
g69
NtRp1975
(dp1976
g72
(dp1977
sg81
g1228
sg74
(lp1978
g67
(g88
g69
NtRp1979
(dp1980
g72
(dp1981
g92
g93
ssg81
g1975
sg74
(lp1982
S'web2py_version'
p1983
asbag67
(g88
g69
NtRp1984
(dp1985
g72
(dp1986
g99
g100
ssg81
g1975
sg74
(lp1987
S':'
asbag67
(g88
g69
NtRp1988
(dp1989
g72
(dp1990
sg81
g1975
sg74
(lp1991
g67
(g68
g69
NtRp1992
(dp1993
g72
(dp1994
g80
I4
ssg81
g1988
sg74
(lp1995
S'Version 1.98.2 (2011-08-04 00:47:09)\n'
p1996
asbasbasbag67
(g83
g69
NtRp1997
(dp1998
g72
(dp1999
sg81
g1228
sg74
(lp2000
g67
(g88
g69
NtRp2001
(dp2002
g72
(dp2003
g92
g93
ssg81
g1997
sg74
(lp2004
S'wsgi_errors'
p2005
asbag67
(g88
g69
NtRp2006
(dp2007
g72
(dp2008
g99
g100
ssg81
g1997
sg74
(lp2009
S':'
asbag67
(g88
g69
NtRp2010
(dp2011
g72
(dp2012
sg81
g1997
sg74
(lp2013
g67
(g68
g69
NtRp2014
(dp2015
g72
(dp2016
g80
I4
ssg81
g2010
sg74
(lp2017
S"<open file '<stderr>', mode 'w' at 0xb76e20d0>"
p2018
asbasbasbag67
(g83
g69
NtRp2019
(dp2020
g72
(dp2021
sg81
g1228
sg74
(lp2022
g67
(g88
g69
NtRp2023
(dp2024
g72
(dp2025
g92
g93
ssg81
g2019
sg74
(lp2026
S'wsgi_file_wrapper'
p2027
asbag67
(g88
g69
NtRp2028
(dp2029
g72
(dp2030
g99
g100
ssg81
g2019
sg74
(lp2031
S':'
asbag67
(g88
g69
NtRp2032
(dp2033
g72
(dp2034
sg81
g2019
sg74
(lp2035
g67
(g68
g69
NtRp2036
(dp2037
g72
(dp2038
g80
I4
ssg81
g2032
sg74
(lp2039
S'<class gluon.rocket.FileWrapper at 0x96a132c>'
p2040
asbasbasbag67
(g83
g69
NtRp2041
(dp2042
g72
(dp2043
sg81
g1228
sg74
(lp2044
g67
(g88
g69
NtRp2045
(dp2046
g72
(dp2047
g92
g93
ssg81
g2041
sg74
(lp2048
S'wsgi_input'
p2049
asbag67
(g88
g69
NtRp2050
(dp2051
g72
(dp2052
g99
g100
ssg81
g2041
sg74
(lp2053
S':'
asbag67
(g88
g69
NtRp2054
(dp2055
g72
(dp2056
sg81
g2041
sg74
(lp2057
g67
(g68
g69
NtRp2058
(dp2059
g72
(dp2060
g80
I4
ssg81
g2054
sg74
(lp2061
S'<socket._fileobject object at 0x96ee96c>'
p2062
asbasbasbag67
(g83
g69
NtRp2063
(dp2064
g72
(dp2065
sg81
g1228
sg74
(lp2066
g67
(g88
g69
NtRp2067
(dp2068
g72
(dp2069
g92
g93
ssg81
g2063
sg74
(lp2070
S'wsgi_multiprocess'
p2071
asbag67
(g88
g69
NtRp2072
(dp2073
g72
(dp2074
g99
g100
ssg81
g2063
sg74
(lp2075
S':'
asbag67
(g88
g69
NtRp2076
(dp2077
g72
(dp2078
sg81
g2063
sg74
(lp2079
g67
(g68
g69
NtRp2080
(dp2081
g72
(dp2082
g80
I4
ssg81
g2076
sg74
(lp2083
g110
asbasbasbag67
(g83
g69
NtRp2084
(dp2085
g72
(dp2086
sg81
g1228
sg74
(lp2087
g67
(g88
g69
NtRp2088
(dp2089
g72
(dp2090
g92
g93
ssg81
g2084
sg74
(lp2091
S'wsgi_multithread'
p2092
asbag67
(g88
g69
NtRp2093
(dp2094
g72
(dp2095
g99
g100
ssg81
g2084
sg74
(lp2096
S':'
asbag67
(g88
g69
NtRp2097
(dp2098
g72
(dp2099
sg81
g2084
sg74
(lp2100
g67
(g68
g69
NtRp2101
(dp2102
g72
(dp2103
g80
I4
ssg81
g2097
sg74
(lp2104
S'True'
p2105
asbasbasbag67
(g83
g69
NtRp2106
(dp2107
g72
(dp2108
sg81
g1228
sg74
(lp2109
g67
(g88
g69
NtRp2110
(dp2111
g72
(dp2112
g92
g93
ssg81
g2106
sg74
(lp2113
S'wsgi_run_once'
p2114
asbag67
(g88
g69
NtRp2115
(dp2116
g72
(dp2117
g99
g100
ssg81
g2106
sg74
(lp2118
S':'
asbag67
(g88
g69
NtRp2119
(dp2120
g72
(dp2121
sg81
g2106
sg74
(lp2122
g67
(g68
g69
NtRp2123
(dp2124
g72
(dp2125
g80
I4
ssg81
g2119
sg74
(lp2126
g110
asbasbasbag67
(g83
g69
NtRp2127
(dp2128
g72
(dp2129
sg81
g1228
sg74
(lp2130
g67
(g88
g69
NtRp2131
(dp2132
g72
(dp2133
g92
g93
ssg81
g2127
sg74
(lp2134
S'wsgi_url_scheme'
p2135
asbag67
(g88
g69
NtRp2136
(dp2137
g72
(dp2138
g99
g100
ssg81
g2127
sg74
(lp2139
S':'
asbag67
(g88
g69
NtRp2140
(dp2141
g72
(dp2142
sg81
g2127
sg74
(lp2143
g67
(g68
g69
NtRp2144
(dp2145
g72
(dp2146
g80
I4
ssg81
g2140
sg74
(lp2147
S'http'
p2148
asbasbasbag67
(g83
g69
NtRp2149
(dp2150
g72
(dp2151
sg81
g1228
sg74
(lp2152
g67
(g88
g69
NtRp2153
(dp2154
g72
(dp2155
g92
g93
ssg81
g2149
sg74
(lp2156
S'wsgi_version'
p2157
asbag67
(g88
g69
NtRp2158
(dp2159
g72
(dp2160
g99
g100
ssg81
g2149
sg74
(lp2161
S':'
asbag67
(g88
g69
NtRp2162
(dp2163
g72
(dp2164
sg81
g2149
sg74
(lp2165
g67
(g68
g69
NtRp2166
(dp2167
g72
(dp2168
g80
I4
ssg81
g2162
sg74
(lp2169
g67
(g76
g69
NtRp2170
(dp2171
g72
(dp2172
g80
I3
ssg81
Nsg74
(lp2173
g67
(g83
g69
NtRp2174
(dp2175
g72
(dp2176
sg81
g2170
sg74
(lp2177
g67
(g88
g69
NtRp2178
(dp2179
g72
(dp2180
sg81
g2174
sg74
(lp2181
g67
(g68
g69
NtRp2182
(dp2183
g72
(dp2184
g80
I3
ssg81
g2178
sg74
(lp2185
S'1'
asbasbasbag67
(g83
g69
NtRp2186
(dp2187
g72
(dp2188
sg81
g2170
sg74
(lp2189
g67
(g88
g69
NtRp2190
(dp2191
g72
(dp2192
sg81
g2186
sg74
(lp2193
g67
(g68
g69
NtRp2194
(dp2195
g72
(dp2196
g80
I3
ssg81
g2190
sg74
(lp2197
S'0'
asbasbasbasbasbasbasbasbasbasbasbag67
(g83
g69
NtRp2198
(dp2199
g72
(dp2200
sg81
g77
sg74
(lp2201
g67
(g88
g69
NtRp2202
(dp2203
g72
(dp2204
g92
g93
ssg81
g2198
sg74
(lp2205
S'extension'
p2206
asbag67
(g88
g69
NtRp2207
(dp2208
g72
(dp2209
g99
g100
ssg81
g2198
sg74
(lp2210
S':'
asbag67
(g88
g69
NtRp2211
(dp2212
g72
(dp2213
sg81
g2198
sg74
(lp2214
g67
(g68
g69
NtRp2215
(dp2216
g72
(dp2217
g80
I5
ssg81
g2211
sg74
(lp2218
S'html'
p2219
asbasbasbag67
(g83
g69
NtRp2220
(dp2221
g72
(dp2222
sg81
g77
sg74
(lp2223
g67
(g88
g69
NtRp2224
(dp2225
g72
(dp2226
g92
g93
ssg81
g2220
sg74
(lp2227
S'folder'
p2228
asbag67
(g88
g69
NtRp2229
(dp2230
g72
(dp2231
g99
g100
ssg81
g2220
sg74
(lp2232
S':'
asbag67
(g88
g69
NtRp2233
(dp2234
g72
(dp2235
sg81
g2220
sg74
(lp2236
g67
(g68
g69
NtRp2237
(dp2238
g72
(dp2239
g80
I5
ssg81
g2233
sg74
(lp2240
S'/home/alumno/web2py/applications/datos/'
p2241
asbasbasbag67
(g83
g69
NtRp2242
(dp2243
g72
(dp2244
sg81
g77
sg74
(lp2245
g67
(g88
g69
NtRp2246
(dp2247
g72
(dp2248
g92
g93
ssg81
g2242
sg74
(lp2249
S'function'
p2250
asbag67
(g88
g69
NtRp2251
(dp2252
g72
(dp2253
g99
g100
ssg81
g2242
sg74
(lp2254
S':'
asbag67
(g88
g69
NtRp2255
(dp2256
g72
(dp2257
sg81
g2242
sg74
(lp2258
g67
(g68
g69
NtRp2259
(dp2260
g72
(dp2261
g80
I5
ssg81
g2255
sg74
(lp2262
S'insert'
p2263
asbasbasbag67
(g83
g69
NtRp2264
(dp2265
g72
(dp2266
sg81
g77
sg74
(lp2267
g67
(g88
g69
NtRp2268
(dp2269
g72
(dp2270
g92
g93
ssg81
g2264
sg74
(lp2271
S'get_vars'
p2272
asbag67
(g88
g69
NtRp2273
(dp2274
g72
(dp2275
g99
g100
ssg81
g2264
sg74
(lp2276
S':'
asbag67
(g88
g69
NtRp2277
(dp2278
g72
(dp2279
sg81
g2264
sg74
(lp2280
g67
(g68
g69
NtRp2281
(dp2282
g72
(dp2283
g80
I5
ssg81
g2277
sg74
(lp2284
g67
(g76
g69
NtRp2285
(dp2286
g72
(dp2287
g80
I4
ssg81
Nsg74
(lp2288
sbasbasbasbag67
(g83
g69
NtRp2289
(dp2290
g72
(dp2291
sg81
g77
sg74
(lp2292
g67
(g88
g69
NtRp2293
(dp2294
g72
(dp2295
g92
g93
ssg81
g2289
sg74
(lp2296
S'is_https'
p2297
asbag67
(g88
g69
NtRp2298
(dp2299
g72
(dp2300
g99
g100
ssg81
g2289
sg74
(lp2301
S':'
asbag67
(g88
g69
NtRp2302
(dp2303
g72
(dp2304
sg81
g2289
sg74
(lp2305
g67
(g68
g69
NtRp2306
(dp2307
g72
(dp2308
g80
I5
ssg81
g2302
sg74
(lp2309
g110
asbasbasbag67
(g83
g69
NtRp2310
(dp2311
g72
(dp2312
sg81
g77
sg74
(lp2313
g67
(g88
g69
NtRp2314
(dp2315
g72
(dp2316
g92
g93
ssg81
g2310
sg74
(lp2317
S'is_local'
p2318
asbag67
(g88
g69
NtRp2319
(dp2320
g72
(dp2321
g99
g100
ssg81
g2310
sg74
(lp2322
S':'
asbag67
(g88
g69
NtRp2323
(dp2324
g72
(dp2325
sg81
g2310
sg74
(lp2326
g67
(g68
g69
NtRp2327
(dp2328
g72
(dp2329
g80
I5
ssg81
g2323
sg74
(lp2330
g2105
asbasbasbag67
(g83
g69
NtRp2331
(dp2332
g72
(dp2333
sg81
g77
sg74
(lp2334
g67
(g88
g69
NtRp2335
(dp2336
g72
(dp2337
g92
g93
ssg81
g2331
sg74
(lp2338
S'is_restful'
p2339
asbag67
(g88
g69
NtRp2340
(dp2341
g72
(dp2342
g99
g100
ssg81
g2331
sg74
(lp2343
S':'
asbag67
(g88
g69
NtRp2344
(dp2345
g72
(dp2346
sg81
g2331
sg74
(lp2347
g67
(g68
g69
NtRp2348
(dp2349
g72
(dp2350
g80
I5
ssg81
g2344
sg74
(lp2351
g110
asbasbasbag67
(g83
g69
NtRp2352
(dp2353
g72
(dp2354
sg81
g77
sg74
(lp2355
g67
(g88
g69
NtRp2356
(dp2357
g72
(dp2358
g92
g93
ssg81
g2352
sg74
(lp2359
S'now'
p2360
asbag67
(g88
g69
NtRp2361
(dp2362
g72
(dp2363
g99
g100
ssg81
g2352
sg74
(lp2364
S':'
asbag67
(g88
g69
NtRp2365
(dp2366
g72
(dp2367
sg81
g2352
sg74
(lp2368
g67
(g68
g69
NtRp2369
(dp2370
g72
(dp2371
g80
I5
ssg81
g2365
sg74
(lp2372
S'datetime.datetime(2011, 9, 7, 19, 12, 48, 387521)'
p2373
asbasbasbag67
(g83
g69
NtRp2374
(dp2375
g72
(dp2376
sg81
g77
sg74
(lp2377
g67
(g88
g69
NtRp2378
(dp2379
g72
(dp2380
g92
g93
ssg81
g2374
sg74
(lp2381
S'post_vars'
p2382
asbag67
(g88
g69
NtRp2383
(dp2384
g72
(dp2385
g99
g100
ssg81
g2374
sg74
(lp2386
S':'
asbag67
(g88
g69
NtRp2387
(dp2388
g72
(dp2389
sg81
g2374
sg74
(lp2390
g67
(g68
g69
NtRp2391
(dp2392
g72
(dp2393
g80
I5
ssg81
g2387
sg74
(lp2394
g67
(g76
g69
NtRp2395
(dp2396
g72
(dp2397
g80
I4
ssg81
Nsg74
(lp2398
g67
(g83
g69
NtRp2399
(dp2400
g72
(dp2401
sg81
g2395
sg74
(lp2402
g67
(g88
g69
NtRp2403
(dp2404
g72
(dp2405
g92
g93
ssg81
g2399
sg74
(lp2406
S'apellidos'
p2407
asbag67
(g88
g69
NtRp2408
(dp2409
g72
(dp2410
g99
g100
ssg81
g2399
sg74
(lp2411
S':'
asbag67
(g88
g69
NtRp2412
(dp2413
g72
(dp2414
sg81
g2399
sg74
(lp2415
g67
(g68
g69
NtRp2416
(dp2417
g72
(dp2418
g80
I4
ssg81
g2412
sg74
(lp2419
S'gfg'
p2420
asbasbasbag67
(g83
g69
NtRp2421
(dp2422
g72
(dp2423
sg81
g2395
sg74
(lp2424
g67
(g88
g69
NtRp2425
(dp2426
g72
(dp2427
g92
g93
ssg81
g2421
sg74
(lp2428
S'codigo'
p2429
asbag67
(g88
g69
NtRp2430
(dp2431
g72
(dp2432
g99
g100
ssg81
g2421
sg74
(lp2433
S':'
asbag67
(g88
g69
NtRp2434
(dp2435
g72
(dp2436
sg81
g2421
sg74
(lp2437
g67
(g68
g69
NtRp2438
(dp2439
g72
(dp2440
g80
I4
ssg81
g2434
sg74
(lp2441
S'tgfg'
p2442
asbasbasbag67
(g83
g69
NtRp2443
(dp2444
g72
(dp2445
sg81
g2395
sg74
(lp2446
g67
(g88
g69
NtRp2447
(dp2448
g72
(dp2449
g92
g93
ssg81
g2443
sg74
(lp2450
S'email'
p2451
asbag67
(g88
g69
NtRp2452
(dp2453
g72
(dp2454
g99
g100
ssg81
g2443
sg74
(lp2455
S':'
asbag67
(g88
g69
NtRp2456
(dp2457
g72
(dp2458
sg81
g2443
sg74
(lp2459
g67
(g68
g69
NtRp2460
(dp2461
g72
(dp2462
g80
I4
ssg81
g2456
sg74
(lp2463
S'gytryhttttt56'
p2464
asbasbasbag67
(g83
g69
NtRp2465
(dp2466
g72
(dp2467
sg81
g2395
sg74
(lp2468
g67
(g88
g69
NtRp2469
(dp2470
g72
(dp2471
g92
g93
ssg81
g2465
sg74
(lp2472
S'fnacimiento'
p2473
asbag67
(g88
g69
NtRp2474
(dp2475
g72
(dp2476
g99
g100
ssg81
g2465
sg74
(lp2477
S':'
asbag67
(g88
g69
NtRp2478
(dp2479
g72
(dp2480
sg81
g2465
sg74
(lp2481
g67
(g68
g69
NtRp2482
(dp2483
g72
(dp2484
g80
I4
ssg81
g2478
sg74
(lp2485
S'2011-09-26'
p2486
asbasbasbag67
(g83
g69
NtRp2487
(dp2488
g72
(dp2489
sg81
g2395
sg74
(lp2490
g67
(g88
g69
NtRp2491
(dp2492
g72
(dp2493
g92
g93
ssg81
g2487
sg74
(lp2494
S'hobby'
p2495
asbag67
(g88
g69
NtRp2496
(dp2497
g72
(dp2498
g99
g100
ssg81
g2487
sg74
(lp2499
S':'
asbag67
(g88
g69
NtRp2500
(dp2501
g72
(dp2502
sg81
g2487
sg74
(lp2503
g67
(g68
g69
NtRp2504
(dp2505
g72
(dp2506
g80
I4
ssg81
g2500
sg74
(lp2507
S'Estudiar :P'
p2508
asbasbasbag67
(g83
g69
NtRp2509
(dp2510
g72
(dp2511
sg81
g2395
sg74
(lp2512
g67
(g88
g69
NtRp2513
(dp2514
g72
(dp2515
g92
g93
ssg81
g2509
sg74
(lp2516
S'nombres'
p2517
asbag67
(g88
g69
NtRp2518
(dp2519
g72
(dp2520
g99
g100
ssg81
g2509
sg74
(lp2521
S':'
asbag67
(g88
g69
NtRp2522
(dp2523
g72
(dp2524
sg81
g2509
sg74
(lp2525
g67
(g68
g69
NtRp2526
(dp2527
g72
(dp2528
g80
I4
ssg81
g2522
sg74
(lp2529
S'fgg'
p2530
asbasbasbasbasbasbasbag67
(g83
g69
NtRp2531
(dp2532
g72
(dp2533
sg81
g77
sg74
(lp2534
g67
(g88
g69
NtRp2535
(dp2536
g72
(dp2537
g92
g93
ssg81
g2531
sg74
(lp2538
S'raw_args'
p2539
asbag67
(g88
g69
NtRp2540
(dp2541
g72
(dp2542
g99
g100
ssg81
g2531
sg74
(lp2543
S':'
asbag67
(g88
g69
NtRp2544
(dp2545
g72
(dp2546
sg81
g2531
sg74
(lp2547
g67
(g68
g69
NtRp2548
(dp2549
g72
(dp2550
g80
I5
ssg81
g2544
sg74
(lp2551
S'db/alumno'
p2552
asbasbasbag67
(g83
g69
NtRp2553
(dp2554
g72
(dp2555
sg81
g77
sg74
(lp2556
g67
(g88
g69
NtRp2557
(dp2558
g72
(dp2559
g92
g93
ssg81
g2553
sg74
(lp2560
S'url'
p2561
asbag67
(g88
g69
NtRp2562
(dp2563
g72
(dp2564
g99
g100
ssg81
g2553
sg74
(lp2565
S':'
asbag67
(g88
g69
NtRp2566
(dp2567
g72
(dp2568
sg81
g2553
sg74
(lp2569
g67
(g68
g69
NtRp2570
(dp2571
g72
(dp2572
g80
I5
ssg81
g2566
sg74
(lp2573
S'/datos/appadmin/insert/db/alumno'
p2574
asbasbasbag67
(g83
g69
NtRp2575
(dp2576
g72
(dp2577
sg81
g77
sg74
(lp2578
g67
(g88
g69
NtRp2579
(dp2580
g72
(dp2581
g92
g93
ssg81
g2575
sg74
(lp2582
S'uuid'
p2583
asbag67
(g88
g69
NtRp2584
(dp2585
g72
(dp2586
g99
g100
ssg81
g2575
sg74
(lp2587
S':'
asbag67
(g88
g69
NtRp2588
(dp2589
g72
(dp2590
sg81
g2575
sg74
(lp2591
g67
(g68
g69
NtRp2592
(dp2593
g72
(dp2594
g80
I5
ssg81
g2588
sg74
(lp2595
S'datos/127.0.0.1.2011-09-07.19-12-48.12469e8c-ab6f-4694-9234-1fa37115d633'
p2596
asbasbasbag67
(g83
g69
NtRp2597
(dp2598
g72
(dp2599
sg81
g77
sg74
(lp2600
g67
(g88
g69
NtRp2601
(dp2602
g72
(dp2603
g92
g93
ssg81
g2597
sg74
(lp2604
S'vars'
p2605
asbag67
(g88
g69
NtRp2606
(dp2607
g72
(dp2608
g99
g100
ssg81
g2597
sg74
(lp2609
S':'
asbag67
(g88
g69
NtRp2610
(dp2611
g72
(dp2612
sg81
g2597
sg74
(lp2613
g67
(g68
g69
NtRp2614
(dp2615
g72
(dp2616
g80
I5
ssg81
g2610
sg74
(lp2617
g67
(g76
g69
NtRp2618
(dp2619
g72
(dp2620
g80
I4
ssg81
Nsg74
(lp2621
g67
(g83
g69
NtRp2622
(dp2623
g72
(dp2624
sg81
g2618
sg74
(lp2625
g67
(g88
g69
NtRp2626
(dp2627
g72
(dp2628
g92
g93
ssg81
g2622
sg74
(lp2629
g2407
asbag67
(g88
g69
NtRp2630
(dp2631
g72
(dp2632
g99
g100
ssg81
g2622
sg74
(lp2633
S':'
asbag67
(g88
g69
NtRp2634
(dp2635
g72
(dp2636
sg81
g2622
sg74
(lp2637
g67
(g68
g69
NtRp2638
(dp2639
g72
(dp2640
g80
I4
ssg81
g2634
sg74
(lp2641
g2420
asbasbasbag67
(g83
g69
NtRp2642
(dp2643
g72
(dp2644
sg81
g2618
sg74
(lp2645
g67
(g88
g69
NtRp2646
(dp2647
g72
(dp2648
g92
g93
ssg81
g2642
sg74
(lp2649
g2429
asbag67
(g88
g69
NtRp2650
(dp2651
g72
(dp2652
g99
g100
ssg81
g2642
sg74
(lp2653
S':'
asbag67
(g88
g69
NtRp2654
(dp2655
g72
(dp2656
sg81
g2642
sg74
(lp2657
g67
(g68
g69
NtRp2658
(dp2659
g72
(dp2660
g80
I4
ssg81
g2654
sg74
(lp2661
g2442
asbasbasbag67
(g83
g69
NtRp2662
(dp2663
g72
(dp2664
sg81
g2618
sg74
(lp2665
g67
(g88
g69
NtRp2666
(dp2667
g72
(dp2668
g92
g93
ssg81
g2662
sg74
(lp2669
g2451
asbag67
(g88
g69
NtRp2670
(dp2671
g72
(dp2672
g99
g100
ssg81
g2662
sg74
(lp2673
S':'
asbag67
(g88
g69
NtRp2674
(dp2675
g72
(dp2676
sg81
g2662
sg74
(lp2677
g67
(g68
g69
NtRp2678
(dp2679
g72
(dp2680
g80
I4
ssg81
g2674
sg74
(lp2681
g2464
asbasbasbag67
(g83
g69
NtRp2682
(dp2683
g72
(dp2684
sg81
g2618
sg74
(lp2685
g67
(g88
g69
NtRp2686
(dp2687
g72
(dp2688
g92
g93
ssg81
g2682
sg74
(lp2689
g2473
asbag67
(g88
g69
NtRp2690
(dp2691
g72
(dp2692
g99
g100
ssg81
g2682
sg74
(lp2693
S':'
asbag67
(g88
g69
NtRp2694
(dp2695
g72
(dp2696
sg81
g2682
sg74
(lp2697
g67
(g68
g69
NtRp2698
(dp2699
g72
(dp2700
g80
I4
ssg81
g2694
sg74
(lp2701
g2486
asbasbasbag67
(g83
g69
NtRp2702
(dp2703
g72
(dp2704
sg81
g2618
sg74
(lp2705
g67
(g88
g69
NtRp2706
(dp2707
g72
(dp2708
g92
g93
ssg81
g2702
sg74
(lp2709
g2495
asbag67
(g88
g69
NtRp2710
(dp2711
g72
(dp2712
g99
g100
ssg81
g2702
sg74
(lp2713
S':'
asbag67
(g88
g69
NtRp2714
(dp2715
g72
(dp2716
sg81
g2702
sg74
(lp2717
g67
(g68
g69
NtRp2718
(dp2719
g72
(dp2720
g80
I4
ssg81
g2714
sg74
(lp2721
g2508
asbasbasbag67
(g83
g69
NtRp2722
(dp2723
g72
(dp2724
sg81
g2618
sg74
(lp2725
g67
(g88
g69
NtRp2726
(dp2727
g72
(dp2728
g92
g93
ssg81
g2722
sg74
(lp2729
g2517
asbag67
(g88
g69
NtRp2730
(dp2731
g72
(dp2732
g99
g100
ssg81
g2722
sg74
(lp2733
S':'
asbag67
(g88
g69
NtRp2734
(dp2735
g72
(dp2736
sg81
g2722
sg74
(lp2737
g67
(g68
g69
NtRp2738
(dp2739
g72
(dp2740
g80
I4
ssg81
g2734
sg74
(lp2741
g2530
asbasbasbasbasbasbasbag67
(g83
g69
NtRp2742
(dp2743
g72
(dp2744
sg81
g77
sg74
(lp2745
g67
(g88
g69
NtRp2746
(dp2747
g72
(dp2748
g92
g93
ssg81
g2742
sg74
(lp2749
S'wsgi'
p2750
asbag67
(g88
g69
NtRp2751
(dp2752
g72
(dp2753
g99
g100
ssg81
g2742
sg74
(lp2754
S':'
asbag67
(g88
g69
NtRp2755
(dp2756
g72
(dp2757
sg81
g2742
sg74
(lp2758
g67
(g68
g69
NtRp2759
(dp2760
g72
(dp2761
g80
I5
ssg81
g2755
sg74
(lp2762
g67
(g76
g69
NtRp2763
(dp2764
g72
(dp2765
g80
I4
ssg81
Nsg74
(lp2766
g67
(g83
g69
NtRp2767
(dp2768
g72
(dp2769
sg81
g2763
sg74
(lp2770
g67
(g88
g69
NtRp2771
(dp2772
g72
(dp2773
g92
g93
ssg81
g2767
sg74
(lp2774
S'environ'
p2775
asbag67
(g88
g69
NtRp2776
(dp2777
g72
(dp2778
g99
g100
ssg81
g2767
sg74
(lp2779
S':'
asbag67
(g88
g69
NtRp2780
(dp2781
g72
(dp2782
sg81
g2767
sg74
(lp2783
g67
(g68
g69
NtRp2784
(dp2785
g72
(dp2786
g80
I4
ssg81
g2780
sg74
(lp2787
g67
(g76
g69
NtRp2788
(dp2789
g72
(dp2790
g80
I3
ssg81
Nsg74
(lp2791
g67
(g83
g69
NtRp2792
(dp2793
g72
(dp2794
sg81
g2788
sg74
(lp2795
g67
(g88
g69
NtRp2796
(dp2797
g72
(dp2798
g92
g93
ssg81
g2792
sg74
(lp2799
S'CONTENT_LENGTH'
p2800
asbag67
(g88
g69
NtRp2801
(dp2802
g72
(dp2803
g99
g100
ssg81
g2792
sg74
(lp2804
S':'
asbag67
(g88
g69
NtRp2805
(dp2806
g72
(dp2807
sg81
g2792
sg74
(lp2808
g67
(g68
g69
NtRp2809
(dp2810
g72
(dp2811
g80
I3
ssg81
g2805
sg74
(lp2812
g1344
asbasbasbag67
(g83
g69
NtRp2813
(dp2814
g72
(dp2815
sg81
g2788
sg74
(lp2816
g67
(g88
g69
NtRp2817
(dp2818
g72
(dp2819
g92
g93
ssg81
g2813
sg74
(lp2820
S'CONTENT_TYPE'
p2821
asbag67
(g88
g69
NtRp2822
(dp2823
g72
(dp2824
g99
g100
ssg81
g2813
sg74
(lp2825
S':'
asbag67
(g88
g69
NtRp2826
(dp2827
g72
(dp2828
sg81
g2813
sg74
(lp2829
g67
(g68
g69
NtRp2830
(dp2831
g72
(dp2832
g80
I3
ssg81
g2826
sg74
(lp2833
g1366
asbasbasbag67
(g83
g69
NtRp2834
(dp2835
g72
(dp2836
sg81
g2788
sg74
(lp2837
g67
(g88
g69
NtRp2838
(dp2839
g72
(dp2840
g92
g93
ssg81
g2834
sg74
(lp2841
S'HTTP_ACCEPT'
p2842
asbag67
(g88
g69
NtRp2843
(dp2844
g72
(dp2845
g99
g100
ssg81
g2834
sg74
(lp2846
S':'
asbag67
(g88
g69
NtRp2847
(dp2848
g72
(dp2849
sg81
g2834
sg74
(lp2850
g67
(g68
g69
NtRp2851
(dp2852
g72
(dp2853
g80
I3
ssg81
g2847
sg74
(lp2854
g1453
asbasbasbag67
(g83
g69
NtRp2855
(dp2856
g72
(dp2857
sg81
g2788
sg74
(lp2858
g67
(g88
g69
NtRp2859
(dp2860
g72
(dp2861
g92
g93
ssg81
g2855
sg74
(lp2862
S'HTTP_ACCEPT_CHARSET'
p2863
asbag67
(g88
g69
NtRp2864
(dp2865
g72
(dp2866
g99
g100
ssg81
g2855
sg74
(lp2867
S':'
asbag67
(g88
g69
NtRp2868
(dp2869
g72
(dp2870
sg81
g2855
sg74
(lp2871
g67
(g68
g69
NtRp2872
(dp2873
g72
(dp2874
g80
I3
ssg81
g2868
sg74
(lp2875
g1475
asbasbasbag67
(g83
g69
NtRp2876
(dp2877
g72
(dp2878
sg81
g2788
sg74
(lp2879
g67
(g88
g69
NtRp2880
(dp2881
g72
(dp2882
g92
g93
ssg81
g2876
sg74
(lp2883
S'HTTP_ACCEPT_ENCODING'
p2884
asbag67
(g88
g69
NtRp2885
(dp2886
g72
(dp2887
g99
g100
ssg81
g2876
sg74
(lp2888
S':'
asbag67
(g88
g69
NtRp2889
(dp2890
g72
(dp2891
sg81
g2876
sg74
(lp2892
g67
(g68
g69
NtRp2893
(dp2894
g72
(dp2895
g80
I3
ssg81
g2889
sg74
(lp2896
g1497
asbasbasbag67
(g83
g69
NtRp2897
(dp2898
g72
(dp2899
sg81
g2788
sg74
(lp2900
g67
(g88
g69
NtRp2901
(dp2902
g72
(dp2903
g92
g93
ssg81
g2897
sg74
(lp2904
S'HTTP_ACCEPT_LANGUAGE'
p2905
asbag67
(g88
g69
NtRp2906
(dp2907
g72
(dp2908
g99
g100
ssg81
g2897
sg74
(lp2909
S':'
asbag67
(g88
g69
NtRp2910
(dp2911
g72
(dp2912
sg81
g2897
sg74
(lp2913
g67
(g68
g69
NtRp2914
(dp2915
g72
(dp2916
g80
I3
ssg81
g2910
sg74
(lp2917
g1519
asbasbasbag67
(g83
g69
NtRp2918
(dp2919
g72
(dp2920
sg81
g2788
sg74
(lp2921
g67
(g88
g69
NtRp2922
(dp2923
g72
(dp2924
g92
g93
ssg81
g2918
sg74
(lp2925
S'HTTP_CACHE_CONTROL'
p2926
asbag67
(g88
g69
NtRp2927
(dp2928
g72
(dp2929
g99
g100
ssg81
g2918
sg74
(lp2930
S':'
asbag67
(g88
g69
NtRp2931
(dp2932
g72
(dp2933
sg81
g2918
sg74
(lp2934
g67
(g68
g69
NtRp2935
(dp2936
g72
(dp2937
g80
I3
ssg81
g2931
sg74
(lp2938
g1541
asbasbasbag67
(g83
g69
NtRp2939
(dp2940
g72
(dp2941
sg81
g2788
sg74
(lp2942
g67
(g88
g69
NtRp2943
(dp2944
g72
(dp2945
g92
g93
ssg81
g2939
sg74
(lp2946
S'HTTP_CONNECTION'
p2947
asbag67
(g88
g69
NtRp2948
(dp2949
g72
(dp2950
g99
g100
ssg81
g2939
sg74
(lp2951
S':'
asbag67
(g88
g69
NtRp2952
(dp2953
g72
(dp2954
sg81
g2939
sg74
(lp2955
g67
(g68
g69
NtRp2956
(dp2957
g72
(dp2958
g80
I3
ssg81
g2952
sg74
(lp2959
g1563
asbasbasbag67
(g83
g69
NtRp2960
(dp2961
g72
(dp2962
sg81
g2788
sg74
(lp2963
g67
(g88
g69
NtRp2964
(dp2965
g72
(dp2966
g92
g93
ssg81
g2960
sg74
(lp2967
S'HTTP_CONTENT_LENGTH'
p2968
asbag67
(g88
g69
NtRp2969
(dp2970
g72
(dp2971
g99
g100
ssg81
g2960
sg74
(lp2972
S':'
asbag67
(g88
g69
NtRp2973
(dp2974
g72
(dp2975
sg81
g2960
sg74
(lp2976
g67
(g68
g69
NtRp2977
(dp2978
g72
(dp2979
g80
I3
ssg81
g2973
sg74
(lp2980
g1344
asbasbasbag67
(g83
g69
NtRp2981
(dp2982
g72
(dp2983
sg81
g2788
sg74
(lp2984
g67
(g88
g69
NtRp2985
(dp2986
g72
(dp2987
g92
g93
ssg81
g2981
sg74
(lp2988
S'HTTP_CONTENT_TYPE'
p2989
asbag67
(g88
g69
NtRp2990
(dp2991
g72
(dp2992
g99
g100
ssg81
g2981
sg74
(lp2993
S':'
asbag67
(g88
g69
NtRp2994
(dp2995
g72
(dp2996
sg81
g2981
sg74
(lp2997
g67
(g68
g69
NtRp2998
(dp2999
g72
(dp3000
g80
I3
ssg81
g2994
sg74
(lp3001
g1366
asbasbasbag67
(g83
g69
NtRp3002
(dp3003
g72
(dp3004
sg81
g2788
sg74
(lp3005
g67
(g88
g69
NtRp3006
(dp3007
g72
(dp3008
g92
g93
ssg81
g3002
sg74
(lp3009
S'HTTP_COOKIE'
p3010
asbag67
(g88
g69
NtRp3011
(dp3012
g72
(dp3013
g99
g100
ssg81
g3002
sg74
(lp3014
S':'
asbag67
(g88
g69
NtRp3015
(dp3016
g72
(dp3017
sg81
g3002
sg74
(lp3018
g67
(g68
g69
NtRp3019
(dp3020
g72
(dp3021
g80
I3
ssg81
g3015
sg74
(lp3022
g1627
asbasbasbag67
(g83
g69
NtRp3023
(dp3024
g72
(dp3025
sg81
g2788
sg74
(lp3026
g67
(g88
g69
NtRp3027
(dp3028
g72
(dp3029
g92
g93
ssg81
g3023
sg74
(lp3030
S'HTTP_HOST'
p3031
asbag67
(g88
g69
NtRp3032
(dp3033
g72
(dp3034
g99
g100
ssg81
g3023
sg74
(lp3035
S':'
asbag67
(g88
g69
NtRp3036
(dp3037
g72
(dp3038
sg81
g3023
sg74
(lp3039
g67
(g68
g69
NtRp3040
(dp3041
g72
(dp3042
g80
I3
ssg81
g3036
sg74
(lp3043
g1649
asbasbasbag67
(g83
g69
NtRp3044
(dp3045
g72
(dp3046
sg81
g2788
sg74
(lp3047
g67
(g88
g69
NtRp3048
(dp3049
g72
(dp3050
g92
g93
ssg81
g3044
sg74
(lp3051
S'HTTP_REFERER'
p3052
asbag67
(g88
g69
NtRp3053
(dp3054
g72
(dp3055
g99
g100
ssg81
g3044
sg74
(lp3056
S':'
asbag67
(g88
g69
NtRp3057
(dp3058
g72
(dp3059
sg81
g3044
sg74
(lp3060
g67
(g68
g69
NtRp3061
(dp3062
g72
(dp3063
g80
I3
ssg81
g3057
sg74
(lp3064
g1671
asbasbasbag67
(g83
g69
NtRp3065
(dp3066
g72
(dp3067
sg81
g2788
sg74
(lp3068
g67
(g88
g69
NtRp3069
(dp3070
g72
(dp3071
g92
g93
ssg81
g3065
sg74
(lp3072
S'HTTP_USER_AGENT'
p3073
asbag67
(g88
g69
NtRp3074
(dp3075
g72
(dp3076
g99
g100
ssg81
g3065
sg74
(lp3077
S':'
asbag67
(g88
g69
NtRp3078
(dp3079
g72
(dp3080
sg81
g3065
sg74
(lp3081
g67
(g68
g69
NtRp3082
(dp3083
g72
(dp3084
g80
I3
ssg81
g3078
sg74
(lp3085
g1693
asbasbasbag67
(g83
g69
NtRp3086
(dp3087
g72
(dp3088
sg81
g2788
sg74
(lp3089
g67
(g88
g69
NtRp3090
(dp3091
g72
(dp3092
g92
g93
ssg81
g3086
sg74
(lp3093
S'PATH_INFO'
p3094
asbag67
(g88
g69
NtRp3095
(dp3096
g72
(dp3097
g99
g100
ssg81
g3086
sg74
(lp3098
S':'
asbag67
(g88
g69
NtRp3099
(dp3100
g72
(dp3101
sg81
g3086
sg74
(lp3102
g67
(g68
g69
NtRp3103
(dp3104
g72
(dp3105
g80
I3
ssg81
g3099
sg74
(lp3106
g1736
asbasbasbag67
(g83
g69
NtRp3107
(dp3108
g72
(dp3109
sg81
g2788
sg74
(lp3110
g67
(g88
g69
NtRp3111
(dp3112
g72
(dp3113
g92
g93
ssg81
g3107
sg74
(lp3114
S'QUERY_STRING'
p3115
asbag67
(g88
g69
NtRp3116
(dp3117
g72
(dp3118
g99
g100
ssg81
g3107
sg74
(lp3119
S':'
asbag67
(g88
g69
NtRp3120
(dp3121
g72
(dp3122
sg81
g3107
sg74
(lp3123
g67
(g68
g69
NtRp3124
(dp3125
g72
(dp3126
g80
I3
ssg81
g3120
sg74
(lp3127
S''
asbasbasbag67
(g83
g69
NtRp3128
(dp3129
g72
(dp3130
sg81
g2788
sg74
(lp3131
g67
(g88
g69
NtRp3132
(dp3133
g72
(dp3134
g92
g93
ssg81
g3128
sg74
(lp3135
S'REMOTE_ADDR'
p3136
asbag67
(g88
g69
NtRp3137
(dp3138
g72
(dp3139
g99
g100
ssg81
g3128
sg74
(lp3140
S':'
asbag67
(g88
g69
NtRp3141
(dp3142
g72
(dp3143
sg81
g3128
sg74
(lp3144
g67
(g68
g69
NtRp3145
(dp3146
g72
(dp3147
g80
I3
ssg81
g3141
sg74
(lp3148
g226
asbasbasbag67
(g83
g69
NtRp3149
(dp3150
g72
(dp3151
sg81
g2788
sg74
(lp3152
g67
(g88
g69
NtRp3153
(dp3154
g72
(dp3155
g92
g93
ssg81
g3149
sg74
(lp3156
S'REMOTE_PORT'
p3157
asbag67
(g88
g69
NtRp3158
(dp3159
g72
(dp3160
g99
g100
ssg81
g3149
sg74
(lp3161
S':'
asbag67
(g88
g69
NtRp3162
(dp3163
g72
(dp3164
sg81
g3149
sg74
(lp3165
g67
(g68
g69
NtRp3166
(dp3167
g72
(dp3168
g80
I3
ssg81
g3162
sg74
(lp3169
g1800
asbasbasbag67
(g83
g69
NtRp3170
(dp3171
g72
(dp3172
sg81
g2788
sg74
(lp3173
g67
(g88
g69
NtRp3174
(dp3175
g72
(dp3176
g92
g93
ssg81
g3170
sg74
(lp3177
S'REQUEST_METHOD'
p3178
asbag67
(g88
g69
NtRp3179
(dp3180
g72
(dp3181
g99
g100
ssg81
g3170
sg74
(lp3182
S':'
asbag67
(g88
g69
NtRp3183
(dp3184
g72
(dp3185
sg81
g3170
sg74
(lp3186
g67
(g68
g69
NtRp3187
(dp3188
g72
(dp3189
g80
I3
ssg81
g3183
sg74
(lp3190
g1822
asbasbasbag67
(g83
g69
NtRp3191
(dp3192
g72
(dp3193
sg81
g2788
sg74
(lp3194
g67
(g88
g69
NtRp3195
(dp3196
g72
(dp3197
g92
g93
ssg81
g3191
sg74
(lp3198
S'SCRIPT_NAME'
p3199
asbag67
(g88
g69
NtRp3200
(dp3201
g72
(dp3202
g99
g100
ssg81
g3191
sg74
(lp3203
S':'
asbag67
(g88
g69
NtRp3204
(dp3205
g72
(dp3206
sg81
g3191
sg74
(lp3207
g67
(g68
g69
NtRp3208
(dp3209
g72
(dp3210
g80
I3
ssg81
g3204
sg74
(lp3211
S''
asbasbasbag67
(g83
g69
NtRp3212
(dp3213
g72
(dp3214
sg81
g2788
sg74
(lp3215
g67
(g88
g69
NtRp3216
(dp3217
g72
(dp3218
g92
g93
ssg81
g3212
sg74
(lp3219
S'SERVER_NAME'
p3220
asbag67
(g88
g69
NtRp3221
(dp3222
g72
(dp3223
g99
g100
ssg81
g3212
sg74
(lp3224
S':'
asbag67
(g88
g69
NtRp3225
(dp3226
g72
(dp3227
sg81
g3212
sg74
(lp3228
g67
(g68
g69
NtRp3229
(dp3230
g72
(dp3231
g80
I3
ssg81
g3225
sg74
(lp3232
g1865
asbasbasbag67
(g83
g69
NtRp3233
(dp3234
g72
(dp3235
sg81
g2788
sg74
(lp3236
g67
(g88
g69
NtRp3237
(dp3238
g72
(dp3239
g92
g93
ssg81
g3233
sg74
(lp3240
S'SERVER_PORT'
p3241
asbag67
(g88
g69
NtRp3242
(dp3243
g72
(dp3244
g99
g100
ssg81
g3233
sg74
(lp3245
S':'
asbag67
(g88
g69
NtRp3246
(dp3247
g72
(dp3248
sg81
g3233
sg74
(lp3249
g67
(g68
g69
NtRp3250
(dp3251
g72
(dp3252
g80
I3
ssg81
g3246
sg74
(lp3253
g1887
asbasbasbag67
(g83
g69
NtRp3254
(dp3255
g72
(dp3256
sg81
g2788
sg74
(lp3257
g67
(g88
g69
NtRp3258
(dp3259
g72
(dp3260
g92
g93
ssg81
g3254
sg74
(lp3261
S'SERVER_PROTOCOL'
p3262
asbag67
(g88
g69
NtRp3263
(dp3264
g72
(dp3265
g99
g100
ssg81
g3254
sg74
(lp3266
S':'
asbag67
(g88
g69
NtRp3267
(dp3268
g72
(dp3269
sg81
g3254
sg74
(lp3270
g67
(g68
g69
NtRp3271
(dp3272
g72
(dp3273
g80
I3
ssg81
g3267
sg74
(lp3274
g1909
asbasbasbag67
(g83
g69
NtRp3275
(dp3276
g72
(dp3277
sg81
g2788
sg74
(lp3278
g67
(g88
g69
NtRp3279
(dp3280
g72
(dp3281
g92
g93
ssg81
g3275
sg74
(lp3282
S'SERVER_SOFTWARE'
p3283
asbag67
(g88
g69
NtRp3284
(dp3285
g72
(dp3286
g99
g100
ssg81
g3275
sg74
(lp3287
S':'
asbag67
(g88
g69
NtRp3288
(dp3289
g72
(dp3290
sg81
g3275
sg74
(lp3291
g67
(g68
g69
NtRp3292
(dp3293
g72
(dp3294
g80
I3
ssg81
g3288
sg74
(lp3295
g1931
asbasbasbag67
(g83
g69
NtRp3296
(dp3297
g72
(dp3298
sg81
g2788
sg74
(lp3299
g67
(g88
g69
NtRp3300
(dp3301
g72
(dp3302
g92
g93
ssg81
g3296
sg74
(lp3303
S'wsgi.errors'
p3304
asbag67
(g88
g69
NtRp3305
(dp3306
g72
(dp3307
g99
g100
ssg81
g3296
sg74
(lp3308
S':'
asbag67
(g88
g69
NtRp3309
(dp3310
g72
(dp3311
sg81
g3296
sg74
(lp3312
g67
(g68
g69
NtRp3313
(dp3314
g72
(dp3315
g80
I3
ssg81
g3309
sg74
(lp3316
S"<open file '<stderr>', mode 'w' at 0xb76e20d0>"
p3317
asbasbasbag67
(g83
g69
NtRp3318
(dp3319
g72
(dp3320
sg81
g2788
sg74
(lp3321
g67
(g88
g69
NtRp3322
(dp3323
g72
(dp3324
g92
g93
ssg81
g3318
sg74
(lp3325
S'wsgi.file_wrapper'
p3326
asbag67
(g88
g69
NtRp3327
(dp3328
g72
(dp3329
g99
g100
ssg81
g3318
sg74
(lp3330
S':'
asbag67
(g88
g69
NtRp3331
(dp3332
g72
(dp3333
sg81
g3318
sg74
(lp3334
g67
(g68
g69
NtRp3335
(dp3336
g72
(dp3337
g80
I3
ssg81
g3331
sg74
(lp3338
S'<class gluon.rocket.FileWrapper at 0x96a132c>'
p3339
asbasbasbag67
(g83
g69
NtRp3340
(dp3341
g72
(dp3342
sg81
g2788
sg74
(lp3343
g67
(g88
g69
NtRp3344
(dp3345
g72
(dp3346
g92
g93
ssg81
g3340
sg74
(lp3347
S'wsgi.input'
p3348
asbag67
(g88
g69
NtRp3349
(dp3350
g72
(dp3351
g99
g100
ssg81
g3340
sg74
(lp3352
S':'
asbag67
(g88
g69
NtRp3353
(dp3354
g72
(dp3355
sg81
g3340
sg74
(lp3356
g67
(g68
g69
NtRp3357
(dp3358
g72
(dp3359
g80
I3
ssg81
g3353
sg74
(lp3360
S"<open file '<fdopen>', mode 'w+b' at 0xa325128>"
p3361
asbasbasbag67
(g83
g69
NtRp3362
(dp3363
g72
(dp3364
sg81
g2788
sg74
(lp3365
g67
(g88
g69
NtRp3366
(dp3367
g72
(dp3368
g92
g93
ssg81
g3362
sg74
(lp3369
S'wsgi.multiprocess'
p3370
asbag67
(g88
g69
NtRp3371
(dp3372
g72
(dp3373
g99
g100
ssg81
g3362
sg74
(lp3374
S':'
asbag67
(g88
g69
NtRp3375
(dp3376
g72
(dp3377
sg81
g3362
sg74
(lp3378
g67
(g68
g69
NtRp3379
(dp3380
g72
(dp3381
g80
I3
ssg81
g3375
sg74
(lp3382
g110
asbasbasbag67
(g83
g69
NtRp3383
(dp3384
g72
(dp3385
sg81
g2788
sg74
(lp3386
g67
(g88
g69
NtRp3387
(dp3388
g72
(dp3389
g92
g93
ssg81
g3383
sg74
(lp3390
S'wsgi.multithread'
p3391
asbag67
(g88
g69
NtRp3392
(dp3393
g72
(dp3394
g99
g100
ssg81
g3383
sg74
(lp3395
S':'
asbag67
(g88
g69
NtRp3396
(dp3397
g72
(dp3398
sg81
g3383
sg74
(lp3399
g67
(g68
g69
NtRp3400
(dp3401
g72
(dp3402
g80
I3
ssg81
g3396
sg74
(lp3403
g2105
asbasbasbag67
(g83
g69
NtRp3404
(dp3405
g72
(dp3406
sg81
g2788
sg74
(lp3407
g67
(g88
g69
NtRp3408
(dp3409
g72
(dp3410
g92
g93
ssg81
g3404
sg74
(lp3411
S'wsgi.run_once'
p3412
asbag67
(g88
g69
NtRp3413
(dp3414
g72
(dp3415
g99
g100
ssg81
g3404
sg74
(lp3416
S':'
asbag67
(g88
g69
NtRp3417
(dp3418
g72
(dp3419
sg81
g3404
sg74
(lp3420
g67
(g68
g69
NtRp3421
(dp3422
g72
(dp3423
g80
I3
ssg81
g3417
sg74
(lp3424
g110
asbasbasbag67
(g83
g69
NtRp3425
(dp3426
g72
(dp3427
sg81
g2788
sg74
(lp3428
g67
(g88
g69
NtRp3429
(dp3430
g72
(dp3431
g92
g93
ssg81
g3425
sg74
(lp3432
S'wsgi.url_scheme'
p3433
asbag67
(g88
g69
NtRp3434
(dp3435
g72
(dp3436
g99
g100
ssg81
g3425
sg74
(lp3437
S':'
asbag67
(g88
g69
NtRp3438
(dp3439
g72
(dp3440
sg81
g3425
sg74
(lp3441
g67
(g68
g69
NtRp3442
(dp3443
g72
(dp3444
g80
I3
ssg81
g3438
sg74
(lp3445
g2148
asbasbasbag67
(g83
g69
NtRp3446
(dp3447
g72
(dp3448
sg81
g2788
sg74
(lp3449
g67
(g88
g69
NtRp3450
(dp3451
g72
(dp3452
g92
g93
ssg81
g3446
sg74
(lp3453
S'wsgi.version'
p3454
asbag67
(g88
g69
NtRp3455
(dp3456
g72
(dp3457
g99
g100
ssg81
g3446
sg74
(lp3458
S':'
asbag67
(g88
g69
NtRp3459
(dp3460
g72
(dp3461
sg81
g3446
sg74
(lp3462
g67
(g68
g69
NtRp3463
(dp3464
g72
(dp3465
g80
I3
ssg81
g3459
sg74
(lp3466
S'1'
asbasbasbasbasbasbasbasbasbasbasbasbasbsS'frames'
p3467
(lp3468
(dp3469
S'file'
p3470
S'/home/alumno/web2py/gluon/restricted.py'
p3471
sS'dump'
p3472
(dp3473
S'code'
p3474
S'"# -*- coding: utf-8 -*-\\n\\ndb = DAL(\'sqlite://dato...IS_EMAIL()\\n.alumno.hobby.default = \'Estudiar :P\'\\n"'
p3475
sS'layer'
p3476
S"'/home/alumno/web2py/applications/datos/models/db.py'"
p3477
sS'global compile2'
p3478
S'<function compile2>'
p3479
sS'ccode'
p3480
S'undefined'
p3481
ssS'lnum'
p3482
I191
sS'lines'
p3483
(dp3484
I192
S'        exec ccode in environment'
p3485
sI193
S'    except HTTP:'
p3486
sI194
S'        raise'
p3487
sI195
S'    except Exception, error:'
p3488
sI186
S"    environment['__file__'] = layer"
p3489
sI187
S'    try:'
p3490
sI188
S'        if type(code) == types.CodeType:'
p3491
sI189
S'            ccode = code'
p3492
sI190
S'        else:'
p3493
sI191
S'            ccode = compile2(code,layer)'
p3494
ssS'call'
p3495
S'(code="# -*- coding: utf-8 -*-\\n\\ndb = DAL(\'sqlite://dato...IS_EMAIL()\\n.alumno.hobby.default = \'Estudiar :P\'\\n", environment={\'A\': <class \'gluon.html.A\'>, \'B\': <class \'gluon.html.B\'>, \'BEAUTIFY\': <class \'gluon.html.BEAUTIFY\'>, \'BODY\': <class \'gluon.html.BODY\'>, \'BR\': <class \'gluon.html.BR\'>, \'BUTTON\': <class \'gluon.html.BUTTON\'>, \'CAT\': <class \'gluon.html.CAT\'>, \'CENTER\': <class \'gluon.html.CENTER\'>, \'CLEANUP\': <class \'gluon.validators.CLEANUP\'>, \'CODE\': <class \'gluon.html.CODE\'>, ...}, layer=\'/home/alumno/web2py/applications/datos/models/db.py\')'
p3496
sS'func'
p3497
S'restricted'
p3498
sa(dp3499
g3470
S'/home/alumno/web2py/gluon/restricted.py'
p3500
sg3472
(dp3501
S'builtincompile'
p3502
S'<built-in function compile>'
p3503
sS'code'
p3504
S'"# -*- coding: utf-8 -*-\\n\\ndb = DAL(\'sqlite://dato...IS_EMAIL()\\n.alumno.hobby.default = \'Estudiar :P\'\\n"'
p3505
sS'code.rstrip'
p3506
S'<built-in method rstrip of str object>'
p3507
sS').replace'
p3508
g3481
sS'layer'
p3509
S"'/home/alumno/web2py/applications/datos/models/db.py'"
p3510
ssg3482
I178
sg3483
(dp3511
I173
S''
sI174
S'def compile2(code,layer):'
p3512
sI175
S'    """'
p3513
sI176
S"    The +'\\n' is necessary else compile fails when code ends in a comment."
p3514
sI177
S'    """'
p3515
sI178
S"    return compile(code.rstrip().replace('\\r\\n','\\n')+'\\n', layer, 'exec')"
p3516
sI179
S''
sI180
S"def restricted(code, environment={}, layer='Unknown'):"
p3517
sI181
S'    """'
p3518
sI182
S'    runs code in environment and returns the output. if an exception occurs'
p3519
ssg3495
S'(code="# -*- coding: utf-8 -*-\\n\\ndb = DAL(\'sqlite://dato...IS_EMAIL()\\n.alumno.hobby.default = \'Estudiar :P\'\\n", layer=\'/home/alumno/web2py/applications/datos/models/db.py\')'
p3520
sg3497
S'compile2'
p3521
sasS'pyver'
p3522
S'Python 2.6.6: /usr/bin/python'
p3523
sS'session'
p3524
g67
(g68
g69
NtRp3525
(dp3526
g72
(dp3527
sg74
(lp3528
g67
(g76
g69
NtRp3529
(dp3530
g72
(dp3531
g80
I5
ssg81
Nsg74
(lp3532
sbasbsS'etype'
p3533
S"<type 'exceptions.SyntaxError'>"
p3534
sS'date'
p3535
S'Wed Sep  7 19:12:48 2011'
p3536
sS'response'
p3537
g67
(g68
g69
NtRp3538
(dp3539
g72
(dp3540
sg74
(lp3541
g67
(g76
g69
NtRp3542
(dp3543
g72
(dp3544
g80
I5
ssg81
Nsg74
(lp3545
g67
(g83
g69
NtRp3546
(dp3547
g72
(dp3548
sg81
g3542
sg74
(lp3549
g67
(g88
g69
NtRp3550
(dp3551
g72
(dp3552
g92
g93
ssg81
g3546
sg74
(lp3553
g191
asbag67
(g88
g69
NtRp3554
(dp3555
g72
(dp3556
g99
g100
ssg81
g3546
sg74
(lp3557
S':'
asbag67
(g88
g69
NtRp3558
(dp3559
g72
(dp3560
sg81
g3546
sg74
(lp3561
g67
(g68
g69
NtRp3562
(dp3563
g72
(dp3564
g80
I5
ssg81
g3558
sg74
(lp3565
S'<cStringIO.StringO object at 0x9717780>'
p3566
asbasbasbag67
(g83
g69
NtRp3567
(dp3568
g72
(dp3569
sg81
g3542
sg74
(lp3570
g67
(g88
g69
NtRp3571
(dp3572
g72
(dp3573
g92
g93
ssg81
g3567
sg74
(lp3574
g257
asbag67
(g88
g69
NtRp3575
(dp3576
g72
(dp3577
g99
g100
ssg81
g3567
sg74
(lp3578
S':'
asbag67
(g88
g69
NtRp3579
(dp3580
g72
(dp3581
sg81
g3567
sg74
(lp3582
g67
(g68
g69
NtRp3583
(dp3584
g72
(dp3585
g80
I5
ssg81
g3579
sg74
(lp3586
g67
(g76
g69
NtRp3587
(dp3588
g72
(dp3589
g80
I4
ssg81
Nsg74
(lp3590
g67
(g83
g69
NtRp3591
(dp3592
g72
(dp3593
sg81
g3587
sg74
(lp3594
g67
(g88
g69
NtRp3595
(dp3596
g72
(dp3597
g92
g93
ssg81
g3591
sg74
(lp3598
S'session_id_datos'
p3599
asbag67
(g88
g69
NtRp3600
(dp3601
g72
(dp3602
g99
g100
ssg81
g3591
sg74
(lp3603
S':'
asbag67
(g88
g69
NtRp3604
(dp3605
g72
(dp3606
sg81
g3591
sg74
(lp3607
g67
(g68
g69
NtRp3608
(dp3609
g72
(dp3610
g80
I4
ssg81
g3604
sg74
(lp3611
g67
(g76
g69
NtRp3612
(dp3613
g72
(dp3614
g80
I3
ssg81
Nsg74
(lp3615
g67
(g83
g69
NtRp3616
(dp3617
g72
(dp3618
sg81
g3612
sg74
(lp3619
g67
(g88
g69
NtRp3620
(dp3621
g72
(dp3622
g92
g93
ssg81
g3616
sg74
(lp3623
g307
asbag67
(g88
g69
NtRp3624
(dp3625
g72
(dp3626
g99
g100
ssg81
g3616
sg74
(lp3627
S':'
asbag67
(g88
g69
NtRp3628
(dp3629
g72
(dp3630
sg81
g3616
sg74
(lp3631
g67
(g68
g69
NtRp3632
(dp3633
g72
(dp3634
g80
I3
ssg81
g3628
sg74
(lp3635
S''
asbasbasbag67
(g83
g69
NtRp3636
(dp3637
g72
(dp3638
sg81
g3612
sg74
(lp3639
g67
(g88
g69
NtRp3640
(dp3641
g72
(dp3642
g92
g93
ssg81
g3636
sg74
(lp3643
g328
asbag67
(g88
g69
NtRp3644
(dp3645
g72
(dp3646
g99
g100
ssg81
g3636
sg74
(lp3647
S':'
asbag67
(g88
g69
NtRp3648
(dp3649
g72
(dp3650
sg81
g3636
sg74
(lp3651
g67
(g68
g69
NtRp3652
(dp3653
g72
(dp3654
g80
I3
ssg81
g3648
sg74
(lp3655
S''
asbasbasbag67
(g83
g69
NtRp3656
(dp3657
g72
(dp3658
sg81
g3612
sg74
(lp3659
g67
(g88
g69
NtRp3660
(dp3661
g72
(dp3662
g92
g93
ssg81
g3656
sg74
(lp3663
g349
asbag67
(g88
g69
NtRp3664
(dp3665
g72
(dp3666
g99
g100
ssg81
g3656
sg74
(lp3667
S':'
asbag67
(g88
g69
NtRp3668
(dp3669
g72
(dp3670
sg81
g3656
sg74
(lp3671
g67
(g68
g69
NtRp3672
(dp3673
g72
(dp3674
g80
I3
ssg81
g3668
sg74
(lp3675
S''
asbasbasbag67
(g83
g69
NtRp3676
(dp3677
g72
(dp3678
sg81
g3612
sg74
(lp3679
g67
(g88
g69
NtRp3680
(dp3681
g72
(dp3682
g92
g93
ssg81
g3676
sg74
(lp3683
g370
asbag67
(g88
g69
NtRp3684
(dp3685
g72
(dp3686
g99
g100
ssg81
g3676
sg74
(lp3687
S':'
asbag67
(g88
g69
NtRp3688
(dp3689
g72
(dp3690
sg81
g3676
sg74
(lp3691
g67
(g68
g69
NtRp3692
(dp3693
g72
(dp3694
g80
I3
ssg81
g3688
sg74
(lp3695
S''
asbasbasbag67
(g83
g69
NtRp3696
(dp3697
g72
(dp3698
sg81
g3612
sg74
(lp3699
g67
(g88
g69
NtRp3700
(dp3701
g72
(dp3702
g92
g93
ssg81
g3696
sg74
(lp3703
g391
asbag67
(g88
g69
NtRp3704
(dp3705
g72
(dp3706
g99
g100
ssg81
g3696
sg74
(lp3707
S':'
asbag67
(g88
g69
NtRp3708
(dp3709
g72
(dp3710
sg81
g3696
sg74
(lp3711
g67
(g68
g69
NtRp3712
(dp3713
g72
(dp3714
g80
I3
ssg81
g3708
sg74
(lp3715
S''
asbasbasbag67
(g83
g69
NtRp3716
(dp3717
g72
(dp3718
sg81
g3612
sg74
(lp3719
g67
(g88
g69
NtRp3720
(dp3721
g72
(dp3722
g92
g93
ssg81
g3716
sg74
(lp3723
g412
asbag67
(g88
g69
NtRp3724
(dp3725
g72
(dp3726
g99
g100
ssg81
g3716
sg74
(lp3727
S':'
asbag67
(g88
g69
NtRp3728
(dp3729
g72
(dp3730
sg81
g3716
sg74
(lp3731
g67
(g68
g69
NtRp3732
(dp3733
g72
(dp3734
g80
I3
ssg81
g3728
sg74
(lp3735
S'/'
asbasbasbag67
(g83
g69
NtRp3736
(dp3737
g72
(dp3738
sg81
g3612
sg74
(lp3739
g67
(g88
g69
NtRp3740
(dp3741
g72
(dp3742
g92
g93
ssg81
g3736
sg74
(lp3743
g433
asbag67
(g88
g69
NtRp3744
(dp3745
g72
(dp3746
g99
g100
ssg81
g3736
sg74
(lp3747
S':'
asbag67
(g88
g69
NtRp3748
(dp3749
g72
(dp3750
sg81
g3736
sg74
(lp3751
g67
(g68
g69
NtRp3752
(dp3753
g72
(dp3754
g80
I3
ssg81
g3748
sg74
(lp3755
S''
asbasbasbag67
(g83
g69
NtRp3756
(dp3757
g72
(dp3758
sg81
g3612
sg74
(lp3759
g67
(g88
g69
NtRp3760
(dp3761
g72
(dp3762
g92
g93
ssg81
g3756
sg74
(lp3763
g454
asbag67
(g88
g69
NtRp3764
(dp3765
g72
(dp3766
g99
g100
ssg81
g3756
sg74
(lp3767
S':'
asbag67
(g88
g69
NtRp3768
(dp3769
g72
(dp3770
sg81
g3756
sg74
(lp3771
g67
(g68
g69
NtRp3772
(dp3773
g72
(dp3774
g80
I3
ssg81
g3768
sg74
(lp3775
S''
asbasbasbasbasbasbasbasbasbasbasbag67
(g83
g69
NtRp3776
(dp3777
g72
(dp3778
sg81
g3542
sg74
(lp3779
g67
(g88
g69
NtRp3780
(dp3781
g72
(dp3782
g92
g93
ssg81
g3776
sg74
(lp3783
S'files'
p3784
asbag67
(g88
g69
NtRp3785
(dp3786
g72
(dp3787
g99
g100
ssg81
g3776
sg74
(lp3788
S':'
asbag67
(g88
g69
NtRp3789
(dp3790
g72
(dp3791
sg81
g3776
sg74
(lp3792
g67
(g68
g69
NtRp3793
(dp3794
g72
(dp3795
g80
I5
ssg81
g3789
sg74
(lp3796
g67
(g76
g69
NtRp3797
(dp3798
g72
(dp3799
g80
I4
ssg81
Nsg74
(lp3800
sbasbasbasbag67
(g83
g69
NtRp3801
(dp3802
g72
(dp3803
sg81
g3542
sg74
(lp3804
g67
(g88
g69
NtRp3805
(dp3806
g72
(dp3807
g92
g93
ssg81
g3801
sg74
(lp3808
S'flash'
p3809
asbag67
(g88
g69
NtRp3810
(dp3811
g72
(dp3812
g99
g100
ssg81
g3801
sg74
(lp3813
S':'
asbag67
(g88
g69
NtRp3814
(dp3815
g72
(dp3816
sg81
g3801
sg74
(lp3817
g67
(g68
g69
NtRp3818
(dp3819
g72
(dp3820
g80
I5
ssg81
g3814
sg74
(lp3821
S''
asbasbasbag67
(g83
g69
NtRp3822
(dp3823
g72
(dp3824
sg81
g3542
sg74
(lp3825
g67
(g88
g69
NtRp3826
(dp3827
g72
(dp3828
g92
g93
ssg81
g3822
sg74
(lp3829
S'generic_patterns'
p3830
asbag67
(g88
g69
NtRp3831
(dp3832
g72
(dp3833
g99
g100
ssg81
g3822
sg74
(lp3834
S':'
asbag67
(g88
g69
NtRp3835
(dp3836
g72
(dp3837
sg81
g3822
sg74
(lp3838
g67
(g68
g69
NtRp3839
(dp3840
g72
(dp3841
g80
I5
ssg81
g3835
sg74
(lp3842
g67
(g76
g69
NtRp3843
(dp3844
g72
(dp3845
g80
I4
ssg81
Nsg74
(lp3846
sbasbasbasbag67
(g83
g69
NtRp3847
(dp3848
g72
(dp3849
sg81
g3542
sg74
(lp3850
g67
(g88
g69
NtRp3851
(dp3852
g72
(dp3853
g92
g93
ssg81
g3847
sg74
(lp3854
S'headers'
p3855
asbag67
(g88
g69
NtRp3856
(dp3857
g72
(dp3858
g99
g100
ssg81
g3847
sg74
(lp3859
S':'
asbag67
(g88
g69
NtRp3860
(dp3861
g72
(dp3862
sg81
g3847
sg74
(lp3863
g67
(g68
g69
NtRp3864
(dp3865
g72
(dp3866
g80
I5
ssg81
g3860
sg74
(lp3867
g67
(g76
g69
NtRp3868
(dp3869
g72
(dp3870
g80
I4
ssg81
Nsg74
(lp3871
g67
(g83
g69
NtRp3872
(dp3873
g72
(dp3874
sg81
g3868
sg74
(lp3875
g67
(g88
g69
NtRp3876
(dp3877
g72
(dp3878
g92
g93
ssg81
g3872
sg74
(lp3879
S'Cache-Control'
p3880
asbag67
(g88
g69
NtRp3881
(dp3882
g72
(dp3883
g99
g100
ssg81
g3872
sg74
(lp3884
S':'
asbag67
(g88
g69
NtRp3885
(dp3886
g72
(dp3887
sg81
g3872
sg74
(lp3888
g67
(g68
g69
NtRp3889
(dp3890
g72
(dp3891
g80
I4
ssg81
g3885
sg74
(lp3892
S'no-store, no-cache, must-revalidate, post-check=0, pre-check=0'
p3893
asbasbasbag67
(g83
g69
NtRp3894
(dp3895
g72
(dp3896
sg81
g3868
sg74
(lp3897
g67
(g88
g69
NtRp3898
(dp3899
g72
(dp3900
g92
g93
ssg81
g3894
sg74
(lp3901
S'Content-Type'
p3902
asbag67
(g88
g69
NtRp3903
(dp3904
g72
(dp3905
g99
g100
ssg81
g3894
sg74
(lp3906
S':'
asbag67
(g88
g69
NtRp3907
(dp3908
g72
(dp3909
sg81
g3894
sg74
(lp3910
g67
(g68
g69
NtRp3911
(dp3912
g72
(dp3913
g80
I4
ssg81
g3907
sg74
(lp3914
S'text/html; charset=utf-8'
p3915
asbasbasbag67
(g83
g69
NtRp3916
(dp3917
g72
(dp3918
sg81
g3868
sg74
(lp3919
g67
(g88
g69
NtRp3920
(dp3921
g72
(dp3922
g92
g93
ssg81
g3916
sg74
(lp3923
S'Expires'
p3924
asbag67
(g88
g69
NtRp3925
(dp3926
g72
(dp3927
g99
g100
ssg81
g3916
sg74
(lp3928
S':'
asbag67
(g88
g69
NtRp3929
(dp3930
g72
(dp3931
sg81
g3916
sg74
(lp3932
g67
(g68
g69
NtRp3933
(dp3934
g72
(dp3935
g80
I4
ssg81
g3929
sg74
(lp3936
S'Thu, 08 Sep 2011 00:12:48 GMT'
p3937
asbasbasbag67
(g83
g69
NtRp3938
(dp3939
g72
(dp3940
sg81
g3868
sg74
(lp3941
g67
(g88
g69
NtRp3942
(dp3943
g72
(dp3944
g92
g93
ssg81
g3938
sg74
(lp3945
S'Pragma'
p3946
asbag67
(g88
g69
NtRp3947
(dp3948
g72
(dp3949
g99
g100
ssg81
g3938
sg74
(lp3950
S':'
asbag67
(g88
g69
NtRp3951
(dp3952
g72
(dp3953
sg81
g3938
sg74
(lp3954
g67
(g68
g69
NtRp3955
(dp3956
g72
(dp3957
g80
I4
ssg81
g3951
sg74
(lp3958
S'no-cache'
p3959
asbasbasbag67
(g83
g69
NtRp3960
(dp3961
g72
(dp3962
sg81
g3868
sg74
(lp3963
g67
(g88
g69
NtRp3964
(dp3965
g72
(dp3966
g92
g93
ssg81
g3960
sg74
(lp3967
S'X-Powered-By'
p3968
asbag67
(g88
g69
NtRp3969
(dp3970
g72
(dp3971
g99
g100
ssg81
g3960
sg74
(lp3972
S':'
asbag67
(g88
g69
NtRp3973
(dp3974
g72
(dp3975
sg81
g3960
sg74
(lp3976
g67
(g68
g69
NtRp3977
(dp3978
g72
(dp3979
g80
I4
ssg81
g3973
sg74
(lp3980
S'web2py'
p3981
asbasbasbasbasbasbasbag67
(g83
g69
NtRp3982
(dp3983
g72
(dp3984
sg81
g3542
sg74
(lp3985
g67
(g88
g69
NtRp3986
(dp3987
g72
(dp3988
g92
g93
ssg81
g3982
sg74
(lp3989
S'menu'
p3990
asbag67
(g88
g69
NtRp3991
(dp3992
g72
(dp3993
g99
g100
ssg81
g3982
sg74
(lp3994
S':'
asbag67
(g88
g69
NtRp3995
(dp3996
g72
(dp3997
sg81
g3982
sg74
(lp3998
g67
(g68
g69
NtRp3999
(dp4000
g72
(dp4001
g80
I5
ssg81
g3995
sg74
(lp4002
g67
(g76
g69
NtRp4003
(dp4004
g72
(dp4005
g80
I4
ssg81
Nsg74
(lp4006
sbasbasbasbag67
(g83
g69
NtRp4007
(dp4008
g72
(dp4009
sg81
g3542
sg74
(lp4010
g67
(g88
g69
NtRp4011
(dp4012
g72
(dp4013
g92
g93
ssg81
g4007
sg74
(lp4014
S'meta'
p4015
asbag67
(g88
g69
NtRp4016
(dp4017
g72
(dp4018
g99
g100
ssg81
g4007
sg74
(lp4019
S':'
asbag67
(g88
g69
NtRp4020
(dp4021
g72
(dp4022
sg81
g4007
sg74
(lp4023
g67
(g68
g69
NtRp4024
(dp4025
g72
(dp4026
g80
I5
ssg81
g4020
sg74
(lp4027
g67
(g76
g69
NtRp4028
(dp4029
g72
(dp4030
g80
I4
ssg81
Nsg74
(lp4031
sbasbasbasbag67
(g83
g69
NtRp4032
(dp4033
g72
(dp4034
sg81
g3542
sg74
(lp4035
g67
(g88
g69
NtRp4036
(dp4037
g72
(dp4038
g92
g93
ssg81
g4032
sg74
(lp4039
S'postprocessing'
p4040
asbag67
(g88
g69
NtRp4041
(dp4042
g72
(dp4043
g99
g100
ssg81
g4032
sg74
(lp4044
S':'
asbag67
(g88
g69
NtRp4045
(dp4046
g72
(dp4047
sg81
g4032
sg74
(lp4048
g67
(g68
g69
NtRp4049
(dp4050
g72
(dp4051
g80
I5
ssg81
g4045
sg74
(lp4052
g67
(g76
g69
NtRp4053
(dp4054
g72
(dp4055
g80
I4
ssg81
Nsg74
(lp4056
sbasbasbasbag67
(g83
g69
NtRp4057
(dp4058
g72
(dp4059
sg81
g3542
sg74
(lp4060
g67
(g88
g69
NtRp4061
(dp4062
g72
(dp4063
g92
g93
ssg81
g4057
sg74
(lp4064
S'session_file'
p4065
asbag67
(g88
g69
NtRp4066
(dp4067
g72
(dp4068
g99
g100
ssg81
g4057
sg74
(lp4069
S':'
asbag67
(g88
g69
NtRp4070
(dp4071
g72
(dp4072
sg81
g4057
sg74
(lp4073
g67
(g68
g69
NtRp4074
(dp4075
g72
(dp4076
g80
I5
ssg81
g4070
sg74
(lp4077
S"<open file '/home/alumno/web2py/applications/datos/sessions/127.0.0.1-db62c583-5264-4eba-ba24-7cb87b43795a', mode 'rb+' at 0xa325180>"
p4078
asbasbasbag67
(g83
g69
NtRp4079
(dp4080
g72
(dp4081
sg81
g3542
sg74
(lp4082
g67
(g88
g69
NtRp4083
(dp4084
g72
(dp4085
g92
g93
ssg81
g4079
sg74
(lp4086
S'session_filename'
p4087
asbag67
(g88
g69
NtRp4088
(dp4089
g72
(dp4090
g99
g100
ssg81
g4079
sg74
(lp4091
S':'
asbag67
(g88
g69
NtRp4092
(dp4093
g72
(dp4094
sg81
g4079
sg74
(lp4095
g67
(g68
g69
NtRp4096
(dp4097
g72
(dp4098
g80
I5
ssg81
g4092
sg74
(lp4099
S'/home/alumno/web2py/applications/datos/sessions/127.0.0.1-db62c583-5264-4eba-ba24-7cb87b43795a'
p4100
asbasbasbag67
(g83
g69
NtRp4101
(dp4102
g72
(dp4103
sg81
g3542
sg74
(lp4104
g67
(g88
g69
NtRp4105
(dp4106
g72
(dp4107
g92
g93
ssg81
g4101
sg74
(lp4108
S'session_id'
p4109
asbag67
(g88
g69
NtRp4110
(dp4111
g72
(dp4112
g99
g100
ssg81
g4101
sg74
(lp4113
S':'
asbag67
(g88
g69
NtRp4114
(dp4115
g72
(dp4116
sg81
g4101
sg74
(lp4117
g67
(g68
g69
NtRp4118
(dp4119
g72
(dp4120
g80
I5
ssg81
g4114
sg74
(lp4121
S'127.0.0.1-db62c583-5264-4eba-ba24-7cb87b43795a'
p4122
asbasbasbag67
(g83
g69
NtRp4123
(dp4124
g72
(dp4125
sg81
g3542
sg74
(lp4126
g67
(g88
g69
NtRp4127
(dp4128
g72
(dp4129
g92
g93
ssg81
g4123
sg74
(lp4130
S'session_id_name'
p4131
asbag67
(g88
g69
NtRp4132
(dp4133
g72
(dp4134
g99
g100
ssg81
g4123
sg74
(lp4135
S':'
asbag67
(g88
g69
NtRp4136
(dp4137
g72
(dp4138
sg81
g4123
sg74
(lp4139
g67
(g68
g69
NtRp4140
(dp4141
g72
(dp4142
g80
I5
ssg81
g4136
sg74
(lp4143
g3599
asbasbasbag67
(g83
g69
NtRp4144
(dp4145
g72
(dp4146
sg81
g3542
sg74
(lp4147
g67
(g88
g69
NtRp4148
(dp4149
g72
(dp4150
g92
g93
ssg81
g4144
sg74
(lp4151
S'session_locked'
p4152
asbag67
(g88
g69
NtRp4153
(dp4154
g72
(dp4155
g99
g100
ssg81
g4144
sg74
(lp4156
S':'
asbag67
(g88
g69
NtRp4157
(dp4158
g72
(dp4159
sg81
g4144
sg74
(lp4160
g67
(g68
g69
NtRp4161
(dp4162
g72
(dp4163
g80
I5
ssg81
g4157
sg74
(lp4164
g2105
asbasbasbag67
(g83
g69
NtRp4165
(dp4166
g72
(dp4167
sg81
g3542
sg74
(lp4168
g67
(g88
g69
NtRp4169
(dp4170
g72
(dp4171
g92
g93
ssg81
g4165
sg74
(lp4172
S'session_new'
p4173
asbag67
(g88
g69
NtRp4174
(dp4175
g72
(dp4176
g99
g100
ssg81
g4165
sg74
(lp4177
S':'
asbag67
(g88
g69
NtRp4178
(dp4179
g72
(dp4180
sg81
g4165
sg74
(lp4181
g67
(g68
g69
NtRp4182
(dp4183
g72
(dp4184
g80
I5
ssg81
g4178
sg74
(lp4185
g110
asbasbasbag67
(g83
g69
NtRp4186
(dp4187
g72
(dp4188
sg81
g3542
sg74
(lp4189
g67
(g88
g69
NtRp4190
(dp4191
g72
(dp4192
g92
g93
ssg81
g4186
sg74
(lp4193
S'status'
p4194
asbag67
(g88
g69
NtRp4195
(dp4196
g72
(dp4197
g99
g100
ssg81
g4186
sg74
(lp4198
S':'
asbag67
(g88
g69
NtRp4199
(dp4200
g72
(dp4201
sg81
g4186
sg74
(lp4202
g67
(g68
g69
NtRp4203
(dp4204
g72
(dp4205
g80
I5
ssg81
g4199
sg74
(lp4206
S'200'
p4207
asbasbasbag67
(g83
g69
NtRp4208
(dp4209
g72
(dp4210
sg81
g3542
sg74
(lp4211
g67
(g88
g69
NtRp4212
(dp4213
g72
(dp4214
g92
g93
ssg81
g4208
sg74
(lp4215
g2583
asbag67
(g88
g69
NtRp4216
(dp4217
g72
(dp4218
g99
g100
ssg81
g4208
sg74
(lp4219
S':'
asbag67
(g88
g69
NtRp4220
(dp4221
g72
(dp4222
sg81
g4208
sg74
(lp4223
g67
(g68
g69
NtRp4224
(dp4225
g72
(dp4226
g80
I5
ssg81
g4220
sg74
(lp4227
g2596
asbasbasbag67
(g83
g69
NtRp4228
(dp4229
g72
(dp4230
sg81
g3542
sg74
(lp4231
g67
(g88
g69
NtRp4232
(dp4233
g72
(dp4234
g92
g93
ssg81
g4228
sg74
(lp4235
S'view'
p4236
asbag67
(g88
g69
NtRp4237
(dp4238
g72
(dp4239
g99
g100
ssg81
g4228
sg74
(lp4240
S':'
asbag67
(g88
g69
NtRp4241
(dp4242
g72
(dp4243
sg81
g4228
sg74
(lp4244
g67
(g68
g69
NtRp4245
(dp4246
g72
(dp4247
g80
I5
ssg81
g4241
sg74
(lp4248
S'appadmin/insert.html'
p4249
asbasbasbasbasbsS'locals'
p4250
(dp4251
g3
S"'/home/alumno/web2py/applications/datos/models/db.py'"
p4252
sg5
S'"# -*- coding: utf-8 -*-\\n\\ndb = DAL(\'sqlite://dato...IS_EMAIL()\\n.alumno.hobby.default = \'Estudiar :P\'\\n"'
p4253
sssS'traceback'
p4254
S'Traceback (most recent call last):\n  File "/home/alumno/web2py/gluon/restricted.py", line 191, in restricted\n    ccode = compile2(code,layer)\n  File "/home/alumno/web2py/gluon/restricted.py", line 178, in compile2\n    return compile(code.rstrip().replace(\'\\r\\n\',\'\\n\')+\'\\n\', layer, \'exec\')\n  File "/home/alumno/web2py/applications/datos/models/db.py", line 11\n    .alumno.codigo.requires = IS_NOT_EMPTY(error_message=\'no puede estar vacio\')\n    ^\nSyntaxError: invalid syntax\n'
p4255
s.