(dp1
S'output'
p2
S''
sS'layer'
p3
S'/home/alumno/web2py/applications/datos/views/default/index.html'
p4
sS'code'
p5
S'response.write(\'<!DOCTYPE html>\\n<html lang="\', escape=False)\nresponse.write(T.accepted_language or \'en\')\nresponse.write(\'" class="no-js"><!-- no-js need it for modernzr -->\\n  <head>\\n    \\n    <meta charset="utf-8" />\\t  \\t\\n    <!-- www.phpied.com/conditional-comments-block-downloads/ -->\\n    <!--[if IE]><![endif]-->    \\n    <!-- Always force latest IE rendering engine \\n\\t (even in intranet) & Chrome Frame \\n\\t Remove this if you use the .htaccess -->\\n    <meta http-equiv="X-UA-Compatible" content="IE=edge,chrome=1">\\n    \\n    <title>\', escape=False)\nresponse.write(response.title or request.application)\nresponse.write(\'</title>\\n    \\n    <!-- http://dev.w3.org/html5/markup/meta.name.html -->\\n    <meta name="application-name" content="\', escape=False)\nresponse.write(request.application)\nresponse.write(\'" />\\t\\n    \\n    <!-- Speaking of Google, don\\\'t forget to set your site up: \\n\\t http://google.com/webmasters -->\\n    <meta name="google-site-verification" content="" />\\n    \\n    <!--  Mobile Viewport Fix\\n\\t  j.mp/mobileviewport & davidbcalhoun.com/2010/viewport-metatag \\n\\t  device-width: Occupy full width of the screen in its current orientation\\n\\t  initial-scale = 1.0 retains dimensions instead of zooming out if page height > device height\\n\\t  maximum-scale = 1.0 retains dimensions instead of zooming in if page width < device width\\n      -->\\n    <meta name="viewport" content="width=device-width, initial-scale=1.0, maximum-scale=1.0">\\n    \\n    <!-- Place favicon.ico and apple-touch-icon.png in the root of your domain and delete these references -->\\n    <link rel="shortcut icon" href="\', escape=False)\nresponse.write(URL(\'static\',\'favicon.ico\'))\nresponse.write(\'" type="image/x-icon">\\n    <link rel="apple-touch-icon" href="\', escape=False)\nresponse.write(URL(\'static\',\'favicon.png\'))\nresponse.write(\'">\\n\\n    <!-- For the less-enabled mobile browsers like Opera Mini -->\\n    <link rel="stylesheet" media="handheld" href="\', escape=False)\nresponse.write(URL(\'static\',\'css/handheld.css\'))\nresponse.write(\'">\\n    \\n    <!-- All JavaScript at the bottom, except for Modernizr which enables HTML5 elements & feature detects -->\\n    <script src="\', escape=False)\nresponse.write(URL(\'static\',\'js/modernizr-1.7.min.js\'))\nresponse.write(\'"></script>\\n    \\n    \', escape=False)\n#------  require CSS and JS files for this page (read info in base.css) ------\nresponse.write(\'\\n    \', escape=False)\nresponse.files.append(URL(\'static\',\'css/base.css\'))\nresponse.write(\'\\n    \', escape=False)\nresponse.files.append(URL(\'static\',\'css/superfish.css\'))\nresponse.write(\'\\n    \', escape=False)\nresponse.files.append(URL(\'static\',\'js/superfish.js\'))\nresponse.write(\'\\n    \', escape=False)\n#------ include web2py specific js code (jquery, calendar, form stuff) ------\nresponse.write(\'\\n    \', escape=False)\nresponse.files.insert(0,URL(\'static\',\'js/jquery.js\'))\nresponse.files.insert(1,URL(\'static\',\'css/calendar.css\'))\nresponse.files.insert(2,URL(\'static\',\'js/calendar.js\'))\nfor _item in response.meta or []:\n    response.write(\'\\n     <meta name="\', escape=False)\n    response.write(_item)\n    response.write(\'" content="\', escape=False)\n    response.write(response.meta[_item])\n    response.write(\'" />\', escape=False)\n    pass\nfor _k,_file in enumerate(response.files or []):\n    if _file in response.files[:_k]:\n        continue\n    _file0=_file.lower().split(\'?\')[0]\n    if _file0.endswith(\'.css\'):\n        response.write(\'\\n     <link href="\', escape=False)\n        response.write(_file)\n        response.write(\'" rel="stylesheet" type="text/css" />\', escape=False)\n    elif _file0.endswith(\'.js\'):\n        response.write(\'\\n     <script src="\', escape=False)\n        response.write(_file)\n        response.write(\'" type="text/javascript"></script>\', escape=False)\n        pass\n    pass\nresponse.write(\'\\n    <script type="text/javascript"><!--\\n    // These variables are used by the web2py_ajax_init function in web2py_ajax.js (which is loaded below).\\n    var w2p_ajax_confirm_message = "\', escape=False)\nresponse.write(T(\'Are you sure you want to delete this object?\'))\nresponse.write(\'";\\n    var w2p_ajax_date_format = "\', escape=False)\nresponse.write(T(\'%Y-%m-%d\'))\nresponse.write(\'";\\n    var w2p_ajax_datetime_format = "\', escape=False)\nresponse.write(T(\'%Y-%m-%d %H:%M:%S\'))\nresponse.write(\'";\\n    //--></script>\\n    <script src="\', escape=False)\nresponse.write(URL(\'static\',\'js/web2py_ajax.js\'))\nresponse.write(\'" type="text/javascript"></script>\\n\', escape=False)\nresponse.write(\'\\n\\n    \', escape=False)\n#using sidebars need to know what sidebar you want to use\n#prior of using it, because of static width size of content, you can use\n#left_sidebar, right_sidebar, both or none (False left and right)\nleft_sidebar_enabled = globals().get(\'left_sidebar_enabled\',False)\nright_sidebar_enabled = globals().get(\'right_sidebar_enabled\',False)\nif left_sidebar_enabled and right_sidebar_enabled: width_content=\'63%\'\nelif left_sidebar_enabled != right_sidebar_enabled: width_content=\'740px\'\nelse: width_content=\'100%\'\nif left_sidebar_enabled: left_sidebar_style = \'style="display: block;"\'\nelse: left_sidebar_style = \'style="display: none;"\'\nif right_sidebar_enabled: right_sidebar_style = \'style="display: block;"\'\nelse: right_sidebar_style = \'style="display: none;"\'\nstyle_content = \'style="width: %s"\' % width_content\nresponse.write(\'\\n  </head>\\n  \\n  <!-- paulirish.com/2008/conditional-stylesheets-vs-css-hacks-answer-neither/ -->\\t\\n  <!--[if lt IE 7 ]> <body class="ie6"> <![endif]-->\\n  <!--[if IE 7 ]>    <body class="ie7"> <![endif]-->\\n  <!--[if IE 8 ]>    <body class="ie8"> <![endif]-->\\n  <!--[if IE 9 ]>    <body class="ie9"> <![endif]-->\\n  <!--[if (gt IE 9)|!(IE)]><!--> <body> <!--<![endif]-->\\n    \\n    <div class="flash">\', escape=False)\nresponse.write(response.flash or \'\')\nresponse.write(\'</div> <!-- notification div -->\\n    \\n    <div id="container">\\t      \\t\\t      \\t\\n      \\n      <div id="wrapper">\\t\\t\\n\\t\\n\\t<div id="header"> <!-- header and login nav -->\\n\\t  \', escape=False)\nresponse.write(\' <!-- this is default header -->\\n\\t  \', escape=False)\ntry:\n    response.write(auth.navbar(action=URL(\'default\',\'user\')))\nexcept:pass\nresponse.write(\'\\t\\t          \\n\\t  <h1><span id="appname">\', escape=False)\nresponse.write(request.application.capitalize())\nresponse.write(\'</span>App</h1>\\n\\t  <div style="clear: both;"></div><!-- Clear the divs -->\\n\\t  \', escape=False)\nresponse.write(\'\\t\\t\\t\\t  \\t\\t\\t\\t\\t  \\n\\t</div><!-- header  -->\\n\\t\\n\\t<div id="statusbar"><!-- statusbar is menu zone -->\\n\\t  \', escape=False)\nresponse.write(\' <!-- this is default statusbar -->\\n\\t  \', escape=False)\n#------ superfish menu ------\nresponse.write(\'\\n\\t  \', escape=False)\nresponse.write(MENU(response.menu,_class=\'sf-menu\'))\nresponse.write(\'\\n\\t  <script type="text/javascript">\\n\\t    jQuery(document).ready(function(){\\n\\t    jQuery(\\\'ul.sf-menu\\\').superfish();});\\n\\t  </script>\\n\\t  <div style="clear: both;"></div><!-- Clear the divs -->\\t\\n\\t  \', escape=False)\nresponse.write(\'\\t\\t\\t\\t\\n\\t</div><!-- statusbar -->\\n\\t\\n\\t<div id="page"> <!-- Here my central body -->\\t  \\n\\n\\t  \', escape=False)\nif left_sidebar_enabled:\n    response.write(\'\\n          <div id="left_sidebar" \', escape=False)\n    response.write(XML(left_sidebar_style))\n    response.write(\' >\\n            <div style="padding: 4px;">\\n\\t      \', escape=False)\n    response.write(\'Content Left Sidebar\', escape=False)\n    response.write(\'\\t\\t  \\n            </div>\\n          </div><!-- left_sidebar -->\\n\\t  \', escape=False)\n    pass\nresponse.write(\'\\n\\n\\t  <!-- content -->\\n\\t  <div id="content" \', escape=False)\nresponse.write(XML(style_content))\nresponse.write(\' >\\n\\t    \', escape=False)\nresponse.write(\'\\n<h1>Alumnos</h1>\\n<p>Este es el registro dde alumnos en el sistema\\n\', escape=False)\nfor alumno in alumnos:\n    response.write(\'\\n\\t\', escape=False)\n    response.write(alumno.nombre)\n    response.write(\'\\n\', escape=False)\n    pass\nresponse.write(\'\\n</p>\\n\', escape=False)\nresponse.write(\'\\t\\n\\t  </div>\\n\\t  <!-- content -->\\n\\n\\t  \', escape=False)\nif right_sidebar_enabled:\n    response.write(\'\\n          <div id="right_sidebar" \', escape=False)\n    response.write(XML(right_sidebar_style))\n    response.write(\' >\\n            <div style="padding: 4px;">\\n              \', escape=False)\n    response.write(\'Content Right Sidebar\', escape=False)\n    response.write(\'\\n            </div>\\n\\t  </div><!-- right_sidebar -->\\n          \', escape=False)\n    pass\nresponse.write(\'\\n\\n\\n\\t  <div style="clear: both;"></div><!-- Clear the divs -->\\n\\t  \\n\\t</div><!-- page -->\\t\\t\\t\\t\\t\\t\\t\\n\\t\\n\\t<div id="footer">\\n\\t  \', escape=False)\nresponse.write(\' <!-- this is default footer -->\\n\\t  <a href="http://www.web2py.com/" style="float: left; padding-right: 6px;">\\n\\t    <img src="\', escape=False)\nresponse.write(URL(\'static\',\'images/poweredby.png\'))\nresponse.write(\'"/>\\n\\t  </a>\\n\\t  \', escape=False)\nresponse.write(T(\'Copyright\'))\nresponse.write(\' &#169; 2010\\t\\t\\t\\t\\n\\t  <div style="clear: both;"></div><!-- Clear the divs -->\\n\\t  \', escape=False)\nresponse.write(\'\\n\\n\\t</div><!-- footer -->\\t\\t\\t\\n      </div><!-- wrapper -->\\n    </div><!-- container -->\\t\\t\\n    \\n    <!--[if lt IE 7 ]>\\n\\t<script src="\', escape=False)\nresponse.write(URL(\'static\',\'js/dd_belatedpng.js\'))\nresponse.write(\'"></script>\\n\\t<script> DD_belatedPNG.fix(\\\'img, .png_bg\\\'); //fix any <img> or .png_bg background-images </script>\\n\\t<![endif]-->\\n    \\n    <!-- asynchronous google analytics: mathiasbynens.be/notes/async-analytics-snippet \\n\\t change the UA-XXXXX-X to be your site\\\'s ID -->\\n    <!--   \\n\\t   <script>\\n\\t     var _gaq = [[\\\'_setAccount\\\', \\\'UA-XXXXX-X\\\'], [\\\'_trackPageview\\\']];\\n\\t     (function(d, t) {\\n\\t     var g = d.createElement(t),\\n\\t     s = d.getElementsByTagName(t)[0];\\n\\t     g.async = true;\\n\\t     g.src = \\\'//www.google-analytics.com/ga.js\\\';\\n\\t     s.parentNode.insertBefore(g, s);\\n\\t     })(document, \\\'script\\\');\\n\\t   </script>\\n\\t   -->    \\n  </body>\\n</html>\\n\', escape=False)'
p6
sS'snapshot'
p7
(dp8
S'exception'
p9
(dp10
S'__hash__'
p11
S"<method-wrapper '__hash__' of exceptions.KeyError object>"
p12
sS'__setattr__'
p13
S"<method-wrapper '__setattr__' of exceptions.KeyError object>"
p14
sS'__reduce_ex__'
p15
S'<built-in method __reduce_ex__ of exceptions.KeyError object>'
p16
sS'__getslice__'
p17
S"<method-wrapper '__getslice__' of exceptions.KeyError object>"
p18
sS'__getitem__'
p19
S"<method-wrapper '__getitem__' of exceptions.KeyError object>"
p20
sS'__setstate__'
p21
S'<built-in method __setstate__ of exceptions.KeyError object>'
p22
sS'__reduce__'
p23
S'<built-in method __reduce__ of exceptions.KeyError object>'
p24
sS'__str__'
p25
S"<method-wrapper '__str__' of exceptions.KeyError object>"
p26
sS'__format__'
p27
S'<built-in method __format__ of exceptions.KeyError object>'
p28
sS'__getattribute__'
p29
S"<method-wrapper '__getattribute__' of exceptions.KeyError object>"
p30
sS'__class__'
p31
S"<type 'exceptions.KeyError'>"
p32
sS'__unicode__'
p33
S'<built-in method __unicode__ of exceptions.KeyError object>'
p34
sS'__delattr__'
p35
S"<method-wrapper '__delattr__' of exceptions.KeyError object>"
p36
sS'__subclasshook__'
p37
S'<built-in method __subclasshook__ of type object>'
p38
sS'__repr__'
p39
S"<method-wrapper '__repr__' of exceptions.KeyError object>"
p40
sS'args'
p41
S"('nombre',)"
p42
sS'__dict__'
p43
S'{}'
p44
sS'__sizeof__'
p45
S'<built-in method __sizeof__ of exceptions.KeyError object>'
p46
sS'__doc__'
p47
S"'Mapping key not found.'"
p48
sS'__init__'
p49
S"<method-wrapper '__init__' of exceptions.KeyError object>"
p50
sS'__new__'
p51
S'<built-in method __new__ of type object>'
p52
ssS'evalue'
p53
S"'nombre'"
p54
sS'request'
p55
ccopy_reg
_reconstructor
p56
(cgluon.html
BEAUTIFY
p57
c__builtin__
object
p58
NtRp59
(dp60
S'attributes'
p61
(dp62
sS'components'
p63
(lp64
g56
(cgluon.html
TABLE
p65
g58
NtRp66
(dp67
g61
(dp68
S'level'
p69
I5
ssS'parent'
p70
Nsg63
(lp71
g56
(cgluon.html
TR
p72
g58
NtRp73
(dp74
g61
(dp75
sg70
g66
sg63
(lp76
g56
(cgluon.html
TD
p77
g58
NtRp78
(dp79
g61
(dp80
S'_style'
p81
S'font-weight:bold;'
p82
ssg70
g73
sg63
(lp83
S'ajax'
p84
asbag56
(g77
g58
NtRp85
(dp86
g61
(dp87
S'_valign'
p88
S'top'
p89
ssg70
g73
sg63
(lp90
S':'
asbag56
(g77
g58
NtRp91
(dp92
g61
(dp93
sg70
g73
sg63
(lp94
g56
(g57
g58
NtRp95
(dp96
g61
(dp97
g69
I5
ssg70
g91
sg63
(lp98
S'False'
p99
asbasbasbag56
(g72
g58
NtRp100
(dp101
g61
(dp102
sg70
g66
sg63
(lp103
g56
(g77
g58
NtRp104
(dp105
g61
(dp106
g81
g82
ssg70
g100
sg63
(lp107
S'application'
p108
asbag56
(g77
g58
NtRp109
(dp110
g61
(dp111
g88
g89
ssg70
g100
sg63
(lp112
S':'
asbag56
(g77
g58
NtRp113
(dp114
g61
(dp115
sg70
g100
sg63
(lp116
g56
(g57
g58
NtRp117
(dp118
g61
(dp119
g69
I5
ssg70
g113
sg63
(lp120
S'datos'
p121
asbasbasbag56
(g72
g58
NtRp122
(dp123
g61
(dp124
sg70
g66
sg63
(lp125
g56
(g77
g58
NtRp126
(dp127
g61
(dp128
g81
g82
ssg70
g122
sg63
(lp129
g41
asbag56
(g77
g58
NtRp130
(dp131
g61
(dp132
g88
g89
ssg70
g122
sg63
(lp133
S':'
asbag56
(g77
g58
NtRp134
(dp135
g61
(dp136
sg70
g122
sg63
(lp137
g56
(g57
g58
NtRp138
(dp139
g61
(dp140
g69
I5
ssg70
g134
sg63
(lp141
g56
(g65
g58
NtRp142
(dp143
g61
(dp144
g69
I4
ssg70
Nsg63
(lp145
sbasbasbasbag56
(g72
g58
NtRp146
(dp147
g61
(dp148
sg70
g66
sg63
(lp149
g56
(g77
g58
NtRp150
(dp151
g61
(dp152
g81
g82
ssg70
g146
sg63
(lp153
S'body'
p154
asbag56
(g77
g58
NtRp155
(dp156
g61
(dp157
g88
g89
ssg70
g146
sg63
(lp158
S':'
asbag56
(g77
g58
NtRp159
(dp160
g61
(dp161
sg70
g146
sg63
(lp162
g56
(g57
g58
NtRp163
(dp164
g61
(dp165
g69
I5
ssg70
g159
sg63
(lp166
S'<cStringIO.StringO object at 0x9554b40>'
p167
asbasbasbag56
(g72
g58
NtRp168
(dp169
g61
(dp170
sg70
g66
sg63
(lp171
g56
(g77
g58
NtRp172
(dp173
g61
(dp174
g81
g82
ssg70
g168
sg63
(lp175
S'client'
p176
asbag56
(g77
g58
NtRp177
(dp178
g61
(dp179
g88
g89
ssg70
g168
sg63
(lp180
S':'
asbag56
(g77
g58
NtRp181
(dp182
g61
(dp183
sg70
g168
sg63
(lp184
g56
(g57
g58
NtRp185
(dp186
g61
(dp187
g69
I5
ssg70
g181
sg63
(lp188
S'127.0.0.1'
p189
asbasbasbag56
(g72
g58
NtRp190
(dp191
g61
(dp192
sg70
g66
sg63
(lp193
g56
(g77
g58
NtRp194
(dp195
g61
(dp196
g81
g82
ssg70
g190
sg63
(lp197
S'controller'
p198
asbag56
(g77
g58
NtRp199
(dp200
g61
(dp201
g88
g89
ssg70
g190
sg63
(lp202
S':'
asbag56
(g77
g58
NtRp203
(dp204
g61
(dp205
sg70
g190
sg63
(lp206
g56
(g57
g58
NtRp207
(dp208
g61
(dp209
g69
I5
ssg70
g203
sg63
(lp210
S'default'
p211
asbasbasbag56
(g72
g58
NtRp212
(dp213
g61
(dp214
sg70
g66
sg63
(lp215
g56
(g77
g58
NtRp216
(dp217
g61
(dp218
g81
g82
ssg70
g212
sg63
(lp219
S'cookies'
p220
asbag56
(g77
g58
NtRp221
(dp222
g61
(dp223
g88
g89
ssg70
g212
sg63
(lp224
S':'
asbag56
(g77
g58
NtRp225
(dp226
g61
(dp227
sg70
g212
sg63
(lp228
g56
(g57
g58
NtRp229
(dp230
g61
(dp231
g69
I5
ssg70
g225
sg63
(lp232
g56
(g65
g58
NtRp233
(dp234
g61
(dp235
g69
I4
ssg70
Nsg63
(lp236
g56
(g72
g58
NtRp237
(dp238
g61
(dp239
sg70
g233
sg63
(lp240
g56
(g77
g58
NtRp241
(dp242
g61
(dp243
g81
g82
ssg70
g237
sg63
(lp244
S'adminLanguage'
p245
asbag56
(g77
g58
NtRp246
(dp247
g61
(dp248
g88
g89
ssg70
g237
sg63
(lp249
S':'
asbag56
(g77
g58
NtRp250
(dp251
g61
(dp252
sg70
g237
sg63
(lp253
g56
(g57
g58
NtRp254
(dp255
g61
(dp256
g69
I4
ssg70
g250
sg63
(lp257
g56
(g65
g58
NtRp258
(dp259
g61
(dp260
g69
I3
ssg70
Nsg63
(lp261
g56
(g72
g58
NtRp262
(dp263
g61
(dp264
sg70
g258
sg63
(lp265
g56
(g77
g58
NtRp266
(dp267
g61
(dp268
g81
g82
ssg70
g262
sg63
(lp269
S'comment'
p270
asbag56
(g77
g58
NtRp271
(dp272
g61
(dp273
g88
g89
ssg70
g262
sg63
(lp274
S':'
asbag56
(g77
g58
NtRp275
(dp276
g61
(dp277
sg70
g262
sg63
(lp278
g56
(g57
g58
NtRp279
(dp280
g61
(dp281
g69
I3
ssg70
g275
sg63
(lp282
S''
asbasbasbag56
(g72
g58
NtRp283
(dp284
g61
(dp285
sg70
g258
sg63
(lp286
g56
(g77
g58
NtRp287
(dp288
g61
(dp289
g81
g82
ssg70
g283
sg63
(lp290
S'domain'
p291
asbag56
(g77
g58
NtRp292
(dp293
g61
(dp294
g88
g89
ssg70
g283
sg63
(lp295
S':'
asbag56
(g77
g58
NtRp296
(dp297
g61
(dp298
sg70
g283
sg63
(lp299
g56
(g57
g58
NtRp300
(dp301
g61
(dp302
g69
I3
ssg70
g296
sg63
(lp303
S''
asbasbasbag56
(g72
g58
NtRp304
(dp305
g61
(dp306
sg70
g258
sg63
(lp307
g56
(g77
g58
NtRp308
(dp309
g61
(dp310
g81
g82
ssg70
g304
sg63
(lp311
S'expires'
p312
asbag56
(g77
g58
NtRp313
(dp314
g61
(dp315
g88
g89
ssg70
g304
sg63
(lp316
S':'
asbag56
(g77
g58
NtRp317
(dp318
g61
(dp319
sg70
g304
sg63
(lp320
g56
(g57
g58
NtRp321
(dp322
g61
(dp323
g69
I3
ssg70
g317
sg63
(lp324
S''
asbasbasbag56
(g72
g58
NtRp325
(dp326
g61
(dp327
sg70
g258
sg63
(lp328
g56
(g77
g58
NtRp329
(dp330
g61
(dp331
g81
g82
ssg70
g325
sg63
(lp332
S'httponly'
p333
asbag56
(g77
g58
NtRp334
(dp335
g61
(dp336
g88
g89
ssg70
g325
sg63
(lp337
S':'
asbag56
(g77
g58
NtRp338
(dp339
g61
(dp340
sg70
g325
sg63
(lp341
g56
(g57
g58
NtRp342
(dp343
g61
(dp344
g69
I3
ssg70
g338
sg63
(lp345
S''
asbasbasbag56
(g72
g58
NtRp346
(dp347
g61
(dp348
sg70
g258
sg63
(lp349
g56
(g77
g58
NtRp350
(dp351
g61
(dp352
g81
g82
ssg70
g346
sg63
(lp353
S'max-age'
p354
asbag56
(g77
g58
NtRp355
(dp356
g61
(dp357
g88
g89
ssg70
g346
sg63
(lp358
S':'
asbag56
(g77
g58
NtRp359
(dp360
g61
(dp361
sg70
g346
sg63
(lp362
g56
(g57
g58
NtRp363
(dp364
g61
(dp365
g69
I3
ssg70
g359
sg63
(lp366
S''
asbasbasbag56
(g72
g58
NtRp367
(dp368
g61
(dp369
sg70
g258
sg63
(lp370
g56
(g77
g58
NtRp371
(dp372
g61
(dp373
g81
g82
ssg70
g367
sg63
(lp374
S'path'
p375
asbag56
(g77
g58
NtRp376
(dp377
g61
(dp378
g88
g89
ssg70
g367
sg63
(lp379
S':'
asbag56
(g77
g58
NtRp380
(dp381
g61
(dp382
sg70
g367
sg63
(lp383
g56
(g57
g58
NtRp384
(dp385
g61
(dp386
g69
I3
ssg70
g380
sg63
(lp387
S''
asbasbasbag56
(g72
g58
NtRp388
(dp389
g61
(dp390
sg70
g258
sg63
(lp391
g56
(g77
g58
NtRp392
(dp393
g61
(dp394
g81
g82
ssg70
g388
sg63
(lp395
S'secure'
p396
asbag56
(g77
g58
NtRp397
(dp398
g61
(dp399
g88
g89
ssg70
g388
sg63
(lp400
S':'
asbag56
(g77
g58
NtRp401
(dp402
g61
(dp403
sg70
g388
sg63
(lp404
g56
(g57
g58
NtRp405
(dp406
g61
(dp407
g69
I3
ssg70
g401
sg63
(lp408
S''
asbasbasbag56
(g72
g58
NtRp409
(dp410
g61
(dp411
sg70
g258
sg63
(lp412
g56
(g77
g58
NtRp413
(dp414
g61
(dp415
g81
g82
ssg70
g409
sg63
(lp416
S'version'
p417
asbag56
(g77
g58
NtRp418
(dp419
g61
(dp420
g88
g89
ssg70
g409
sg63
(lp421
S':'
asbag56
(g77
g58
NtRp422
(dp423
g61
(dp424
sg70
g409
sg63
(lp425
g56
(g57
g58
NtRp426
(dp427
g61
(dp428
g69
I3
ssg70
g422
sg63
(lp429
S''
asbasbasbasbasbasbasbag56
(g72
g58
NtRp430
(dp431
g61
(dp432
sg70
g233
sg63
(lp433
g56
(g77
g58
NtRp434
(dp435
g61
(dp436
g81
g82
ssg70
g430
sg63
(lp437
S'session_id_admin'
p438
asbag56
(g77
g58
NtRp439
(dp440
g61
(dp441
g88
g89
ssg70
g430
sg63
(lp442
S':'
asbag56
(g77
g58
NtRp443
(dp444
g61
(dp445
sg70
g430
sg63
(lp446
g56
(g57
g58
NtRp447
(dp448
g61
(dp449
g69
I4
ssg70
g443
sg63
(lp450
g56
(g65
g58
NtRp451
(dp452
g61
(dp453
g69
I3
ssg70
Nsg63
(lp454
g56
(g72
g58
NtRp455
(dp456
g61
(dp457
sg70
g451
sg63
(lp458
g56
(g77
g58
NtRp459
(dp460
g61
(dp461
g81
g82
ssg70
g455
sg63
(lp462
g270
asbag56
(g77
g58
NtRp463
(dp464
g61
(dp465
g88
g89
ssg70
g455
sg63
(lp466
S':'
asbag56
(g77
g58
NtRp467
(dp468
g61
(dp469
sg70
g455
sg63
(lp470
g56
(g57
g58
NtRp471
(dp472
g61
(dp473
g69
I3
ssg70
g467
sg63
(lp474
S''
asbasbasbag56
(g72
g58
NtRp475
(dp476
g61
(dp477
sg70
g451
sg63
(lp478
g56
(g77
g58
NtRp479
(dp480
g61
(dp481
g81
g82
ssg70
g475
sg63
(lp482
g291
asbag56
(g77
g58
NtRp483
(dp484
g61
(dp485
g88
g89
ssg70
g475
sg63
(lp486
S':'
asbag56
(g77
g58
NtRp487
(dp488
g61
(dp489
sg70
g475
sg63
(lp490
g56
(g57
g58
NtRp491
(dp492
g61
(dp493
g69
I3
ssg70
g487
sg63
(lp494
S''
asbasbasbag56
(g72
g58
NtRp495
(dp496
g61
(dp497
sg70
g451
sg63
(lp498
g56
(g77
g58
NtRp499
(dp500
g61
(dp501
g81
g82
ssg70
g495
sg63
(lp502
g312
asbag56
(g77
g58
NtRp503
(dp504
g61
(dp505
g88
g89
ssg70
g495
sg63
(lp506
S':'
asbag56
(g77
g58
NtRp507
(dp508
g61
(dp509
sg70
g495
sg63
(lp510
g56
(g57
g58
NtRp511
(dp512
g61
(dp513
g69
I3
ssg70
g507
sg63
(lp514
S''
asbasbasbag56
(g72
g58
NtRp515
(dp516
g61
(dp517
sg70
g451
sg63
(lp518
g56
(g77
g58
NtRp519
(dp520
g61
(dp521
g81
g82
ssg70
g515
sg63
(lp522
g333
asbag56
(g77
g58
NtRp523
(dp524
g61
(dp525
g88
g89
ssg70
g515
sg63
(lp526
S':'
asbag56
(g77
g58
NtRp527
(dp528
g61
(dp529
sg70
g515
sg63
(lp530
g56
(g57
g58
NtRp531
(dp532
g61
(dp533
g69
I3
ssg70
g527
sg63
(lp534
S''
asbasbasbag56
(g72
g58
NtRp535
(dp536
g61
(dp537
sg70
g451
sg63
(lp538
g56
(g77
g58
NtRp539
(dp540
g61
(dp541
g81
g82
ssg70
g535
sg63
(lp542
g354
asbag56
(g77
g58
NtRp543
(dp544
g61
(dp545
g88
g89
ssg70
g535
sg63
(lp546
S':'
asbag56
(g77
g58
NtRp547
(dp548
g61
(dp549
sg70
g535
sg63
(lp550
g56
(g57
g58
NtRp551
(dp552
g61
(dp553
g69
I3
ssg70
g547
sg63
(lp554
S''
asbasbasbag56
(g72
g58
NtRp555
(dp556
g61
(dp557
sg70
g451
sg63
(lp558
g56
(g77
g58
NtRp559
(dp560
g61
(dp561
g81
g82
ssg70
g555
sg63
(lp562
g375
asbag56
(g77
g58
NtRp563
(dp564
g61
(dp565
g88
g89
ssg70
g555
sg63
(lp566
S':'
asbag56
(g77
g58
NtRp567
(dp568
g61
(dp569
sg70
g555
sg63
(lp570
g56
(g57
g58
NtRp571
(dp572
g61
(dp573
g69
I3
ssg70
g567
sg63
(lp574
S''
asbasbasbag56
(g72
g58
NtRp575
(dp576
g61
(dp577
sg70
g451
sg63
(lp578
g56
(g77
g58
NtRp579
(dp580
g61
(dp581
g81
g82
ssg70
g575
sg63
(lp582
g396
asbag56
(g77
g58
NtRp583
(dp584
g61
(dp585
g88
g89
ssg70
g575
sg63
(lp586
S':'
asbag56
(g77
g58
NtRp587
(dp588
g61
(dp589
sg70
g575
sg63
(lp590
g56
(g57
g58
NtRp591
(dp592
g61
(dp593
g69
I3
ssg70
g587
sg63
(lp594
S''
asbasbasbag56
(g72
g58
NtRp595
(dp596
g61
(dp597
sg70
g451
sg63
(lp598
g56
(g77
g58
NtRp599
(dp600
g61
(dp601
g81
g82
ssg70
g595
sg63
(lp602
g417
asbag56
(g77
g58
NtRp603
(dp604
g61
(dp605
g88
g89
ssg70
g595
sg63
(lp606
S':'
asbag56
(g77
g58
NtRp607
(dp608
g61
(dp609
sg70
g595
sg63
(lp610
g56
(g57
g58
NtRp611
(dp612
g61
(dp613
g69
I3
ssg70
g607
sg63
(lp614
S''
asbasbasbasbasbasbasbag56
(g72
g58
NtRp615
(dp616
g61
(dp617
sg70
g233
sg63
(lp618
g56
(g77
g58
NtRp619
(dp620
g61
(dp621
g81
g82
ssg70
g615
sg63
(lp622
S'session_id_datos'
p623
asbag56
(g77
g58
NtRp624
(dp625
g61
(dp626
g88
g89
ssg70
g615
sg63
(lp627
S':'
asbag56
(g77
g58
NtRp628
(dp629
g61
(dp630
sg70
g615
sg63
(lp631
g56
(g57
g58
NtRp632
(dp633
g61
(dp634
g69
I4
ssg70
g628
sg63
(lp635
g56
(g65
g58
NtRp636
(dp637
g61
(dp638
g69
I3
ssg70
Nsg63
(lp639
g56
(g72
g58
NtRp640
(dp641
g61
(dp642
sg70
g636
sg63
(lp643
g56
(g77
g58
NtRp644
(dp645
g61
(dp646
g81
g82
ssg70
g640
sg63
(lp647
g270
asbag56
(g77
g58
NtRp648
(dp649
g61
(dp650
g88
g89
ssg70
g640
sg63
(lp651
S':'
asbag56
(g77
g58
NtRp652
(dp653
g61
(dp654
sg70
g640
sg63
(lp655
g56
(g57
g58
NtRp656
(dp657
g61
(dp658
g69
I3
ssg70
g652
sg63
(lp659
S''
asbasbasbag56
(g72
g58
NtRp660
(dp661
g61
(dp662
sg70
g636
sg63
(lp663
g56
(g77
g58
NtRp664
(dp665
g61
(dp666
g81
g82
ssg70
g660
sg63
(lp667
g291
asbag56
(g77
g58
NtRp668
(dp669
g61
(dp670
g88
g89
ssg70
g660
sg63
(lp671
S':'
asbag56
(g77
g58
NtRp672
(dp673
g61
(dp674
sg70
g660
sg63
(lp675
g56
(g57
g58
NtRp676
(dp677
g61
(dp678
g69
I3
ssg70
g672
sg63
(lp679
S''
asbasbasbag56
(g72
g58
NtRp680
(dp681
g61
(dp682
sg70
g636
sg63
(lp683
g56
(g77
g58
NtRp684
(dp685
g61
(dp686
g81
g82
ssg70
g680
sg63
(lp687
g312
asbag56
(g77
g58
NtRp688
(dp689
g61
(dp690
g88
g89
ssg70
g680
sg63
(lp691
S':'
asbag56
(g77
g58
NtRp692
(dp693
g61
(dp694
sg70
g680
sg63
(lp695
g56
(g57
g58
NtRp696
(dp697
g61
(dp698
g69
I3
ssg70
g692
sg63
(lp699
S''
asbasbasbag56
(g72
g58
NtRp700
(dp701
g61
(dp702
sg70
g636
sg63
(lp703
g56
(g77
g58
NtRp704
(dp705
g61
(dp706
g81
g82
ssg70
g700
sg63
(lp707
g333
asbag56
(g77
g58
NtRp708
(dp709
g61
(dp710
g88
g89
ssg70
g700
sg63
(lp711
S':'
asbag56
(g77
g58
NtRp712
(dp713
g61
(dp714
sg70
g700
sg63
(lp715
g56
(g57
g58
NtRp716
(dp717
g61
(dp718
g69
I3
ssg70
g712
sg63
(lp719
S''
asbasbasbag56
(g72
g58
NtRp720
(dp721
g61
(dp722
sg70
g636
sg63
(lp723
g56
(g77
g58
NtRp724
(dp725
g61
(dp726
g81
g82
ssg70
g720
sg63
(lp727
g354
asbag56
(g77
g58
NtRp728
(dp729
g61
(dp730
g88
g89
ssg70
g720
sg63
(lp731
S':'
asbag56
(g77
g58
NtRp732
(dp733
g61
(dp734
sg70
g720
sg63
(lp735
g56
(g57
g58
NtRp736
(dp737
g61
(dp738
g69
I3
ssg70
g732
sg63
(lp739
S''
asbasbasbag56
(g72
g58
NtRp740
(dp741
g61
(dp742
sg70
g636
sg63
(lp743
g56
(g77
g58
NtRp744
(dp745
g61
(dp746
g81
g82
ssg70
g740
sg63
(lp747
g375
asbag56
(g77
g58
NtRp748
(dp749
g61
(dp750
g88
g89
ssg70
g740
sg63
(lp751
S':'
asbag56
(g77
g58
NtRp752
(dp753
g61
(dp754
sg70
g740
sg63
(lp755
g56
(g57
g58
NtRp756
(dp757
g61
(dp758
g69
I3
ssg70
g752
sg63
(lp759
S''
asbasbasbag56
(g72
g58
NtRp760
(dp761
g61
(dp762
sg70
g636
sg63
(lp763
g56
(g77
g58
NtRp764
(dp765
g61
(dp766
g81
g82
ssg70
g760
sg63
(lp767
g396
asbag56
(g77
g58
NtRp768
(dp769
g61
(dp770
g88
g89
ssg70
g760
sg63
(lp771
S':'
asbag56
(g77
g58
NtRp772
(dp773
g61
(dp774
sg70
g760
sg63
(lp775
g56
(g57
g58
NtRp776
(dp777
g61
(dp778
g69
I3
ssg70
g772
sg63
(lp779
S''
asbasbasbag56
(g72
g58
NtRp780
(dp781
g61
(dp782
sg70
g636
sg63
(lp783
g56
(g77
g58
NtRp784
(dp785
g61
(dp786
g81
g82
ssg70
g780
sg63
(lp787
g417
asbag56
(g77
g58
NtRp788
(dp789
g61
(dp790
g88
g89
ssg70
g780
sg63
(lp791
S':'
asbag56
(g77
g58
NtRp792
(dp793
g61
(dp794
sg70
g780
sg63
(lp795
g56
(g57
g58
NtRp796
(dp797
g61
(dp798
g69
I3
ssg70
g792
sg63
(lp799
S''
asbasbasbasbasbasbasbag56
(g72
g58
NtRp800
(dp801
g61
(dp802
sg70
g233
sg63
(lp803
g56
(g77
g58
NtRp804
(dp805
g61
(dp806
g81
g82
ssg70
g800
sg63
(lp807
S'session_id_my_web'
p808
asbag56
(g77
g58
NtRp809
(dp810
g61
(dp811
g88
g89
ssg70
g800
sg63
(lp812
S':'
asbag56
(g77
g58
NtRp813
(dp814
g61
(dp815
sg70
g800
sg63
(lp816
g56
(g57
g58
NtRp817
(dp818
g61
(dp819
g69
I4
ssg70
g813
sg63
(lp820
g56
(g65
g58
NtRp821
(dp822
g61
(dp823
g69
I3
ssg70
Nsg63
(lp824
g56
(g72
g58
NtRp825
(dp826
g61
(dp827
sg70
g821
sg63
(lp828
g56
(g77
g58
NtRp829
(dp830
g61
(dp831
g81
g82
ssg70
g825
sg63
(lp832
g270
asbag56
(g77
g58
NtRp833
(dp834
g61
(dp835
g88
g89
ssg70
g825
sg63
(lp836
S':'
asbag56
(g77
g58
NtRp837
(dp838
g61
(dp839
sg70
g825
sg63
(lp840
g56
(g57
g58
NtRp841
(dp842
g61
(dp843
g69
I3
ssg70
g837
sg63
(lp844
S''
asbasbasbag56
(g72
g58
NtRp845
(dp846
g61
(dp847
sg70
g821
sg63
(lp848
g56
(g77
g58
NtRp849
(dp850
g61
(dp851
g81
g82
ssg70
g845
sg63
(lp852
g291
asbag56
(g77
g58
NtRp853
(dp854
g61
(dp855
g88
g89
ssg70
g845
sg63
(lp856
S':'
asbag56
(g77
g58
NtRp857
(dp858
g61
(dp859
sg70
g845
sg63
(lp860
g56
(g57
g58
NtRp861
(dp862
g61
(dp863
g69
I3
ssg70
g857
sg63
(lp864
S''
asbasbasbag56
(g72
g58
NtRp865
(dp866
g61
(dp867
sg70
g821
sg63
(lp868
g56
(g77
g58
NtRp869
(dp870
g61
(dp871
g81
g82
ssg70
g865
sg63
(lp872
g312
asbag56
(g77
g58
NtRp873
(dp874
g61
(dp875
g88
g89
ssg70
g865
sg63
(lp876
S':'
asbag56
(g77
g58
NtRp877
(dp878
g61
(dp879
sg70
g865
sg63
(lp880
g56
(g57
g58
NtRp881
(dp882
g61
(dp883
g69
I3
ssg70
g877
sg63
(lp884
S''
asbasbasbag56
(g72
g58
NtRp885
(dp886
g61
(dp887
sg70
g821
sg63
(lp888
g56
(g77
g58
NtRp889
(dp890
g61
(dp891
g81
g82
ssg70
g885
sg63
(lp892
g333
asbag56
(g77
g58
NtRp893
(dp894
g61
(dp895
g88
g89
ssg70
g885
sg63
(lp896
S':'
asbag56
(g77
g58
NtRp897
(dp898
g61
(dp899
sg70
g885
sg63
(lp900
g56
(g57
g58
NtRp901
(dp902
g61
(dp903
g69
I3
ssg70
g897
sg63
(lp904
S''
asbasbasbag56
(g72
g58
NtRp905
(dp906
g61
(dp907
sg70
g821
sg63
(lp908
g56
(g77
g58
NtRp909
(dp910
g61
(dp911
g81
g82
ssg70
g905
sg63
(lp912
g354
asbag56
(g77
g58
NtRp913
(dp914
g61
(dp915
g88
g89
ssg70
g905
sg63
(lp916
S':'
asbag56
(g77
g58
NtRp917
(dp918
g61
(dp919
sg70
g905
sg63
(lp920
g56
(g57
g58
NtRp921
(dp922
g61
(dp923
g69
I3
ssg70
g917
sg63
(lp924
S''
asbasbasbag56
(g72
g58
NtRp925
(dp926
g61
(dp927
sg70
g821
sg63
(lp928
g56
(g77
g58
NtRp929
(dp930
g61
(dp931
g81
g82
ssg70
g925
sg63
(lp932
g375
asbag56
(g77
g58
NtRp933
(dp934
g61
(dp935
g88
g89
ssg70
g925
sg63
(lp936
S':'
asbag56
(g77
g58
NtRp937
(dp938
g61
(dp939
sg70
g925
sg63
(lp940
g56
(g57
g58
NtRp941
(dp942
g61
(dp943
g69
I3
ssg70
g937
sg63
(lp944
S''
asbasbasbag56
(g72
g58
NtRp945
(dp946
g61
(dp947
sg70
g821
sg63
(lp948
g56
(g77
g58
NtRp949
(dp950
g61
(dp951
g81
g82
ssg70
g945
sg63
(lp952
g396
asbag56
(g77
g58
NtRp953
(dp954
g61
(dp955
g88
g89
ssg70
g945
sg63
(lp956
S':'
asbag56
(g77
g58
NtRp957
(dp958
g61
(dp959
sg70
g945
sg63
(lp960
g56
(g57
g58
NtRp961
(dp962
g61
(dp963
g69
I3
ssg70
g957
sg63
(lp964
S''
asbasbasbag56
(g72
g58
NtRp965
(dp966
g61
(dp967
sg70
g821
sg63
(lp968
g56
(g77
g58
NtRp969
(dp970
g61
(dp971
g81
g82
ssg70
g965
sg63
(lp972
g417
asbag56
(g77
g58
NtRp973
(dp974
g61
(dp975
g88
g89
ssg70
g965
sg63
(lp976
S':'
asbag56
(g77
g58
NtRp977
(dp978
g61
(dp979
sg70
g965
sg63
(lp980
g56
(g57
g58
NtRp981
(dp982
g61
(dp983
g69
I3
ssg70
g977
sg63
(lp984
S''
asbasbasbasbasbasbasbag56
(g72
g58
NtRp985
(dp986
g61
(dp987
sg70
g233
sg63
(lp988
g56
(g77
g58
NtRp989
(dp990
g61
(dp991
g81
g82
ssg70
g985
sg63
(lp992
S'session_id_welcome'
p993
asbag56
(g77
g58
NtRp994
(dp995
g61
(dp996
g88
g89
ssg70
g985
sg63
(lp997
S':'
asbag56
(g77
g58
NtRp998
(dp999
g61
(dp1000
sg70
g985
sg63
(lp1001
g56
(g57
g58
NtRp1002
(dp1003
g61
(dp1004
g69
I4
ssg70
g998
sg63
(lp1005
g56
(g65
g58
NtRp1006
(dp1007
g61
(dp1008
g69
I3
ssg70
Nsg63
(lp1009
g56
(g72
g58
NtRp1010
(dp1011
g61
(dp1012
sg70
g1006
sg63
(lp1013
g56
(g77
g58
NtRp1014
(dp1015
g61
(dp1016
g81
g82
ssg70
g1010
sg63
(lp1017
g270
asbag56
(g77
g58
NtRp1018
(dp1019
g61
(dp1020
g88
g89
ssg70
g1010
sg63
(lp1021
S':'
asbag56
(g77
g58
NtRp1022
(dp1023
g61
(dp1024
sg70
g1010
sg63
(lp1025
g56
(g57
g58
NtRp1026
(dp1027
g61
(dp1028
g69
I3
ssg70
g1022
sg63
(lp1029
S''
asbasbasbag56
(g72
g58
NtRp1030
(dp1031
g61
(dp1032
sg70
g1006
sg63
(lp1033
g56
(g77
g58
NtRp1034
(dp1035
g61
(dp1036
g81
g82
ssg70
g1030
sg63
(lp1037
g291
asbag56
(g77
g58
NtRp1038
(dp1039
g61
(dp1040
g88
g89
ssg70
g1030
sg63
(lp1041
S':'
asbag56
(g77
g58
NtRp1042
(dp1043
g61
(dp1044
sg70
g1030
sg63
(lp1045
g56
(g57
g58
NtRp1046
(dp1047
g61
(dp1048
g69
I3
ssg70
g1042
sg63
(lp1049
S''
asbasbasbag56
(g72
g58
NtRp1050
(dp1051
g61
(dp1052
sg70
g1006
sg63
(lp1053
g56
(g77
g58
NtRp1054
(dp1055
g61
(dp1056
g81
g82
ssg70
g1050
sg63
(lp1057
g312
asbag56
(g77
g58
NtRp1058
(dp1059
g61
(dp1060
g88
g89
ssg70
g1050
sg63
(lp1061
S':'
asbag56
(g77
g58
NtRp1062
(dp1063
g61
(dp1064
sg70
g1050
sg63
(lp1065
g56
(g57
g58
NtRp1066
(dp1067
g61
(dp1068
g69
I3
ssg70
g1062
sg63
(lp1069
S''
asbasbasbag56
(g72
g58
NtRp1070
(dp1071
g61
(dp1072
sg70
g1006
sg63
(lp1073
g56
(g77
g58
NtRp1074
(dp1075
g61
(dp1076
g81
g82
ssg70
g1070
sg63
(lp1077
g333
asbag56
(g77
g58
NtRp1078
(dp1079
g61
(dp1080
g88
g89
ssg70
g1070
sg63
(lp1081
S':'
asbag56
(g77
g58
NtRp1082
(dp1083
g61
(dp1084
sg70
g1070
sg63
(lp1085
g56
(g57
g58
NtRp1086
(dp1087
g61
(dp1088
g69
I3
ssg70
g1082
sg63
(lp1089
S''
asbasbasbag56
(g72
g58
NtRp1090
(dp1091
g61
(dp1092
sg70
g1006
sg63
(lp1093
g56
(g77
g58
NtRp1094
(dp1095
g61
(dp1096
g81
g82
ssg70
g1090
sg63
(lp1097
g354
asbag56
(g77
g58
NtRp1098
(dp1099
g61
(dp1100
g88
g89
ssg70
g1090
sg63
(lp1101
S':'
asbag56
(g77
g58
NtRp1102
(dp1103
g61
(dp1104
sg70
g1090
sg63
(lp1105
g56
(g57
g58
NtRp1106
(dp1107
g61
(dp1108
g69
I3
ssg70
g1102
sg63
(lp1109
S''
asbasbasbag56
(g72
g58
NtRp1110
(dp1111
g61
(dp1112
sg70
g1006
sg63
(lp1113
g56
(g77
g58
NtRp1114
(dp1115
g61
(dp1116
g81
g82
ssg70
g1110
sg63
(lp1117
g375
asbag56
(g77
g58
NtRp1118
(dp1119
g61
(dp1120
g88
g89
ssg70
g1110
sg63
(lp1121
S':'
asbag56
(g77
g58
NtRp1122
(dp1123
g61
(dp1124
sg70
g1110
sg63
(lp1125
g56
(g57
g58
NtRp1126
(dp1127
g61
(dp1128
g69
I3
ssg70
g1122
sg63
(lp1129
S''
asbasbasbag56
(g72
g58
NtRp1130
(dp1131
g61
(dp1132
sg70
g1006
sg63
(lp1133
g56
(g77
g58
NtRp1134
(dp1135
g61
(dp1136
g81
g82
ssg70
g1130
sg63
(lp1137
g396
asbag56
(g77
g58
NtRp1138
(dp1139
g61
(dp1140
g88
g89
ssg70
g1130
sg63
(lp1141
S':'
asbag56
(g77
g58
NtRp1142
(dp1143
g61
(dp1144
sg70
g1130
sg63
(lp1145
g56
(g57
g58
NtRp1146
(dp1147
g61
(dp1148
g69
I3
ssg70
g1142
sg63
(lp1149
S''
asbasbasbag56
(g72
g58
NtRp1150
(dp1151
g61
(dp1152
sg70
g1006
sg63
(lp1153
g56
(g77
g58
NtRp1154
(dp1155
g61
(dp1156
g81
g82
ssg70
g1150
sg63
(lp1157
g417
asbag56
(g77
g58
NtRp1158
(dp1159
g61
(dp1160
g88
g89
ssg70
g1150
sg63
(lp1161
S':'
asbag56
(g77
g58
NtRp1162
(dp1163
g61
(dp1164
sg70
g1150
sg63
(lp1165
g56
(g57
g58
NtRp1166
(dp1167
g61
(dp1168
g69
I3
ssg70
g1162
sg63
(lp1169
S''
asbasbasbasbasbasbasbasbasbasbasbag56
(g72
g58
NtRp1170
(dp1171
g61
(dp1172
sg70
g66
sg63
(lp1173
g56
(g77
g58
NtRp1174
(dp1175
g61
(dp1176
g81
g82
ssg70
g1170
sg63
(lp1177
S'env'
p1178
asbag56
(g77
g58
NtRp1179
(dp1180
g61
(dp1181
g88
g89
ssg70
g1170
sg63
(lp1182
S':'
asbag56
(g77
g58
NtRp1183
(dp1184
g61
(dp1185
sg70
g1170
sg63
(lp1186
g56
(g57
g58
NtRp1187
(dp1188
g61
(dp1189
g69
I5
ssg70
g1183
sg63
(lp1190
g56
(g65
g58
NtRp1191
(dp1192
g61
(dp1193
g69
I4
ssg70
Nsg63
(lp1194
g56
(g72
g58
NtRp1195
(dp1196
g61
(dp1197
sg70
g1191
sg63
(lp1198
g56
(g77
g58
NtRp1199
(dp1200
g61
(dp1201
g81
g82
ssg70
g1195
sg63
(lp1202
S'app_folders'
p1203
asbag56
(g77
g58
NtRp1204
(dp1205
g61
(dp1206
g88
g89
ssg70
g1195
sg63
(lp1207
S':'
asbag56
(g77
g58
NtRp1208
(dp1209
g61
(dp1210
sg70
g1195
sg63
(lp1211
g56
(g57
g58
NtRp1212
(dp1213
g61
(dp1214
g69
I4
ssg70
g1208
sg63
(lp1215
S"set(['/home/alumno/web2py/applications/admin/', '/home/alumno/web2py/applications/my_web/', '/home/alumno/web2py/applications/examples/', '/home/alumno/web2py/applications/welcome/', '/home/alumno/web2py/applications/datos/'])"
p1216
asbasbasbag56
(g72
g58
NtRp1217
(dp1218
g61
(dp1219
sg70
g1191
sg63
(lp1220
g56
(g77
g58
NtRp1221
(dp1222
g61
(dp1223
g81
g82
ssg70
g1217
sg63
(lp1224
S'applications_parent'
p1225
asbag56
(g77
g58
NtRp1226
(dp1227
g61
(dp1228
g88
g89
ssg70
g1217
sg63
(lp1229
S':'
asbag56
(g77
g58
NtRp1230
(dp1231
g61
(dp1232
sg70
g1217
sg63
(lp1233
g56
(g57
g58
NtRp1234
(dp1235
g61
(dp1236
g69
I4
ssg70
g1230
sg63
(lp1237
S'/home/alumno/web2py'
p1238
asbasbasbag56
(g72
g58
NtRp1239
(dp1240
g61
(dp1241
sg70
g1191
sg63
(lp1242
g56
(g77
g58
NtRp1243
(dp1244
g61
(dp1245
g81
g82
ssg70
g1239
sg63
(lp1246
S'cmd_args'
p1247
asbag56
(g77
g58
NtRp1248
(dp1249
g61
(dp1250
g88
g89
ssg70
g1239
sg63
(lp1251
S':'
asbag56
(g77
g58
NtRp1252
(dp1253
g61
(dp1254
sg70
g1239
sg63
(lp1255
g56
(g57
g58
NtRp1256
(dp1257
g61
(dp1258
g69
I4
ssg70
g1252
sg63
(lp1259
g56
(g65
g58
NtRp1260
(dp1261
g61
(dp1262
g69
I3
ssg70
Nsg63
(lp1263
sbasbasbasbag56
(g72
g58
NtRp1264
(dp1265
g61
(dp1266
sg70
g1191
sg63
(lp1267
g56
(g77
g58
NtRp1268
(dp1269
g61
(dp1270
g81
g82
ssg70
g1264
sg63
(lp1271
S'cmd_options'
p1272
asbag56
(g77
g58
NtRp1273
(dp1274
g61
(dp1275
g88
g89
ssg70
g1264
sg63
(lp1276
S':'
asbag56
(g77
g58
NtRp1277
(dp1278
g61
(dp1279
sg70
g1264
sg63
(lp1280
g56
(g57
g58
NtRp1281
(dp1282
g61
(dp1283
g69
I4
ssg70
g1277
sg63
(lp1284
S"<Values at 0x98648ac: {'verbose': False, 'ip': '127.0.0.1', 'shutdown_timeout': 5, 'taskbar': False, 'port': 8000, 'maxthreads': None, 'softcron': False, 'server_name': 'ubuntu-dev', 'bpython': False, 'nogui': False, 'nocron': False, 'extcron': False, 'debuglevel': 30, 'test': None, 'folder': '/home/alumno/web2py', 'config': '', 'import_models': False, 'winservice': '', 'shell': None, 'run': '', 'log_filename': 'httpserver.log', 'args': [''], 'profiler_filename': None, 'ssl_private_key': '', 'password': 'conti', 'request_queue_size': 5, 'ssl_certificate': '', 'cronjob': False, 'plain': False, 'quiet': False, 'interfaces': None, 'minthreads': None, 'timeout': 10, 'numthreads': None, 'nobanner': False, 'pid_filename': 'httpserver.pid'}>"
p1285
asbasbasbag56
(g72
g58
NtRp1286
(dp1287
g61
(dp1288
sg70
g1191
sg63
(lp1289
g56
(g77
g58
NtRp1290
(dp1291
g61
(dp1292
g81
g82
ssg70
g1286
sg63
(lp1293
S'db_sessions'
p1294
asbag56
(g77
g58
NtRp1295
(dp1296
g61
(dp1297
g88
g89
ssg70
g1286
sg63
(lp1298
S':'
asbag56
(g77
g58
NtRp1299
(dp1300
g61
(dp1301
sg70
g1286
sg63
(lp1302
g56
(g57
g58
NtRp1303
(dp1304
g61
(dp1305
g69
I4
ssg70
g1299
sg63
(lp1306
S'set([])'
p1307
asbasbasbag56
(g72
g58
NtRp1308
(dp1309
g61
(dp1310
sg70
g1191
sg63
(lp1311
g56
(g77
g58
NtRp1312
(dp1313
g61
(dp1314
g81
g82
ssg70
g1308
sg63
(lp1315
S'debugging'
p1316
asbag56
(g77
g58
NtRp1317
(dp1318
g61
(dp1319
g88
g89
ssg70
g1308
sg63
(lp1320
S':'
asbag56
(g77
g58
NtRp1321
(dp1322
g61
(dp1323
sg70
g1308
sg63
(lp1324
g56
(g57
g58
NtRp1325
(dp1326
g61
(dp1327
g69
I4
ssg70
g1321
sg63
(lp1328
g99
asbasbasbag56
(g72
g58
NtRp1329
(dp1330
g61
(dp1331
sg70
g1191
sg63
(lp1332
g56
(g77
g58
NtRp1333
(dp1334
g61
(dp1335
g81
g82
ssg70
g1329
sg63
(lp1336
S'gluon_parent'
p1337
asbag56
(g77
g58
NtRp1338
(dp1339
g61
(dp1340
g88
g89
ssg70
g1329
sg63
(lp1341
S':'
asbag56
(g77
g58
NtRp1342
(dp1343
g61
(dp1344
sg70
g1329
sg63
(lp1345
g56
(g57
g58
NtRp1346
(dp1347
g61
(dp1348
g69
I4
ssg70
g1342
sg63
(lp1349
S'/home/alumno/web2py'
p1350
asbasbasbag56
(g72
g58
NtRp1351
(dp1352
g61
(dp1353
sg70
g1191
sg63
(lp1354
g56
(g77
g58
NtRp1355
(dp1356
g61
(dp1357
g81
g82
ssg70
g1351
sg63
(lp1358
S'http_accept'
p1359
asbag56
(g77
g58
NtRp1360
(dp1361
g61
(dp1362
g88
g89
ssg70
g1351
sg63
(lp1363
S':'
asbag56
(g77
g58
NtRp1364
(dp1365
g61
(dp1366
sg70
g1351
sg63
(lp1367
g56
(g57
g58
NtRp1368
(dp1369
g61
(dp1370
g69
I4
ssg70
g1364
sg63
(lp1371
S'text/html,application/xhtml+xml,application/xml;q=0.9,*/*;q=0.8'
p1372
asbasbasbag56
(g72
g58
NtRp1373
(dp1374
g61
(dp1375
sg70
g1191
sg63
(lp1376
g56
(g77
g58
NtRp1377
(dp1378
g61
(dp1379
g81
g82
ssg70
g1373
sg63
(lp1380
S'http_accept_charset'
p1381
asbag56
(g77
g58
NtRp1382
(dp1383
g61
(dp1384
g88
g89
ssg70
g1373
sg63
(lp1385
S':'
asbag56
(g77
g58
NtRp1386
(dp1387
g61
(dp1388
sg70
g1373
sg63
(lp1389
g56
(g57
g58
NtRp1390
(dp1391
g61
(dp1392
g69
I4
ssg70
g1386
sg63
(lp1393
S'ISO-8859-1,utf-8;q=0.7,*;q=0.7'
p1394
asbasbasbag56
(g72
g58
NtRp1395
(dp1396
g61
(dp1397
sg70
g1191
sg63
(lp1398
g56
(g77
g58
NtRp1399
(dp1400
g61
(dp1401
g81
g82
ssg70
g1395
sg63
(lp1402
S'http_accept_encoding'
p1403
asbag56
(g77
g58
NtRp1404
(dp1405
g61
(dp1406
g88
g89
ssg70
g1395
sg63
(lp1407
S':'
asbag56
(g77
g58
NtRp1408
(dp1409
g61
(dp1410
sg70
g1395
sg63
(lp1411
g56
(g57
g58
NtRp1412
(dp1413
g61
(dp1414
g69
I4
ssg70
g1408
sg63
(lp1415
S'gzip, deflate'
p1416
asbasbasbag56
(g72
g58
NtRp1417
(dp1418
g61
(dp1419
sg70
g1191
sg63
(lp1420
g56
(g77
g58
NtRp1421
(dp1422
g61
(dp1423
g81
g82
ssg70
g1417
sg63
(lp1424
S'http_accept_language'
p1425
asbag56
(g77
g58
NtRp1426
(dp1427
g61
(dp1428
g88
g89
ssg70
g1417
sg63
(lp1429
S':'
asbag56
(g77
g58
NtRp1430
(dp1431
g61
(dp1432
sg70
g1417
sg63
(lp1433
g56
(g57
g58
NtRp1434
(dp1435
g61
(dp1436
g69
I4
ssg70
g1430
sg63
(lp1437
S'es-ar,es;q=0.8,en-us;q=0.5,en;q=0.3'
p1438
asbasbasbag56
(g72
g58
NtRp1439
(dp1440
g61
(dp1441
sg70
g1191
sg63
(lp1442
g56
(g77
g58
NtRp1443
(dp1444
g61
(dp1445
g81
g82
ssg70
g1439
sg63
(lp1446
S'http_cache_control'
p1447
asbag56
(g77
g58
NtRp1448
(dp1449
g61
(dp1450
g88
g89
ssg70
g1439
sg63
(lp1451
S':'
asbag56
(g77
g58
NtRp1452
(dp1453
g61
(dp1454
sg70
g1439
sg63
(lp1455
g56
(g57
g58
NtRp1456
(dp1457
g61
(dp1458
g69
I4
ssg70
g1452
sg63
(lp1459
S'max-age=0'
p1460
asbasbasbag56
(g72
g58
NtRp1461
(dp1462
g61
(dp1463
sg70
g1191
sg63
(lp1464
g56
(g77
g58
NtRp1465
(dp1466
g61
(dp1467
g81
g82
ssg70
g1461
sg63
(lp1468
S'http_connection'
p1469
asbag56
(g77
g58
NtRp1470
(dp1471
g61
(dp1472
g88
g89
ssg70
g1461
sg63
(lp1473
S':'
asbag56
(g77
g58
NtRp1474
(dp1475
g61
(dp1476
sg70
g1461
sg63
(lp1477
g56
(g57
g58
NtRp1478
(dp1479
g61
(dp1480
g69
I4
ssg70
g1474
sg63
(lp1481
S'keep-alive'
p1482
asbasbasbag56
(g72
g58
NtRp1483
(dp1484
g61
(dp1485
sg70
g1191
sg63
(lp1486
g56
(g77
g58
NtRp1487
(dp1488
g61
(dp1489
g81
g82
ssg70
g1483
sg63
(lp1490
S'http_cookie'
p1491
asbag56
(g77
g58
NtRp1492
(dp1493
g61
(dp1494
g88
g89
ssg70
g1483
sg63
(lp1495
S':'
asbag56
(g77
g58
NtRp1496
(dp1497
g61
(dp1498
sg70
g1483
sg63
(lp1499
g56
(g57
g58
NtRp1500
(dp1501
g61
(dp1502
g69
I4
ssg70
g1496
sg63
(lp1503
S'session_id_welcome=127.0.0.1-824c4b28-21fc-44f0-8193-fa896d0cf2d5; session_id_admin=127.0.0.1-f292cc01-f792-44fe-abe4-b2667851a938; adminLanguage=es-es; session_id_my_web=127.0.0.1-47c190eb-acb3-4e98-b30b-5e2f6df99186; session_id_datos=127.0.0.1-db62c583-5264-4eba-ba24-7cb87b43795a'
p1504
asbasbasbag56
(g72
g58
NtRp1505
(dp1506
g61
(dp1507
sg70
g1191
sg63
(lp1508
g56
(g77
g58
NtRp1509
(dp1510
g61
(dp1511
g81
g82
ssg70
g1505
sg63
(lp1512
S'http_host'
p1513
asbag56
(g77
g58
NtRp1514
(dp1515
g61
(dp1516
g88
g89
ssg70
g1505
sg63
(lp1517
S':'
asbag56
(g77
g58
NtRp1518
(dp1519
g61
(dp1520
sg70
g1505
sg63
(lp1521
g56
(g57
g58
NtRp1522
(dp1523
g61
(dp1524
g69
I4
ssg70
g1518
sg63
(lp1525
S'127.0.0.1:8000'
p1526
asbasbasbag56
(g72
g58
NtRp1527
(dp1528
g61
(dp1529
sg70
g1191
sg63
(lp1530
g56
(g77
g58
NtRp1531
(dp1532
g61
(dp1533
g81
g82
ssg70
g1527
sg63
(lp1534
S'http_user_agent'
p1535
asbag56
(g77
g58
NtRp1536
(dp1537
g61
(dp1538
g88
g89
ssg70
g1527
sg63
(lp1539
S':'
asbag56
(g77
g58
NtRp1540
(dp1541
g61
(dp1542
sg70
g1527
sg63
(lp1543
g56
(g57
g58
NtRp1544
(dp1545
g61
(dp1546
g69
I4
ssg70
g1540
sg63
(lp1547
S'Mozilla/5.0 (X11; Linux i686; rv:6.0) Gecko/20100101 Firefox/6.0'
p1548
asbasbasbag56
(g72
g58
NtRp1549
(dp1550
g61
(dp1551
sg70
g1191
sg63
(lp1552
g56
(g77
g58
NtRp1553
(dp1554
g61
(dp1555
g81
g82
ssg70
g1549
sg63
(lp1556
S'is_jython'
p1557
asbag56
(g77
g58
NtRp1558
(dp1559
g61
(dp1560
g88
g89
ssg70
g1549
sg63
(lp1561
S':'
asbag56
(g77
g58
NtRp1562
(dp1563
g61
(dp1564
sg70
g1549
sg63
(lp1565
g56
(g57
g58
NtRp1566
(dp1567
g61
(dp1568
g69
I4
ssg70
g1562
sg63
(lp1569
g99
asbasbasbag56
(g72
g58
NtRp1570
(dp1571
g61
(dp1572
sg70
g1191
sg63
(lp1573
g56
(g77
g58
NtRp1574
(dp1575
g61
(dp1576
g81
g82
ssg70
g1570
sg63
(lp1577
S'path_info'
p1578
asbag56
(g77
g58
NtRp1579
(dp1580
g61
(dp1581
g88
g89
ssg70
g1570
sg63
(lp1582
S':'
asbag56
(g77
g58
NtRp1583
(dp1584
g61
(dp1585
sg70
g1570
sg63
(lp1586
g56
(g57
g58
NtRp1587
(dp1588
g61
(dp1589
g69
I4
ssg70
g1583
sg63
(lp1590
S'/datos/'
p1591
asbasbasbag56
(g72
g58
NtRp1592
(dp1593
g61
(dp1594
sg70
g1191
sg63
(lp1595
g56
(g77
g58
NtRp1596
(dp1597
g61
(dp1598
g81
g82
ssg70
g1592
sg63
(lp1599
S'query_string'
p1600
asbag56
(g77
g58
NtRp1601
(dp1602
g61
(dp1603
g88
g89
ssg70
g1592
sg63
(lp1604
S':'
asbag56
(g77
g58
NtRp1605
(dp1606
g61
(dp1607
sg70
g1592
sg63
(lp1608
g56
(g57
g58
NtRp1609
(dp1610
g61
(dp1611
g69
I4
ssg70
g1605
sg63
(lp1612
S''
asbasbasbag56
(g72
g58
NtRp1613
(dp1614
g61
(dp1615
sg70
g1191
sg63
(lp1616
g56
(g77
g58
NtRp1617
(dp1618
g61
(dp1619
g81
g82
ssg70
g1613
sg63
(lp1620
S'remote_addr'
p1621
asbag56
(g77
g58
NtRp1622
(dp1623
g61
(dp1624
g88
g89
ssg70
g1613
sg63
(lp1625
S':'
asbag56
(g77
g58
NtRp1626
(dp1627
g61
(dp1628
sg70
g1613
sg63
(lp1629
g56
(g57
g58
NtRp1630
(dp1631
g61
(dp1632
g69
I4
ssg70
g1626
sg63
(lp1633
g189
asbasbasbag56
(g72
g58
NtRp1634
(dp1635
g61
(dp1636
sg70
g1191
sg63
(lp1637
g56
(g77
g58
NtRp1638
(dp1639
g61
(dp1640
g81
g82
ssg70
g1634
sg63
(lp1641
S'remote_port'
p1642
asbag56
(g77
g58
NtRp1643
(dp1644
g61
(dp1645
g88
g89
ssg70
g1634
sg63
(lp1646
S':'
asbag56
(g77
g58
NtRp1647
(dp1648
g61
(dp1649
sg70
g1634
sg63
(lp1650
g56
(g57
g58
NtRp1651
(dp1652
g61
(dp1653
g69
I4
ssg70
g1647
sg63
(lp1654
S'41778'
p1655
asbasbasbag56
(g72
g58
NtRp1656
(dp1657
g61
(dp1658
sg70
g1191
sg63
(lp1659
g56
(g77
g58
NtRp1660
(dp1661
g61
(dp1662
g81
g82
ssg70
g1656
sg63
(lp1663
S'request_method'
p1664
asbag56
(g77
g58
NtRp1665
(dp1666
g61
(dp1667
g88
g89
ssg70
g1656
sg63
(lp1668
S':'
asbag56
(g77
g58
NtRp1669
(dp1670
g61
(dp1671
sg70
g1656
sg63
(lp1672
g56
(g57
g58
NtRp1673
(dp1674
g61
(dp1675
g69
I4
ssg70
g1669
sg63
(lp1676
S'GET'
p1677
asbasbasbag56
(g72
g58
NtRp1678
(dp1679
g61
(dp1680
sg70
g1191
sg63
(lp1681
g56
(g77
g58
NtRp1682
(dp1683
g61
(dp1684
g81
g82
ssg70
g1678
sg63
(lp1685
S'script_name'
p1686
asbag56
(g77
g58
NtRp1687
(dp1688
g61
(dp1689
g88
g89
ssg70
g1678
sg63
(lp1690
S':'
asbag56
(g77
g58
NtRp1691
(dp1692
g61
(dp1693
sg70
g1678
sg63
(lp1694
g56
(g57
g58
NtRp1695
(dp1696
g61
(dp1697
g69
I4
ssg70
g1691
sg63
(lp1698
S''
asbasbasbag56
(g72
g58
NtRp1699
(dp1700
g61
(dp1701
sg70
g1191
sg63
(lp1702
g56
(g77
g58
NtRp1703
(dp1704
g61
(dp1705
g81
g82
ssg70
g1699
sg63
(lp1706
S'server_name'
p1707
asbag56
(g77
g58
NtRp1708
(dp1709
g61
(dp1710
g88
g89
ssg70
g1699
sg63
(lp1711
S':'
asbag56
(g77
g58
NtRp1712
(dp1713
g61
(dp1714
sg70
g1699
sg63
(lp1715
g56
(g57
g58
NtRp1716
(dp1717
g61
(dp1718
g69
I4
ssg70
g1712
sg63
(lp1719
S'ubuntu-dev'
p1720
asbasbasbag56
(g72
g58
NtRp1721
(dp1722
g61
(dp1723
sg70
g1191
sg63
(lp1724
g56
(g77
g58
NtRp1725
(dp1726
g61
(dp1727
g81
g82
ssg70
g1721
sg63
(lp1728
S'server_port'
p1729
asbag56
(g77
g58
NtRp1730
(dp1731
g61
(dp1732
g88
g89
ssg70
g1721
sg63
(lp1733
S':'
asbag56
(g77
g58
NtRp1734
(dp1735
g61
(dp1736
sg70
g1721
sg63
(lp1737
g56
(g57
g58
NtRp1738
(dp1739
g61
(dp1740
g69
I4
ssg70
g1734
sg63
(lp1741
S'8000'
p1742
asbasbasbag56
(g72
g58
NtRp1743
(dp1744
g61
(dp1745
sg70
g1191
sg63
(lp1746
g56
(g77
g58
NtRp1747
(dp1748
g61
(dp1749
g81
g82
ssg70
g1743
sg63
(lp1750
S'server_protocol'
p1751
asbag56
(g77
g58
NtRp1752
(dp1753
g61
(dp1754
g88
g89
ssg70
g1743
sg63
(lp1755
S':'
asbag56
(g77
g58
NtRp1756
(dp1757
g61
(dp1758
sg70
g1743
sg63
(lp1759
g56
(g57
g58
NtRp1760
(dp1761
g61
(dp1762
g69
I4
ssg70
g1756
sg63
(lp1763
S'HTTP/1.1'
p1764
asbasbasbag56
(g72
g58
NtRp1765
(dp1766
g61
(dp1767
sg70
g1191
sg63
(lp1768
g56
(g77
g58
NtRp1769
(dp1770
g61
(dp1771
g81
g82
ssg70
g1765
sg63
(lp1772
S'server_software'
p1773
asbag56
(g77
g58
NtRp1774
(dp1775
g61
(dp1776
g88
g89
ssg70
g1765
sg63
(lp1777
S':'
asbag56
(g77
g58
NtRp1778
(dp1779
g61
(dp1780
sg70
g1765
sg63
(lp1781
g56
(g57
g58
NtRp1782
(dp1783
g61
(dp1784
g69
I4
ssg70
g1778
sg63
(lp1785
S'Rocket 1.2.2'
p1786
asbasbasbag56
(g72
g58
NtRp1787
(dp1788
g61
(dp1789
sg70
g1191
sg63
(lp1790
g56
(g77
g58
NtRp1791
(dp1792
g61
(dp1793
g81
g82
ssg70
g1787
sg63
(lp1794
S'web2py_crontype'
p1795
asbag56
(g77
g58
NtRp1796
(dp1797
g61
(dp1798
g88
g89
ssg70
g1787
sg63
(lp1799
S':'
asbag56
(g77
g58
NtRp1800
(dp1801
g61
(dp1802
sg70
g1787
sg63
(lp1803
g56
(g57
g58
NtRp1804
(dp1805
g61
(dp1806
g69
I4
ssg70
g1800
sg63
(lp1807
S'hard'
p1808
asbasbasbag56
(g72
g58
NtRp1809
(dp1810
g61
(dp1811
sg70
g1191
sg63
(lp1812
g56
(g77
g58
NtRp1813
(dp1814
g61
(dp1815
g81
g82
ssg70
g1809
sg63
(lp1816
S'web2py_path'
p1817
asbag56
(g77
g58
NtRp1818
(dp1819
g61
(dp1820
g88
g89
ssg70
g1809
sg63
(lp1821
S':'
asbag56
(g77
g58
NtRp1822
(dp1823
g61
(dp1824
sg70
g1809
sg63
(lp1825
g56
(g57
g58
NtRp1826
(dp1827
g61
(dp1828
g69
I4
ssg70
g1822
sg63
(lp1829
g1238
asbasbasbag56
(g72
g58
NtRp1830
(dp1831
g61
(dp1832
sg70
g1191
sg63
(lp1833
g56
(g77
g58
NtRp1834
(dp1835
g61
(dp1836
g81
g82
ssg70
g1830
sg63
(lp1837
S'web2py_version'
p1838
asbag56
(g77
g58
NtRp1839
(dp1840
g61
(dp1841
g88
g89
ssg70
g1830
sg63
(lp1842
S':'
asbag56
(g77
g58
NtRp1843
(dp1844
g61
(dp1845
sg70
g1830
sg63
(lp1846
g56
(g57
g58
NtRp1847
(dp1848
g61
(dp1849
g69
I4
ssg70
g1843
sg63
(lp1850
S'Version 1.98.2 (2011-08-04 00:47:09)\n'
p1851
asbasbasbag56
(g72
g58
NtRp1852
(dp1853
g61
(dp1854
sg70
g1191
sg63
(lp1855
g56
(g77
g58
NtRp1856
(dp1857
g61
(dp1858
g81
g82
ssg70
g1852
sg63
(lp1859
S'wsgi_errors'
p1860
asbag56
(g77
g58
NtRp1861
(dp1862
g61
(dp1863
g88
g89
ssg70
g1852
sg63
(lp1864
S':'
asbag56
(g77
g58
NtRp1865
(dp1866
g61
(dp1867
sg70
g1852
sg63
(lp1868
g56
(g57
g58
NtRp1869
(dp1870
g61
(dp1871
g69
I4
ssg70
g1865
sg63
(lp1872
S"<open file '<stderr>', mode 'w' at 0xb76e20d0>"
p1873
asbasbasbag56
(g72
g58
NtRp1874
(dp1875
g61
(dp1876
sg70
g1191
sg63
(lp1877
g56
(g77
g58
NtRp1878
(dp1879
g61
(dp1880
g81
g82
ssg70
g1874
sg63
(lp1881
S'wsgi_file_wrapper'
p1882
asbag56
(g77
g58
NtRp1883
(dp1884
g61
(dp1885
g88
g89
ssg70
g1874
sg63
(lp1886
S':'
asbag56
(g77
g58
NtRp1887
(dp1888
g61
(dp1889
sg70
g1874
sg63
(lp1890
g56
(g57
g58
NtRp1891
(dp1892
g61
(dp1893
g69
I4
ssg70
g1887
sg63
(lp1894
S'<class gluon.rocket.FileWrapper at 0x96a132c>'
p1895
asbasbasbag56
(g72
g58
NtRp1896
(dp1897
g61
(dp1898
sg70
g1191
sg63
(lp1899
g56
(g77
g58
NtRp1900
(dp1901
g61
(dp1902
g81
g82
ssg70
g1896
sg63
(lp1903
S'wsgi_input'
p1904
asbag56
(g77
g58
NtRp1905
(dp1906
g61
(dp1907
g88
g89
ssg70
g1896
sg63
(lp1908
S':'
asbag56
(g77
g58
NtRp1909
(dp1910
g61
(dp1911
sg70
g1896
sg63
(lp1912
g56
(g57
g58
NtRp1913
(dp1914
g61
(dp1915
g69
I4
ssg70
g1909
sg63
(lp1916
S'<socket._fileobject object at 0xa076fac>'
p1917
asbasbasbag56
(g72
g58
NtRp1918
(dp1919
g61
(dp1920
sg70
g1191
sg63
(lp1921
g56
(g77
g58
NtRp1922
(dp1923
g61
(dp1924
g81
g82
ssg70
g1918
sg63
(lp1925
S'wsgi_multiprocess'
p1926
asbag56
(g77
g58
NtRp1927
(dp1928
g61
(dp1929
g88
g89
ssg70
g1918
sg63
(lp1930
S':'
asbag56
(g77
g58
NtRp1931
(dp1932
g61
(dp1933
sg70
g1918
sg63
(lp1934
g56
(g57
g58
NtRp1935
(dp1936
g61
(dp1937
g69
I4
ssg70
g1931
sg63
(lp1938
g99
asbasbasbag56
(g72
g58
NtRp1939
(dp1940
g61
(dp1941
sg70
g1191
sg63
(lp1942
g56
(g77
g58
NtRp1943
(dp1944
g61
(dp1945
g81
g82
ssg70
g1939
sg63
(lp1946
S'wsgi_multithread'
p1947
asbag56
(g77
g58
NtRp1948
(dp1949
g61
(dp1950
g88
g89
ssg70
g1939
sg63
(lp1951
S':'
asbag56
(g77
g58
NtRp1952
(dp1953
g61
(dp1954
sg70
g1939
sg63
(lp1955
g56
(g57
g58
NtRp1956
(dp1957
g61
(dp1958
g69
I4
ssg70
g1952
sg63
(lp1959
S'True'
p1960
asbasbasbag56
(g72
g58
NtRp1961
(dp1962
g61
(dp1963
sg70
g1191
sg63
(lp1964
g56
(g77
g58
NtRp1965
(dp1966
g61
(dp1967
g81
g82
ssg70
g1961
sg63
(lp1968
S'wsgi_run_once'
p1969
asbag56
(g77
g58
NtRp1970
(dp1971
g61
(dp1972
g88
g89
ssg70
g1961
sg63
(lp1973
S':'
asbag56
(g77
g58
NtRp1974
(dp1975
g61
(dp1976
sg70
g1961
sg63
(lp1977
g56
(g57
g58
NtRp1978
(dp1979
g61
(dp1980
g69
I4
ssg70
g1974
sg63
(lp1981
g99
asbasbasbag56
(g72
g58
NtRp1982
(dp1983
g61
(dp1984
sg70
g1191
sg63
(lp1985
g56
(g77
g58
NtRp1986
(dp1987
g61
(dp1988
g81
g82
ssg70
g1982
sg63
(lp1989
S'wsgi_url_scheme'
p1990
asbag56
(g77
g58
NtRp1991
(dp1992
g61
(dp1993
g88
g89
ssg70
g1982
sg63
(lp1994
S':'
asbag56
(g77
g58
NtRp1995
(dp1996
g61
(dp1997
sg70
g1982
sg63
(lp1998
g56
(g57
g58
NtRp1999
(dp2000
g61
(dp2001
g69
I4
ssg70
g1995
sg63
(lp2002
S'http'
p2003
asbasbasbag56
(g72
g58
NtRp2004
(dp2005
g61
(dp2006
sg70
g1191
sg63
(lp2007
g56
(g77
g58
NtRp2008
(dp2009
g61
(dp2010
g81
g82
ssg70
g2004
sg63
(lp2011
S'wsgi_version'
p2012
asbag56
(g77
g58
NtRp2013
(dp2014
g61
(dp2015
g88
g89
ssg70
g2004
sg63
(lp2016
S':'
asbag56
(g77
g58
NtRp2017
(dp2018
g61
(dp2019
sg70
g2004
sg63
(lp2020
g56
(g57
g58
NtRp2021
(dp2022
g61
(dp2023
g69
I4
ssg70
g2017
sg63
(lp2024
g56
(g65
g58
NtRp2025
(dp2026
g61
(dp2027
g69
I3
ssg70
Nsg63
(lp2028
g56
(g72
g58
NtRp2029
(dp2030
g61
(dp2031
sg70
g2025
sg63
(lp2032
g56
(g77
g58
NtRp2033
(dp2034
g61
(dp2035
sg70
g2029
sg63
(lp2036
g56
(g57
g58
NtRp2037
(dp2038
g61
(dp2039
g69
I3
ssg70
g2033
sg63
(lp2040
S'1'
asbasbasbag56
(g72
g58
NtRp2041
(dp2042
g61
(dp2043
sg70
g2025
sg63
(lp2044
g56
(g77
g58
NtRp2045
(dp2046
g61
(dp2047
sg70
g2041
sg63
(lp2048
g56
(g57
g58
NtRp2049
(dp2050
g61
(dp2051
g69
I3
ssg70
g2045
sg63
(lp2052
S'0'
asbasbasbasbasbasbasbasbasbasbasbag56
(g72
g58
NtRp2053
(dp2054
g61
(dp2055
sg70
g66
sg63
(lp2056
g56
(g77
g58
NtRp2057
(dp2058
g61
(dp2059
g81
g82
ssg70
g2053
sg63
(lp2060
S'extension'
p2061
asbag56
(g77
g58
NtRp2062
(dp2063
g61
(dp2064
g88
g89
ssg70
g2053
sg63
(lp2065
S':'
asbag56
(g77
g58
NtRp2066
(dp2067
g61
(dp2068
sg70
g2053
sg63
(lp2069
g56
(g57
g58
NtRp2070
(dp2071
g61
(dp2072
g69
I5
ssg70
g2066
sg63
(lp2073
S'html'
p2074
asbasbasbag56
(g72
g58
NtRp2075
(dp2076
g61
(dp2077
sg70
g66
sg63
(lp2078
g56
(g77
g58
NtRp2079
(dp2080
g61
(dp2081
g81
g82
ssg70
g2075
sg63
(lp2082
S'folder'
p2083
asbag56
(g77
g58
NtRp2084
(dp2085
g61
(dp2086
g88
g89
ssg70
g2075
sg63
(lp2087
S':'
asbag56
(g77
g58
NtRp2088
(dp2089
g61
(dp2090
sg70
g2075
sg63
(lp2091
g56
(g57
g58
NtRp2092
(dp2093
g61
(dp2094
g69
I5
ssg70
g2088
sg63
(lp2095
S'/home/alumno/web2py/applications/datos/'
p2096
asbasbasbag56
(g72
g58
NtRp2097
(dp2098
g61
(dp2099
sg70
g66
sg63
(lp2100
g56
(g77
g58
NtRp2101
(dp2102
g61
(dp2103
g81
g82
ssg70
g2097
sg63
(lp2104
S'function'
p2105
asbag56
(g77
g58
NtRp2106
(dp2107
g61
(dp2108
g88
g89
ssg70
g2097
sg63
(lp2109
S':'
asbag56
(g77
g58
NtRp2110
(dp2111
g61
(dp2112
sg70
g2097
sg63
(lp2113
g56
(g57
g58
NtRp2114
(dp2115
g61
(dp2116
g69
I5
ssg70
g2110
sg63
(lp2117
S'index'
p2118
asbasbasbag56
(g72
g58
NtRp2119
(dp2120
g61
(dp2121
sg70
g66
sg63
(lp2122
g56
(g77
g58
NtRp2123
(dp2124
g61
(dp2125
g81
g82
ssg70
g2119
sg63
(lp2126
S'get_vars'
p2127
asbag56
(g77
g58
NtRp2128
(dp2129
g61
(dp2130
g88
g89
ssg70
g2119
sg63
(lp2131
S':'
asbag56
(g77
g58
NtRp2132
(dp2133
g61
(dp2134
sg70
g2119
sg63
(lp2135
g56
(g57
g58
NtRp2136
(dp2137
g61
(dp2138
g69
I5
ssg70
g2132
sg63
(lp2139
g56
(g65
g58
NtRp2140
(dp2141
g61
(dp2142
g69
I4
ssg70
Nsg63
(lp2143
sbasbasbasbag56
(g72
g58
NtRp2144
(dp2145
g61
(dp2146
sg70
g66
sg63
(lp2147
g56
(g77
g58
NtRp2148
(dp2149
g61
(dp2150
g81
g82
ssg70
g2144
sg63
(lp2151
S'is_https'
p2152
asbag56
(g77
g58
NtRp2153
(dp2154
g61
(dp2155
g88
g89
ssg70
g2144
sg63
(lp2156
S':'
asbag56
(g77
g58
NtRp2157
(dp2158
g61
(dp2159
sg70
g2144
sg63
(lp2160
g56
(g57
g58
NtRp2161
(dp2162
g61
(dp2163
g69
I5
ssg70
g2157
sg63
(lp2164
g99
asbasbasbag56
(g72
g58
NtRp2165
(dp2166
g61
(dp2167
sg70
g66
sg63
(lp2168
g56
(g77
g58
NtRp2169
(dp2170
g61
(dp2171
g81
g82
ssg70
g2165
sg63
(lp2172
S'is_local'
p2173
asbag56
(g77
g58
NtRp2174
(dp2175
g61
(dp2176
g88
g89
ssg70
g2165
sg63
(lp2177
S':'
asbag56
(g77
g58
NtRp2178
(dp2179
g61
(dp2180
sg70
g2165
sg63
(lp2181
g56
(g57
g58
NtRp2182
(dp2183
g61
(dp2184
g69
I5
ssg70
g2178
sg63
(lp2185
g1960
asbasbasbag56
(g72
g58
NtRp2186
(dp2187
g61
(dp2188
sg70
g66
sg63
(lp2189
g56
(g77
g58
NtRp2190
(dp2191
g61
(dp2192
g81
g82
ssg70
g2186
sg63
(lp2193
S'is_restful'
p2194
asbag56
(g77
g58
NtRp2195
(dp2196
g61
(dp2197
g88
g89
ssg70
g2186
sg63
(lp2198
S':'
asbag56
(g77
g58
NtRp2199
(dp2200
g61
(dp2201
sg70
g2186
sg63
(lp2202
g56
(g57
g58
NtRp2203
(dp2204
g61
(dp2205
g69
I5
ssg70
g2199
sg63
(lp2206
g99
asbasbasbag56
(g72
g58
NtRp2207
(dp2208
g61
(dp2209
sg70
g66
sg63
(lp2210
g56
(g77
g58
NtRp2211
(dp2212
g61
(dp2213
g81
g82
ssg70
g2207
sg63
(lp2214
S'now'
p2215
asbag56
(g77
g58
NtRp2216
(dp2217
g61
(dp2218
g88
g89
ssg70
g2207
sg63
(lp2219
S':'
asbag56
(g77
g58
NtRp2220
(dp2221
g61
(dp2222
sg70
g2207
sg63
(lp2223
g56
(g57
g58
NtRp2224
(dp2225
g61
(dp2226
g69
I5
ssg70
g2220
sg63
(lp2227
S'datetime.datetime(2011, 9, 7, 20, 3, 52, 694245)'
p2228
asbasbasbag56
(g72
g58
NtRp2229
(dp2230
g61
(dp2231
sg70
g66
sg63
(lp2232
g56
(g77
g58
NtRp2233
(dp2234
g61
(dp2235
g81
g82
ssg70
g2229
sg63
(lp2236
S'post_vars'
p2237
asbag56
(g77
g58
NtRp2238
(dp2239
g61
(dp2240
g88
g89
ssg70
g2229
sg63
(lp2241
S':'
asbag56
(g77
g58
NtRp2242
(dp2243
g61
(dp2244
sg70
g2229
sg63
(lp2245
g56
(g57
g58
NtRp2246
(dp2247
g61
(dp2248
g69
I5
ssg70
g2242
sg63
(lp2249
g56
(g65
g58
NtRp2250
(dp2251
g61
(dp2252
g69
I4
ssg70
Nsg63
(lp2253
sbasbasbasbag56
(g72
g58
NtRp2254
(dp2255
g61
(dp2256
sg70
g66
sg63
(lp2257
g56
(g77
g58
NtRp2258
(dp2259
g61
(dp2260
g81
g82
ssg70
g2254
sg63
(lp2261
S'url'
p2262
asbag56
(g77
g58
NtRp2263
(dp2264
g61
(dp2265
g88
g89
ssg70
g2254
sg63
(lp2266
S':'
asbag56
(g77
g58
NtRp2267
(dp2268
g61
(dp2269
sg70
g2254
sg63
(lp2270
g56
(g57
g58
NtRp2271
(dp2272
g61
(dp2273
g69
I5
ssg70
g2267
sg63
(lp2274
S'/datos/default/index'
p2275
asbasbasbag56
(g72
g58
NtRp2276
(dp2277
g61
(dp2278
sg70
g66
sg63
(lp2279
g56
(g77
g58
NtRp2280
(dp2281
g61
(dp2282
g81
g82
ssg70
g2276
sg63
(lp2283
S'uuid'
p2284
asbag56
(g77
g58
NtRp2285
(dp2286
g61
(dp2287
g88
g89
ssg70
g2276
sg63
(lp2288
S':'
asbag56
(g77
g58
NtRp2289
(dp2290
g61
(dp2291
sg70
g2276
sg63
(lp2292
g56
(g57
g58
NtRp2293
(dp2294
g61
(dp2295
g69
I5
ssg70
g2289
sg63
(lp2296
S'datos/127.0.0.1.2011-09-07.20-03-52.6f0f7320-c820-44dd-b183-29c2df6b8da5'
p2297
asbasbasbag56
(g72
g58
NtRp2298
(dp2299
g61
(dp2300
sg70
g66
sg63
(lp2301
g56
(g77
g58
NtRp2302
(dp2303
g61
(dp2304
g81
g82
ssg70
g2298
sg63
(lp2305
S'vars'
p2306
asbag56
(g77
g58
NtRp2307
(dp2308
g61
(dp2309
g88
g89
ssg70
g2298
sg63
(lp2310
S':'
asbag56
(g77
g58
NtRp2311
(dp2312
g61
(dp2313
sg70
g2298
sg63
(lp2314
g56
(g57
g58
NtRp2315
(dp2316
g61
(dp2317
g69
I5
ssg70
g2311
sg63
(lp2318
g56
(g65
g58
NtRp2319
(dp2320
g61
(dp2321
g69
I4
ssg70
Nsg63
(lp2322
sbasbasbasbag56
(g72
g58
NtRp2323
(dp2324
g61
(dp2325
sg70
g66
sg63
(lp2326
g56
(g77
g58
NtRp2327
(dp2328
g61
(dp2329
g81
g82
ssg70
g2323
sg63
(lp2330
S'wsgi'
p2331
asbag56
(g77
g58
NtRp2332
(dp2333
g61
(dp2334
g88
g89
ssg70
g2323
sg63
(lp2335
S':'
asbag56
(g77
g58
NtRp2336
(dp2337
g61
(dp2338
sg70
g2323
sg63
(lp2339
g56
(g57
g58
NtRp2340
(dp2341
g61
(dp2342
g69
I5
ssg70
g2336
sg63
(lp2343
g56
(g65
g58
NtRp2344
(dp2345
g61
(dp2346
g69
I4
ssg70
Nsg63
(lp2347
g56
(g72
g58
NtRp2348
(dp2349
g61
(dp2350
sg70
g2344
sg63
(lp2351
g56
(g77
g58
NtRp2352
(dp2353
g61
(dp2354
g81
g82
ssg70
g2348
sg63
(lp2355
S'environ'
p2356
asbag56
(g77
g58
NtRp2357
(dp2358
g61
(dp2359
g88
g89
ssg70
g2348
sg63
(lp2360
S':'
asbag56
(g77
g58
NtRp2361
(dp2362
g61
(dp2363
sg70
g2348
sg63
(lp2364
g56
(g57
g58
NtRp2365
(dp2366
g61
(dp2367
g69
I4
ssg70
g2361
sg63
(lp2368
g56
(g65
g58
NtRp2369
(dp2370
g61
(dp2371
g69
I3
ssg70
Nsg63
(lp2372
g56
(g72
g58
NtRp2373
(dp2374
g61
(dp2375
sg70
g2369
sg63
(lp2376
g56
(g77
g58
NtRp2377
(dp2378
g61
(dp2379
g81
g82
ssg70
g2373
sg63
(lp2380
S'HTTP_ACCEPT'
p2381
asbag56
(g77
g58
NtRp2382
(dp2383
g61
(dp2384
g88
g89
ssg70
g2373
sg63
(lp2385
S':'
asbag56
(g77
g58
NtRp2386
(dp2387
g61
(dp2388
sg70
g2373
sg63
(lp2389
g56
(g57
g58
NtRp2390
(dp2391
g61
(dp2392
g69
I3
ssg70
g2386
sg63
(lp2393
g1372
asbasbasbag56
(g72
g58
NtRp2394
(dp2395
g61
(dp2396
sg70
g2369
sg63
(lp2397
g56
(g77
g58
NtRp2398
(dp2399
g61
(dp2400
g81
g82
ssg70
g2394
sg63
(lp2401
S'HTTP_ACCEPT_CHARSET'
p2402
asbag56
(g77
g58
NtRp2403
(dp2404
g61
(dp2405
g88
g89
ssg70
g2394
sg63
(lp2406
S':'
asbag56
(g77
g58
NtRp2407
(dp2408
g61
(dp2409
sg70
g2394
sg63
(lp2410
g56
(g57
g58
NtRp2411
(dp2412
g61
(dp2413
g69
I3
ssg70
g2407
sg63
(lp2414
g1394
asbasbasbag56
(g72
g58
NtRp2415
(dp2416
g61
(dp2417
sg70
g2369
sg63
(lp2418
g56
(g77
g58
NtRp2419
(dp2420
g61
(dp2421
g81
g82
ssg70
g2415
sg63
(lp2422
S'HTTP_ACCEPT_ENCODING'
p2423
asbag56
(g77
g58
NtRp2424
(dp2425
g61
(dp2426
g88
g89
ssg70
g2415
sg63
(lp2427
S':'
asbag56
(g77
g58
NtRp2428
(dp2429
g61
(dp2430
sg70
g2415
sg63
(lp2431
g56
(g57
g58
NtRp2432
(dp2433
g61
(dp2434
g69
I3
ssg70
g2428
sg63
(lp2435
g1416
asbasbasbag56
(g72
g58
NtRp2436
(dp2437
g61
(dp2438
sg70
g2369
sg63
(lp2439
g56
(g77
g58
NtRp2440
(dp2441
g61
(dp2442
g81
g82
ssg70
g2436
sg63
(lp2443
S'HTTP_ACCEPT_LANGUAGE'
p2444
asbag56
(g77
g58
NtRp2445
(dp2446
g61
(dp2447
g88
g89
ssg70
g2436
sg63
(lp2448
S':'
asbag56
(g77
g58
NtRp2449
(dp2450
g61
(dp2451
sg70
g2436
sg63
(lp2452
g56
(g57
g58
NtRp2453
(dp2454
g61
(dp2455
g69
I3
ssg70
g2449
sg63
(lp2456
g1438
asbasbasbag56
(g72
g58
NtRp2457
(dp2458
g61
(dp2459
sg70
g2369
sg63
(lp2460
g56
(g77
g58
NtRp2461
(dp2462
g61
(dp2463
g81
g82
ssg70
g2457
sg63
(lp2464
S'HTTP_CACHE_CONTROL'
p2465
asbag56
(g77
g58
NtRp2466
(dp2467
g61
(dp2468
g88
g89
ssg70
g2457
sg63
(lp2469
S':'
asbag56
(g77
g58
NtRp2470
(dp2471
g61
(dp2472
sg70
g2457
sg63
(lp2473
g56
(g57
g58
NtRp2474
(dp2475
g61
(dp2476
g69
I3
ssg70
g2470
sg63
(lp2477
g1460
asbasbasbag56
(g72
g58
NtRp2478
(dp2479
g61
(dp2480
sg70
g2369
sg63
(lp2481
g56
(g77
g58
NtRp2482
(dp2483
g61
(dp2484
g81
g82
ssg70
g2478
sg63
(lp2485
S'HTTP_CONNECTION'
p2486
asbag56
(g77
g58
NtRp2487
(dp2488
g61
(dp2489
g88
g89
ssg70
g2478
sg63
(lp2490
S':'
asbag56
(g77
g58
NtRp2491
(dp2492
g61
(dp2493
sg70
g2478
sg63
(lp2494
g56
(g57
g58
NtRp2495
(dp2496
g61
(dp2497
g69
I3
ssg70
g2491
sg63
(lp2498
g1482
asbasbasbag56
(g72
g58
NtRp2499
(dp2500
g61
(dp2501
sg70
g2369
sg63
(lp2502
g56
(g77
g58
NtRp2503
(dp2504
g61
(dp2505
g81
g82
ssg70
g2499
sg63
(lp2506
S'HTTP_COOKIE'
p2507
asbag56
(g77
g58
NtRp2508
(dp2509
g61
(dp2510
g88
g89
ssg70
g2499
sg63
(lp2511
S':'
asbag56
(g77
g58
NtRp2512
(dp2513
g61
(dp2514
sg70
g2499
sg63
(lp2515
g56
(g57
g58
NtRp2516
(dp2517
g61
(dp2518
g69
I3
ssg70
g2512
sg63
(lp2519
g1504
asbasbasbag56
(g72
g58
NtRp2520
(dp2521
g61
(dp2522
sg70
g2369
sg63
(lp2523
g56
(g77
g58
NtRp2524
(dp2525
g61
(dp2526
g81
g82
ssg70
g2520
sg63
(lp2527
S'HTTP_HOST'
p2528
asbag56
(g77
g58
NtRp2529
(dp2530
g61
(dp2531
g88
g89
ssg70
g2520
sg63
(lp2532
S':'
asbag56
(g77
g58
NtRp2533
(dp2534
g61
(dp2535
sg70
g2520
sg63
(lp2536
g56
(g57
g58
NtRp2537
(dp2538
g61
(dp2539
g69
I3
ssg70
g2533
sg63
(lp2540
g1526
asbasbasbag56
(g72
g58
NtRp2541
(dp2542
g61
(dp2543
sg70
g2369
sg63
(lp2544
g56
(g77
g58
NtRp2545
(dp2546
g61
(dp2547
g81
g82
ssg70
g2541
sg63
(lp2548
S'HTTP_USER_AGENT'
p2549
asbag56
(g77
g58
NtRp2550
(dp2551
g61
(dp2552
g88
g89
ssg70
g2541
sg63
(lp2553
S':'
asbag56
(g77
g58
NtRp2554
(dp2555
g61
(dp2556
sg70
g2541
sg63
(lp2557
g56
(g57
g58
NtRp2558
(dp2559
g61
(dp2560
g69
I3
ssg70
g2554
sg63
(lp2561
g1548
asbasbasbag56
(g72
g58
NtRp2562
(dp2563
g61
(dp2564
sg70
g2369
sg63
(lp2565
g56
(g77
g58
NtRp2566
(dp2567
g61
(dp2568
g81
g82
ssg70
g2562
sg63
(lp2569
S'PATH_INFO'
p2570
asbag56
(g77
g58
NtRp2571
(dp2572
g61
(dp2573
g88
g89
ssg70
g2562
sg63
(lp2574
S':'
asbag56
(g77
g58
NtRp2575
(dp2576
g61
(dp2577
sg70
g2562
sg63
(lp2578
g56
(g57
g58
NtRp2579
(dp2580
g61
(dp2581
g69
I3
ssg70
g2575
sg63
(lp2582
g1591
asbasbasbag56
(g72
g58
NtRp2583
(dp2584
g61
(dp2585
sg70
g2369
sg63
(lp2586
g56
(g77
g58
NtRp2587
(dp2588
g61
(dp2589
g81
g82
ssg70
g2583
sg63
(lp2590
S'QUERY_STRING'
p2591
asbag56
(g77
g58
NtRp2592
(dp2593
g61
(dp2594
g88
g89
ssg70
g2583
sg63
(lp2595
S':'
asbag56
(g77
g58
NtRp2596
(dp2597
g61
(dp2598
sg70
g2583
sg63
(lp2599
g56
(g57
g58
NtRp2600
(dp2601
g61
(dp2602
g69
I3
ssg70
g2596
sg63
(lp2603
S''
asbasbasbag56
(g72
g58
NtRp2604
(dp2605
g61
(dp2606
sg70
g2369
sg63
(lp2607
g56
(g77
g58
NtRp2608
(dp2609
g61
(dp2610
g81
g82
ssg70
g2604
sg63
(lp2611
S'REMOTE_ADDR'
p2612
asbag56
(g77
g58
NtRp2613
(dp2614
g61
(dp2615
g88
g89
ssg70
g2604
sg63
(lp2616
S':'
asbag56
(g77
g58
NtRp2617
(dp2618
g61
(dp2619
sg70
g2604
sg63
(lp2620
g56
(g57
g58
NtRp2621
(dp2622
g61
(dp2623
g69
I3
ssg70
g2617
sg63
(lp2624
g189
asbasbasbag56
(g72
g58
NtRp2625
(dp2626
g61
(dp2627
sg70
g2369
sg63
(lp2628
g56
(g77
g58
NtRp2629
(dp2630
g61
(dp2631
g81
g82
ssg70
g2625
sg63
(lp2632
S'REMOTE_PORT'
p2633
asbag56
(g77
g58
NtRp2634
(dp2635
g61
(dp2636
g88
g89
ssg70
g2625
sg63
(lp2637
S':'
asbag56
(g77
g58
NtRp2638
(dp2639
g61
(dp2640
sg70
g2625
sg63
(lp2641
g56
(g57
g58
NtRp2642
(dp2643
g61
(dp2644
g69
I3
ssg70
g2638
sg63
(lp2645
g1655
asbasbasbag56
(g72
g58
NtRp2646
(dp2647
g61
(dp2648
sg70
g2369
sg63
(lp2649
g56
(g77
g58
NtRp2650
(dp2651
g61
(dp2652
g81
g82
ssg70
g2646
sg63
(lp2653
S'REQUEST_METHOD'
p2654
asbag56
(g77
g58
NtRp2655
(dp2656
g61
(dp2657
g88
g89
ssg70
g2646
sg63
(lp2658
S':'
asbag56
(g77
g58
NtRp2659
(dp2660
g61
(dp2661
sg70
g2646
sg63
(lp2662
g56
(g57
g58
NtRp2663
(dp2664
g61
(dp2665
g69
I3
ssg70
g2659
sg63
(lp2666
g1677
asbasbasbag56
(g72
g58
NtRp2667
(dp2668
g61
(dp2669
sg70
g2369
sg63
(lp2670
g56
(g77
g58
NtRp2671
(dp2672
g61
(dp2673
g81
g82
ssg70
g2667
sg63
(lp2674
S'SCRIPT_NAME'
p2675
asbag56
(g77
g58
NtRp2676
(dp2677
g61
(dp2678
g88
g89
ssg70
g2667
sg63
(lp2679
S':'
asbag56
(g77
g58
NtRp2680
(dp2681
g61
(dp2682
sg70
g2667
sg63
(lp2683
g56
(g57
g58
NtRp2684
(dp2685
g61
(dp2686
g69
I3
ssg70
g2680
sg63
(lp2687
S''
asbasbasbag56
(g72
g58
NtRp2688
(dp2689
g61
(dp2690
sg70
g2369
sg63
(lp2691
g56
(g77
g58
NtRp2692
(dp2693
g61
(dp2694
g81
g82
ssg70
g2688
sg63
(lp2695
S'SERVER_NAME'
p2696
asbag56
(g77
g58
NtRp2697
(dp2698
g61
(dp2699
g88
g89
ssg70
g2688
sg63
(lp2700
S':'
asbag56
(g77
g58
NtRp2701
(dp2702
g61
(dp2703
sg70
g2688
sg63
(lp2704
g56
(g57
g58
NtRp2705
(dp2706
g61
(dp2707
g69
I3
ssg70
g2701
sg63
(lp2708
g1720
asbasbasbag56
(g72
g58
NtRp2709
(dp2710
g61
(dp2711
sg70
g2369
sg63
(lp2712
g56
(g77
g58
NtRp2713
(dp2714
g61
(dp2715
g81
g82
ssg70
g2709
sg63
(lp2716
S'SERVER_PORT'
p2717
asbag56
(g77
g58
NtRp2718
(dp2719
g61
(dp2720
g88
g89
ssg70
g2709
sg63
(lp2721
S':'
asbag56
(g77
g58
NtRp2722
(dp2723
g61
(dp2724
sg70
g2709
sg63
(lp2725
g56
(g57
g58
NtRp2726
(dp2727
g61
(dp2728
g69
I3
ssg70
g2722
sg63
(lp2729
g1742
asbasbasbag56
(g72
g58
NtRp2730
(dp2731
g61
(dp2732
sg70
g2369
sg63
(lp2733
g56
(g77
g58
NtRp2734
(dp2735
g61
(dp2736
g81
g82
ssg70
g2730
sg63
(lp2737
S'SERVER_PROTOCOL'
p2738
asbag56
(g77
g58
NtRp2739
(dp2740
g61
(dp2741
g88
g89
ssg70
g2730
sg63
(lp2742
S':'
asbag56
(g77
g58
NtRp2743
(dp2744
g61
(dp2745
sg70
g2730
sg63
(lp2746
g56
(g57
g58
NtRp2747
(dp2748
g61
(dp2749
g69
I3
ssg70
g2743
sg63
(lp2750
g1764
asbasbasbag56
(g72
g58
NtRp2751
(dp2752
g61
(dp2753
sg70
g2369
sg63
(lp2754
g56
(g77
g58
NtRp2755
(dp2756
g61
(dp2757
g81
g82
ssg70
g2751
sg63
(lp2758
S'SERVER_SOFTWARE'
p2759
asbag56
(g77
g58
NtRp2760
(dp2761
g61
(dp2762
g88
g89
ssg70
g2751
sg63
(lp2763
S':'
asbag56
(g77
g58
NtRp2764
(dp2765
g61
(dp2766
sg70
g2751
sg63
(lp2767
g56
(g57
g58
NtRp2768
(dp2769
g61
(dp2770
g69
I3
ssg70
g2764
sg63
(lp2771
g1786
asbasbasbag56
(g72
g58
NtRp2772
(dp2773
g61
(dp2774
sg70
g2369
sg63
(lp2775
g56
(g77
g58
NtRp2776
(dp2777
g61
(dp2778
g81
g82
ssg70
g2772
sg63
(lp2779
S'wsgi.errors'
p2780
asbag56
(g77
g58
NtRp2781
(dp2782
g61
(dp2783
g88
g89
ssg70
g2772
sg63
(lp2784
S':'
asbag56
(g77
g58
NtRp2785
(dp2786
g61
(dp2787
sg70
g2772
sg63
(lp2788
g56
(g57
g58
NtRp2789
(dp2790
g61
(dp2791
g69
I3
ssg70
g2785
sg63
(lp2792
S"<open file '<stderr>', mode 'w' at 0xb76e20d0>"
p2793
asbasbasbag56
(g72
g58
NtRp2794
(dp2795
g61
(dp2796
sg70
g2369
sg63
(lp2797
g56
(g77
g58
NtRp2798
(dp2799
g61
(dp2800
g81
g82
ssg70
g2794
sg63
(lp2801
S'wsgi.file_wrapper'
p2802
asbag56
(g77
g58
NtRp2803
(dp2804
g61
(dp2805
g88
g89
ssg70
g2794
sg63
(lp2806
S':'
asbag56
(g77
g58
NtRp2807
(dp2808
g61
(dp2809
sg70
g2794
sg63
(lp2810
g56
(g57
g58
NtRp2811
(dp2812
g61
(dp2813
g69
I3
ssg70
g2807
sg63
(lp2814
S'<class gluon.rocket.FileWrapper at 0x96a132c>'
p2815
asbasbasbag56
(g72
g58
NtRp2816
(dp2817
g61
(dp2818
sg70
g2369
sg63
(lp2819
g56
(g77
g58
NtRp2820
(dp2821
g61
(dp2822
g81
g82
ssg70
g2816
sg63
(lp2823
S'wsgi.input'
p2824
asbag56
(g77
g58
NtRp2825
(dp2826
g61
(dp2827
g88
g89
ssg70
g2816
sg63
(lp2828
S':'
asbag56
(g77
g58
NtRp2829
(dp2830
g61
(dp2831
sg70
g2816
sg63
(lp2832
g56
(g57
g58
NtRp2833
(dp2834
g61
(dp2835
g69
I3
ssg70
g2829
sg63
(lp2836
S'<cStringIO.StringO object at 0x9554b40>'
p2837
asbasbasbag56
(g72
g58
NtRp2838
(dp2839
g61
(dp2840
sg70
g2369
sg63
(lp2841
g56
(g77
g58
NtRp2842
(dp2843
g61
(dp2844
g81
g82
ssg70
g2838
sg63
(lp2845
S'wsgi.multiprocess'
p2846
asbag56
(g77
g58
NtRp2847
(dp2848
g61
(dp2849
g88
g89
ssg70
g2838
sg63
(lp2850
S':'
asbag56
(g77
g58
NtRp2851
(dp2852
g61
(dp2853
sg70
g2838
sg63
(lp2854
g56
(g57
g58
NtRp2855
(dp2856
g61
(dp2857
g69
I3
ssg70
g2851
sg63
(lp2858
g99
asbasbasbag56
(g72
g58
NtRp2859
(dp2860
g61
(dp2861
sg70
g2369
sg63
(lp2862
g56
(g77
g58
NtRp2863
(dp2864
g61
(dp2865
g81
g82
ssg70
g2859
sg63
(lp2866
S'wsgi.multithread'
p2867
asbag56
(g77
g58
NtRp2868
(dp2869
g61
(dp2870
g88
g89
ssg70
g2859
sg63
(lp2871
S':'
asbag56
(g77
g58
NtRp2872
(dp2873
g61
(dp2874
sg70
g2859
sg63
(lp2875
g56
(g57
g58
NtRp2876
(dp2877
g61
(dp2878
g69
I3
ssg70
g2872
sg63
(lp2879
g1960
asbasbasbag56
(g72
g58
NtRp2880
(dp2881
g61
(dp2882
sg70
g2369
sg63
(lp2883
g56
(g77
g58
NtRp2884
(dp2885
g61
(dp2886
g81
g82
ssg70
g2880
sg63
(lp2887
S'wsgi.run_once'
p2888
asbag56
(g77
g58
NtRp2889
(dp2890
g61
(dp2891
g88
g89
ssg70
g2880
sg63
(lp2892
S':'
asbag56
(g77
g58
NtRp2893
(dp2894
g61
(dp2895
sg70
g2880
sg63
(lp2896
g56
(g57
g58
NtRp2897
(dp2898
g61
(dp2899
g69
I3
ssg70
g2893
sg63
(lp2900
g99
asbasbasbag56
(g72
g58
NtRp2901
(dp2902
g61
(dp2903
sg70
g2369
sg63
(lp2904
g56
(g77
g58
NtRp2905
(dp2906
g61
(dp2907
g81
g82
ssg70
g2901
sg63
(lp2908
S'wsgi.url_scheme'
p2909
asbag56
(g77
g58
NtRp2910
(dp2911
g61
(dp2912
g88
g89
ssg70
g2901
sg63
(lp2913
S':'
asbag56
(g77
g58
NtRp2914
(dp2915
g61
(dp2916
sg70
g2901
sg63
(lp2917
g56
(g57
g58
NtRp2918
(dp2919
g61
(dp2920
g69
I3
ssg70
g2914
sg63
(lp2921
g2003
asbasbasbag56
(g72
g58
NtRp2922
(dp2923
g61
(dp2924
sg70
g2369
sg63
(lp2925
g56
(g77
g58
NtRp2926
(dp2927
g61
(dp2928
g81
g82
ssg70
g2922
sg63
(lp2929
S'wsgi.version'
p2930
asbag56
(g77
g58
NtRp2931
(dp2932
g61
(dp2933
g88
g89
ssg70
g2922
sg63
(lp2934
S':'
asbag56
(g77
g58
NtRp2935
(dp2936
g61
(dp2937
sg70
g2922
sg63
(lp2938
g56
(g57
g58
NtRp2939
(dp2940
g61
(dp2941
g69
I3
ssg70
g2935
sg63
(lp2942
S'1'
asbasbasbasbasbasbasbasbasbasbasbasbasbsS'frames'
p2943
(lp2944
(dp2945
S'file'
p2946
S'/home/alumno/web2py/gluon/restricted.py'
p2947
sS'dump'
p2948
(dp2949
S'environment'
p2950
S"{'A': <class 'gluon.html.A'>, 'B': <class 'gluon.html.B'>, 'BEAUTIFY': <class 'gluon.html.BEAUTIFY'>, 'BODY': <class 'gluon.html.BODY'>, 'BR': <class 'gluon.html.BR'>, 'BUTTON': <class 'gluon.html.BUTTON'>, 'CAT': <class 'gluon.html.CAT'>, 'CENTER': <class 'gluon.html.CENTER'>, 'CLEANUP': <class 'gluon.validators.CLEANUP'>, 'CODE': <class 'gluon.html.CODE'>, ...}"
p2951
sS'ccode'
p2952
S'<code object <module> at 0xa06dc80, file "/home/...ications/datos/views/default/index.html", line 1>'
p2953
ssS'lnum'
p2954
I192
sS'lines'
p2955
(dp2956
I192
S'        exec ccode in environment'
p2957
sI193
S'    except HTTP:'
p2958
sI194
S'        raise'
p2959
sI195
S'    except Exception, error:'
p2960
sI196
S'        # XXX Show exception in Wing IDE if running in debugger'
p2961
sI187
S'    try:'
p2962
sI188
S'        if type(code) == types.CodeType:'
p2963
sI189
S'            ccode = code'
p2964
sI190
S'        else:'
p2965
sI191
S'            ccode = compile2(code,layer)'
p2966
ssS'call'
p2967
S'(code=\'response.write(\\\'<!DOCTYPE html>\\\\n<html lang="\\\', ...t   -->    \\\\n  </body>\\\\n</html>\\\\n\\\', escape=False)\', environment={\'A\': <class \'gluon.html.A\'>, \'B\': <class \'gluon.html.B\'>, \'BEAUTIFY\': <class \'gluon.html.BEAUTIFY\'>, \'BODY\': <class \'gluon.html.BODY\'>, \'BR\': <class \'gluon.html.BR\'>, \'BUTTON\': <class \'gluon.html.BUTTON\'>, \'CAT\': <class \'gluon.html.CAT\'>, \'CENTER\': <class \'gluon.html.CENTER\'>, \'CLEANUP\': <class \'gluon.validators.CLEANUP\'>, \'CODE\': <class \'gluon.html.CODE\'>, ...}, layer=\'/home/alumno/web2py/applications/datos/views/default/index.html\')'
p2968
sS'func'
p2969
S'restricted'
p2970
sa(dp2971
g2946
S'/home/alumno/web2py/applications/datos/views/default/index.html'
p2972
sg2948
(dp2973
sg2954
I103
sg2955
(dp2974
I96
S'    pass'
p2975
sI97
S'response.write(\'\\n\\n\\t  <!-- content -->\\n\\t  <div id="content" \', escape=False)'
p2976
sI98
S'response.write(XML(style_content))'
p2977
sI99
S"response.write(' >\\n\\t    ', escape=False)"
p2978
sI100
S"response.write('\\n<h1>Alumnos</h1>\\n<p>Este es el registro dde alumnos en el sistema\\n', escape=False)"
p2979
sI101
S'for alumno in alumnos:'
p2980
sI102
S"    response.write('\\n\\t', escape=False)"
p2981
sI103
S'    response.write(alumno.nombre)'
p2982
sI104
S"    response.write('\\n', escape=False)"
p2983
sI105
S'    pass'
p2984
sI106
S"response.write('\\n</p>\\n', escape=False)"
p2985
sI107
S"response.write('\\t\\n\\t  </div>\\n\\t  <!-- content -->\\n\\n\\t  ', escape=False)"
p2986
sI108
S'if right_sidebar_enabled:'
p2987
sI109
S'    response.write(\'\\n          <div id="right_sidebar" \', escape=False)'
p2988
sI110
S'    response.write(XML(right_sidebar_style))'
p2989
sI111
S'    response.write(\' >\\n            <div style="padding: 4px;">\\n              \', escape=False)'
p2990
sI112
S"    response.write('Content Right Sidebar', escape=False)"
p2991
sI113
S"    response.write('\\n            </div>\\n\\t  </div><!-- right_sidebar -->\\n          ', escape=False)"
p2992
sI94
S"    response.write('Content Left Sidebar', escape=False)"
p2993
sI95
S"    response.write('\\t\\t  \\n            </div>\\n          </div><!-- left_sidebar -->\\n\\t  ', escape=False)"
p2994
ssg2967
S'()'
p2995
sg2969
S'<module>'
p2996
sa(dp2997
g2946
S'/home/alumno/web2py/gluon/dal.py'
p2998
sg2948
(dp2999
S'self'
p3000
S"<Row {'update_record': <function <lambda> at 0xa...elete_record': <function <lambda> at 0xa07e79c>}>"
p3001
sS'key'
p3002
S"'nombre'"
p3003
ssg2954
I3786
sg2955
(dp3004
I3781
S''
sI3782
S'    def __setitem__(self, key, value):'
p3005
sI3783
S'        dict.__setitem__(self, str(key), value)'
p3006
sI3784
S''
sI3785
S'    def __getattr__(self, key):'
p3007
sI3786
S'        return self[key]'
p3008
sI3787
S''
sI3788
S'    def __setattr__(self, key, value):'
p3009
sI3789
S'        self[key] = value'
p3010
sI3790
S''
ssg2967
S"(self=<Row {'update_record': <function <lambda> at 0xa...elete_record': <function <lambda> at 0xa07e79c>}>, key='nombre')"
p3011
sg2969
S'__getattr__'
p3012
sa(dp3013
g2946
S'/home/alumno/web2py/gluon/dal.py'
p3014
sg2948
(dp3015
S'self'
p3016
S"<Row {'update_record': <function <lambda> at 0xa...elete_record': <function <lambda> at 0xa07e79c>}>"
p3017
sS'dict.__getitem__'
p3018
S"<method '__getitem__' of 'dict' objects>"
p3019
sS'key'
p3020
S"'nombre'"
p3021
sS'builtindict'
p3022
S"<type 'dict'>"
p3023
ssg2954
I3777
sg2955
(dp3024
I3776
S'            return self._extra[key]'
p3025
sI3777
S'        return dict.__getitem__(self, key)'
p3026
sI3778
S''
sI3779
S'    def __call__(self,key):'
p3027
sI3780
S'        return self.__getitem__(key)'
p3028
sI3781
S''
sI3772
S''
sI3773
S'    def __getitem__(self, key):'
p3029
sI3774
S'        key=str(key)'
p3030
sI3775
S"        if key in self.get('_extra',{}):"
p3031
ssg2967
S"(self=<Row {'update_record': <function <lambda> at 0xa...elete_record': <function <lambda> at 0xa07e79c>}>, key='nombre')"
p3032
sg2969
g19
sasS'pyver'
p3033
S'Python 2.6.6: /usr/bin/python'
p3034
sS'session'
p3035
g56
(g57
g58
NtRp3036
(dp3037
g61
(dp3038
sg63
(lp3039
g56
(g65
g58
NtRp3040
(dp3041
g61
(dp3042
g69
I5
ssg70
Nsg63
(lp3043
g56
(g72
g58
NtRp3044
(dp3045
g61
(dp3046
sg70
g3040
sg63
(lp3047
g56
(g77
g58
NtRp3048
(dp3049
g61
(dp3050
g81
g82
ssg70
g3044
sg63
(lp3051
S'last_query'
p3052
asbag56
(g77
g58
NtRp3053
(dp3054
g61
(dp3055
g88
g89
ssg70
g3044
sg63
(lp3056
S':'
asbag56
(g77
g58
NtRp3057
(dp3058
g61
(dp3059
sg70
g3044
sg63
(lp3060
g56
(g57
g58
NtRp3061
(dp3062
g61
(dp3063
g69
I5
ssg70
g3057
sg63
(lp3064
S'db.profesor.id>0'
p3065
asbasbasbasbasbsS'etype'
p3066
S"<type 'exceptions.KeyError'>"
p3067
sS'date'
p3068
S'Wed Sep  7 20:03:52 2011'
p3069
sS'response'
p3070
g56
(g57
g58
NtRp3071
(dp3072
g61
(dp3073
sg63
(lp3074
g56
(g65
g58
NtRp3075
(dp3076
g61
(dp3077
g69
I5
ssg70
Nsg63
(lp3078
g56
(g72
g58
NtRp3079
(dp3080
g61
(dp3081
sg70
g3075
sg63
(lp3082
g56
(g77
g58
NtRp3083
(dp3084
g61
(dp3085
g81
g82
ssg70
g3079
sg63
(lp3086
g154
asbag56
(g77
g58
NtRp3087
(dp3088
g61
(dp3089
g88
g89
ssg70
g3079
sg63
(lp3090
S':'
asbag56
(g77
g58
NtRp3091
(dp3092
g61
(dp3093
sg70
g3079
sg63
(lp3094
g56
(g57
g58
NtRp3095
(dp3096
g61
(dp3097
g69
I5
ssg70
g3091
sg63
(lp3098
S'<cStringIO.StringO object at 0x9547da0>'
p3099
asbasbasbag56
(g72
g58
NtRp3100
(dp3101
g61
(dp3102
sg70
g3075
sg63
(lp3103
g56
(g77
g58
NtRp3104
(dp3105
g61
(dp3106
g81
g82
ssg70
g3100
sg63
(lp3107
g220
asbag56
(g77
g58
NtRp3108
(dp3109
g61
(dp3110
g88
g89
ssg70
g3100
sg63
(lp3111
S':'
asbag56
(g77
g58
NtRp3112
(dp3113
g61
(dp3114
sg70
g3100
sg63
(lp3115
g56
(g57
g58
NtRp3116
(dp3117
g61
(dp3118
g69
I5
ssg70
g3112
sg63
(lp3119
g56
(g65
g58
NtRp3120
(dp3121
g61
(dp3122
g69
I4
ssg70
Nsg63
(lp3123
g56
(g72
g58
NtRp3124
(dp3125
g61
(dp3126
sg70
g3120
sg63
(lp3127
g56
(g77
g58
NtRp3128
(dp3129
g61
(dp3130
g81
g82
ssg70
g3124
sg63
(lp3131
S'session_id_datos'
p3132
asbag56
(g77
g58
NtRp3133
(dp3134
g61
(dp3135
g88
g89
ssg70
g3124
sg63
(lp3136
S':'
asbag56
(g77
g58
NtRp3137
(dp3138
g61
(dp3139
sg70
g3124
sg63
(lp3140
g56
(g57
g58
NtRp3141
(dp3142
g61
(dp3143
g69
I4
ssg70
g3137
sg63
(lp3144
g56
(g65
g58
NtRp3145
(dp3146
g61
(dp3147
g69
I3
ssg70
Nsg63
(lp3148
g56
(g72
g58
NtRp3149
(dp3150
g61
(dp3151
sg70
g3145
sg63
(lp3152
g56
(g77
g58
NtRp3153
(dp3154
g61
(dp3155
g81
g82
ssg70
g3149
sg63
(lp3156
g270
asbag56
(g77
g58
NtRp3157
(dp3158
g61
(dp3159
g88
g89
ssg70
g3149
sg63
(lp3160
S':'
asbag56
(g77
g58
NtRp3161
(dp3162
g61
(dp3163
sg70
g3149
sg63
(lp3164
g56
(g57
g58
NtRp3165
(dp3166
g61
(dp3167
g69
I3
ssg70
g3161
sg63
(lp3168
S''
asbasbasbag56
(g72
g58
NtRp3169
(dp3170
g61
(dp3171
sg70
g3145
sg63
(lp3172
g56
(g77
g58
NtRp3173
(dp3174
g61
(dp3175
g81
g82
ssg70
g3169
sg63
(lp3176
g291
asbag56
(g77
g58
NtRp3177
(dp3178
g61
(dp3179
g88
g89
ssg70
g3169
sg63
(lp3180
S':'
asbag56
(g77
g58
NtRp3181
(dp3182
g61
(dp3183
sg70
g3169
sg63
(lp3184
g56
(g57
g58
NtRp3185
(dp3186
g61
(dp3187
g69
I3
ssg70
g3181
sg63
(lp3188
S''
asbasbasbag56
(g72
g58
NtRp3189
(dp3190
g61
(dp3191
sg70
g3145
sg63
(lp3192
g56
(g77
g58
NtRp3193
(dp3194
g61
(dp3195
g81
g82
ssg70
g3189
sg63
(lp3196
g312
asbag56
(g77
g58
NtRp3197
(dp3198
g61
(dp3199
g88
g89
ssg70
g3189
sg63
(lp3200
S':'
asbag56
(g77
g58
NtRp3201
(dp3202
g61
(dp3203
sg70
g3189
sg63
(lp3204
g56
(g57
g58
NtRp3205
(dp3206
g61
(dp3207
g69
I3
ssg70
g3201
sg63
(lp3208
S''
asbasbasbag56
(g72
g58
NtRp3209
(dp3210
g61
(dp3211
sg70
g3145
sg63
(lp3212
g56
(g77
g58
NtRp3213
(dp3214
g61
(dp3215
g81
g82
ssg70
g3209
sg63
(lp3216
g333
asbag56
(g77
g58
NtRp3217
(dp3218
g61
(dp3219
g88
g89
ssg70
g3209
sg63
(lp3220
S':'
asbag56
(g77
g58
NtRp3221
(dp3222
g61
(dp3223
sg70
g3209
sg63
(lp3224
g56
(g57
g58
NtRp3225
(dp3226
g61
(dp3227
g69
I3
ssg70
g3221
sg63
(lp3228
S''
asbasbasbag56
(g72
g58
NtRp3229
(dp3230
g61
(dp3231
sg70
g3145
sg63
(lp3232
g56
(g77
g58
NtRp3233
(dp3234
g61
(dp3235
g81
g82
ssg70
g3229
sg63
(lp3236
g354
asbag56
(g77
g58
NtRp3237
(dp3238
g61
(dp3239
g88
g89
ssg70
g3229
sg63
(lp3240
S':'
asbag56
(g77
g58
NtRp3241
(dp3242
g61
(dp3243
sg70
g3229
sg63
(lp3244
g56
(g57
g58
NtRp3245
(dp3246
g61
(dp3247
g69
I3
ssg70
g3241
sg63
(lp3248
S''
asbasbasbag56
(g72
g58
NtRp3249
(dp3250
g61
(dp3251
sg70
g3145
sg63
(lp3252
g56
(g77
g58
NtRp3253
(dp3254
g61
(dp3255
g81
g82
ssg70
g3249
sg63
(lp3256
g375
asbag56
(g77
g58
NtRp3257
(dp3258
g61
(dp3259
g88
g89
ssg70
g3249
sg63
(lp3260
S':'
asbag56
(g77
g58
NtRp3261
(dp3262
g61
(dp3263
sg70
g3249
sg63
(lp3264
g56
(g57
g58
NtRp3265
(dp3266
g61
(dp3267
g69
I3
ssg70
g3261
sg63
(lp3268
S'/'
asbasbasbag56
(g72
g58
NtRp3269
(dp3270
g61
(dp3271
sg70
g3145
sg63
(lp3272
g56
(g77
g58
NtRp3273
(dp3274
g61
(dp3275
g81
g82
ssg70
g3269
sg63
(lp3276
g396
asbag56
(g77
g58
NtRp3277
(dp3278
g61
(dp3279
g88
g89
ssg70
g3269
sg63
(lp3280
S':'
asbag56
(g77
g58
NtRp3281
(dp3282
g61
(dp3283
sg70
g3269
sg63
(lp3284
g56
(g57
g58
NtRp3285
(dp3286
g61
(dp3287
g69
I3
ssg70
g3281
sg63
(lp3288
S''
asbasbasbag56
(g72
g58
NtRp3289
(dp3290
g61
(dp3291
sg70
g3145
sg63
(lp3292
g56
(g77
g58
NtRp3293
(dp3294
g61
(dp3295
g81
g82
ssg70
g3289
sg63
(lp3296
g417
asbag56
(g77
g58
NtRp3297
(dp3298
g61
(dp3299
g88
g89
ssg70
g3289
sg63
(lp3300
S':'
asbag56
(g77
g58
NtRp3301
(dp3302
g61
(dp3303
sg70
g3289
sg63
(lp3304
g56
(g57
g58
NtRp3305
(dp3306
g61
(dp3307
g69
I3
ssg70
g3301
sg63
(lp3308
S''
asbasbasbasbasbasbasbasbasbasbasbag56
(g72
g58
NtRp3309
(dp3310
g61
(dp3311
sg70
g3075
sg63
(lp3312
g56
(g77
g58
NtRp3313
(dp3314
g61
(dp3315
g81
g82
ssg70
g3309
sg63
(lp3316
S'files'
p3317
asbag56
(g77
g58
NtRp3318
(dp3319
g61
(dp3320
g88
g89
ssg70
g3309
sg63
(lp3321
S':'
asbag56
(g77
g58
NtRp3322
(dp3323
g61
(dp3324
sg70
g3309
sg63
(lp3325
g56
(g57
g58
NtRp3326
(dp3327
g61
(dp3328
g69
I5
ssg70
g3322
sg63
(lp3329
g56
(g65
g58
NtRp3330
(dp3331
g61
(dp3332
g69
I4
ssg70
Nsg63
(lp3333
g56
(g72
g58
NtRp3334
(dp3335
g61
(dp3336
sg70
g3330
sg63
(lp3337
g56
(g77
g58
NtRp3338
(dp3339
g61
(dp3340
sg70
g3334
sg63
(lp3341
g56
(g57
g58
NtRp3342
(dp3343
g61
(dp3344
g69
I4
ssg70
g3338
sg63
(lp3345
S'/datos/static/js/jquery.js'
p3346
asbasbasbag56
(g72
g58
NtRp3347
(dp3348
g61
(dp3349
sg70
g3330
sg63
(lp3350
g56
(g77
g58
NtRp3351
(dp3352
g61
(dp3353
sg70
g3347
sg63
(lp3354
g56
(g57
g58
NtRp3355
(dp3356
g61
(dp3357
g69
I4
ssg70
g3351
sg63
(lp3358
S'/datos/static/css/calendar.css'
p3359
asbasbasbag56
(g72
g58
NtRp3360
(dp3361
g61
(dp3362
sg70
g3330
sg63
(lp3363
g56
(g77
g58
NtRp3364
(dp3365
g61
(dp3366
sg70
g3360
sg63
(lp3367
g56
(g57
g58
NtRp3368
(dp3369
g61
(dp3370
g69
I4
ssg70
g3364
sg63
(lp3371
S'/datos/static/js/calendar.js'
p3372
asbasbasbag56
(g72
g58
NtRp3373
(dp3374
g61
(dp3375
sg70
g3330
sg63
(lp3376
g56
(g77
g58
NtRp3377
(dp3378
g61
(dp3379
sg70
g3373
sg63
(lp3380
g56
(g57
g58
NtRp3381
(dp3382
g61
(dp3383
g69
I4
ssg70
g3377
sg63
(lp3384
S'/datos/static/css/base.css'
p3385
asbasbasbag56
(g72
g58
NtRp3386
(dp3387
g61
(dp3388
sg70
g3330
sg63
(lp3389
g56
(g77
g58
NtRp3390
(dp3391
g61
(dp3392
sg70
g3386
sg63
(lp3393
g56
(g57
g58
NtRp3394
(dp3395
g61
(dp3396
g69
I4
ssg70
g3390
sg63
(lp3397
S'/datos/static/css/superfish.css'
p3398
asbasbasbag56
(g72
g58
NtRp3399
(dp3400
g61
(dp3401
sg70
g3330
sg63
(lp3402
g56
(g77
g58
NtRp3403
(dp3404
g61
(dp3405
sg70
g3399
sg63
(lp3406
g56
(g57
g58
NtRp3407
(dp3408
g61
(dp3409
g69
I4
ssg70
g3403
sg63
(lp3410
S'/datos/static/js/superfish.js'
p3411
asbasbasbasbasbasbasbag56
(g72
g58
NtRp3412
(dp3413
g61
(dp3414
sg70
g3075
sg63
(lp3415
g56
(g77
g58
NtRp3416
(dp3417
g61
(dp3418
g81
g82
ssg70
g3412
sg63
(lp3419
S'flash'
p3420
asbag56
(g77
g58
NtRp3421
(dp3422
g61
(dp3423
g88
g89
ssg70
g3412
sg63
(lp3424
S':'
asbag56
(g77
g58
NtRp3425
(dp3426
g61
(dp3427
sg70
g3412
sg63
(lp3428
g56
(g57
g58
NtRp3429
(dp3430
g61
(dp3431
g69
I5
ssg70
g3425
sg63
(lp3432
S''
asbasbasbag56
(g72
g58
NtRp3433
(dp3434
g61
(dp3435
sg70
g3075
sg63
(lp3436
g56
(g77
g58
NtRp3437
(dp3438
g61
(dp3439
g81
g82
ssg70
g3433
sg63
(lp3440
S'generic_patterns'
p3441
asbag56
(g77
g58
NtRp3442
(dp3443
g61
(dp3444
g88
g89
ssg70
g3433
sg63
(lp3445
S':'
asbag56
(g77
g58
NtRp3446
(dp3447
g61
(dp3448
sg70
g3433
sg63
(lp3449
g56
(g57
g58
NtRp3450
(dp3451
g61
(dp3452
g69
I5
ssg70
g3446
sg63
(lp3453
g56
(g65
g58
NtRp3454
(dp3455
g61
(dp3456
g69
I4
ssg70
Nsg63
(lp3457
sbasbasbasbag56
(g72
g58
NtRp3458
(dp3459
g61
(dp3460
sg70
g3075
sg63
(lp3461
g56
(g77
g58
NtRp3462
(dp3463
g61
(dp3464
g81
g82
ssg70
g3458
sg63
(lp3465
S'headers'
p3466
asbag56
(g77
g58
NtRp3467
(dp3468
g61
(dp3469
g88
g89
ssg70
g3458
sg63
(lp3470
S':'
asbag56
(g77
g58
NtRp3471
(dp3472
g61
(dp3473
sg70
g3458
sg63
(lp3474
g56
(g57
g58
NtRp3475
(dp3476
g61
(dp3477
g69
I5
ssg70
g3471
sg63
(lp3478
g56
(g65
g58
NtRp3479
(dp3480
g61
(dp3481
g69
I4
ssg70
Nsg63
(lp3482
g56
(g72
g58
NtRp3483
(dp3484
g61
(dp3485
sg70
g3479
sg63
(lp3486
g56
(g77
g58
NtRp3487
(dp3488
g61
(dp3489
g81
g82
ssg70
g3483
sg63
(lp3490
S'Cache-Control'
p3491
asbag56
(g77
g58
NtRp3492
(dp3493
g61
(dp3494
g88
g89
ssg70
g3483
sg63
(lp3495
S':'
asbag56
(g77
g58
NtRp3496
(dp3497
g61
(dp3498
sg70
g3483
sg63
(lp3499
g56
(g57
g58
NtRp3500
(dp3501
g61
(dp3502
g69
I4
ssg70
g3496
sg63
(lp3503
S'no-store, no-cache, must-revalidate, post-check=0, pre-check=0'
p3504
asbasbasbag56
(g72
g58
NtRp3505
(dp3506
g61
(dp3507
sg70
g3479
sg63
(lp3508
g56
(g77
g58
NtRp3509
(dp3510
g61
(dp3511
g81
g82
ssg70
g3505
sg63
(lp3512
S'Content-Type'
p3513
asbag56
(g77
g58
NtRp3514
(dp3515
g61
(dp3516
g88
g89
ssg70
g3505
sg63
(lp3517
S':'
asbag56
(g77
g58
NtRp3518
(dp3519
g61
(dp3520
sg70
g3505
sg63
(lp3521
g56
(g57
g58
NtRp3522
(dp3523
g61
(dp3524
g69
I4
ssg70
g3518
sg63
(lp3525
S'text/html; charset=utf-8'
p3526
asbasbasbag56
(g72
g58
NtRp3527
(dp3528
g61
(dp3529
sg70
g3479
sg63
(lp3530
g56
(g77
g58
NtRp3531
(dp3532
g61
(dp3533
g81
g82
ssg70
g3527
sg63
(lp3534
S'Expires'
p3535
asbag56
(g77
g58
NtRp3536
(dp3537
g61
(dp3538
g88
g89
ssg70
g3527
sg63
(lp3539
S':'
asbag56
(g77
g58
NtRp3540
(dp3541
g61
(dp3542
sg70
g3527
sg63
(lp3543
g56
(g57
g58
NtRp3544
(dp3545
g61
(dp3546
g69
I4
ssg70
g3540
sg63
(lp3547
S'Thu, 08 Sep 2011 01:03:52 GMT'
p3548
asbasbasbag56
(g72
g58
NtRp3549
(dp3550
g61
(dp3551
sg70
g3479
sg63
(lp3552
g56
(g77
g58
NtRp3553
(dp3554
g61
(dp3555
g81
g82
ssg70
g3549
sg63
(lp3556
S'Pragma'
p3557
asbag56
(g77
g58
NtRp3558
(dp3559
g61
(dp3560
g88
g89
ssg70
g3549
sg63
(lp3561
S':'
asbag56
(g77
g58
NtRp3562
(dp3563
g61
(dp3564
sg70
g3549
sg63
(lp3565
g56
(g57
g58
NtRp3566
(dp3567
g61
(dp3568
g69
I4
ssg70
g3562
sg63
(lp3569
S'no-cache'
p3570
asbasbasbag56
(g72
g58
NtRp3571
(dp3572
g61
(dp3573
sg70
g3479
sg63
(lp3574
g56
(g77
g58
NtRp3575
(dp3576
g61
(dp3577
g81
g82
ssg70
g3571
sg63
(lp3578
S'X-Powered-By'
p3579
asbag56
(g77
g58
NtRp3580
(dp3581
g61
(dp3582
g88
g89
ssg70
g3571
sg63
(lp3583
S':'
asbag56
(g77
g58
NtRp3584
(dp3585
g61
(dp3586
sg70
g3571
sg63
(lp3587
g56
(g57
g58
NtRp3588
(dp3589
g61
(dp3590
g69
I4
ssg70
g3584
sg63
(lp3591
S'web2py'
p3592
asbasbasbasbasbasbasbag56
(g72
g58
NtRp3593
(dp3594
g61
(dp3595
sg70
g3075
sg63
(lp3596
g56
(g77
g58
NtRp3597
(dp3598
g61
(dp3599
g81
g82
ssg70
g3593
sg63
(lp3600
S'menu'
p3601
asbag56
(g77
g58
NtRp3602
(dp3603
g61
(dp3604
g88
g89
ssg70
g3593
sg63
(lp3605
S':'
asbag56
(g77
g58
NtRp3606
(dp3607
g61
(dp3608
sg70
g3593
sg63
(lp3609
g56
(g57
g58
NtRp3610
(dp3611
g61
(dp3612
g69
I5
ssg70
g3606
sg63
(lp3613
g56
(g65
g58
NtRp3614
(dp3615
g61
(dp3616
g69
I4
ssg70
Nsg63
(lp3617
g56
(g72
g58
NtRp3618
(dp3619
g61
(dp3620
sg70
g3614
sg63
(lp3621
g56
(g77
g58
NtRp3622
(dp3623
g61
(dp3624
sg70
g3618
sg63
(lp3625
g56
(g57
g58
NtRp3626
(dp3627
g61
(dp3628
g69
I4
ssg70
g3622
sg63
(lp3629
g56
(g65
g58
NtRp3630
(dp3631
g61
(dp3632
g69
I3
ssg70
Nsg63
(lp3633
g56
(g72
g58
NtRp3634
(dp3635
g61
(dp3636
sg70
g3630
sg63
(lp3637
g56
(g77
g58
NtRp3638
(dp3639
g61
(dp3640
sg70
g3634
sg63
(lp3641
g56
(g57
g58
NtRp3642
(dp3643
g61
(dp3644
g69
I3
ssg70
g3638
sg63
(lp3645
cgluon.languages
lazyT_unpickle
p3646
(S's\x04\x00\x00\x00Home'
tRp3647
asbasbasbag56
(g72
g58
NtRp3648
(dp3649
g61
(dp3650
sg70
g3630
sg63
(lp3651
g56
(g77
g58
NtRp3652
(dp3653
g61
(dp3654
sg70
g3648
sg63
(lp3655
g56
(g57
g58
NtRp3656
(dp3657
g61
(dp3658
g69
I3
ssg70
g3652
sg63
(lp3659
g99
asbasbasbag56
(g72
g58
NtRp3660
(dp3661
g61
(dp3662
sg70
g3630
sg63
(lp3663
g56
(g77
g58
NtRp3664
(dp3665
g61
(dp3666
sg70
g3660
sg63
(lp3667
g56
(g57
g58
NtRp3668
(dp3669
g61
(dp3670
g69
I3
ssg70
g3664
sg63
(lp3671
S'/datos/default/index'
p3672
asbasbasbag56
(g72
g58
NtRp3673
(dp3674
g61
(dp3675
sg70
g3630
sg63
(lp3676
g56
(g77
g58
NtRp3677
(dp3678
g61
(dp3679
sg70
g3673
sg63
(lp3680
g56
(g57
g58
NtRp3681
(dp3682
g61
(dp3683
g69
I3
ssg70
g3677
sg63
(lp3684
g56
(g65
g58
NtRp3685
(dp3686
g61
(dp3687
g69
I2
ssg70
Nsg63
(lp3688
sbasbasbasbasbasbasbasbag56
(g72
g58
NtRp3689
(dp3690
g61
(dp3691
sg70
g3614
sg63
(lp3692
g56
(g77
g58
NtRp3693
(dp3694
g61
(dp3695
sg70
g3689
sg63
(lp3696
g56
(g57
g58
NtRp3697
(dp3698
g61
(dp3699
g69
I4
ssg70
g3693
sg63
(lp3700
g56
(g65
g58
NtRp3701
(dp3702
g61
(dp3703
g69
I3
ssg70
Nsg63
(lp3704
g56
(g72
g58
NtRp3705
(dp3706
g61
(dp3707
sg70
g3701
sg63
(lp3708
g56
(g77
g58
NtRp3709
(dp3710
g61
(dp3711
sg70
g3705
sg63
(lp3712
g56
(g57
g58
NtRp3713
(dp3714
g61
(dp3715
g69
I3
ssg70
g3709
sg63
(lp3716
g3646
(S's\x08\x00\x00\x00This App'
tRp3717
asbasbasbag56
(g72
g58
NtRp3718
(dp3719
g61
(dp3720
sg70
g3701
sg63
(lp3721
g56
(g77
g58
NtRp3722
(dp3723
g61
(dp3724
sg70
g3718
sg63
(lp3725
g56
(g57
g58
NtRp3726
(dp3727
g61
(dp3728
g69
I3
ssg70
g3722
sg63
(lp3729
g99
asbasbasbag56
(g72
g58
NtRp3730
(dp3731
g61
(dp3732
sg70
g3701
sg63
(lp3733
g56
(g77
g58
NtRp3734
(dp3735
g61
(dp3736
sg70
g3730
sg63
(lp3737
g56
(g57
g58
NtRp3738
(dp3739
g61
(dp3740
g69
I3
ssg70
g3734
sg63
(lp3741
S'/admin/default/design/datos'
p3742
asbasbasbag56
(g72
g58
NtRp3743
(dp3744
g61
(dp3745
sg70
g3701
sg63
(lp3746
g56
(g77
g58
NtRp3747
(dp3748
g61
(dp3749
sg70
g3743
sg63
(lp3750
g56
(g57
g58
NtRp3751
(dp3752
g61
(dp3753
g69
I3
ssg70
g3747
sg63
(lp3754
g56
(g65
g58
NtRp3755
(dp3756
g61
(dp3757
g69
I2
ssg70
Nsg63
(lp3758
g56
(g72
g58
NtRp3759
(dp3760
g61
(dp3761
sg70
g3755
sg63
(lp3762
g56
(g77
g58
NtRp3763
(dp3764
g61
(dp3765
sg70
g3759
sg63
(lp3766
g56
(g57
g58
NtRp3767
(dp3768
g61
(dp3769
g69
I2
ssg70
g3763
sg63
(lp3770
g56
(g65
g58
NtRp3771
(dp3772
g61
(dp3773
g69
I1
ssg70
Nsg63
(lp3774
g56
(g72
g58
NtRp3775
(dp3776
g61
(dp3777
sg70
g3771
sg63
(lp3778
g56
(g77
g58
NtRp3779
(dp3780
g61
(dp3781
sg70
g3775
sg63
(lp3782
g56
(g57
g58
NtRp3783
(dp3784
g61
(dp3785
g69
I1
ssg70
g3779
sg63
(lp3786
g3646
(S's\n\x00\x00\x00Controller'
tRp3787
asbasbasbag56
(g72
g58
NtRp3788
(dp3789
g61
(dp3790
sg70
g3771
sg63
(lp3791
g56
(g77
g58
NtRp3792
(dp3793
g61
(dp3794
sg70
g3788
sg63
(lp3795
g56
(g57
g58
NtRp3796
(dp3797
g61
(dp3798
g69
I1
ssg70
g3792
sg63
(lp3799
I00
asbasbasbag56
(g72
g58
NtRp3800
(dp3801
g61
(dp3802
sg70
g3771
sg63
(lp3803
g56
(g77
g58
NtRp3804
(dp3805
g61
(dp3806
sg70
g3800
sg63
(lp3807
g56
(g57
g58
NtRp3808
(dp3809
g61
(dp3810
g69
I1
ssg70
g3804
sg63
(lp3811
S'/admin/default/edit/datos/controllers/default.py'
p3812
asbasbasbasbasbasbasbag56
(g72
g58
NtRp3813
(dp3814
g61
(dp3815
sg70
g3755
sg63
(lp3816
g56
(g77
g58
NtRp3817
(dp3818
g61
(dp3819
sg70
g3813
sg63
(lp3820
g56
(g57
g58
NtRp3821
(dp3822
g61
(dp3823
g69
I2
ssg70
g3817
sg63
(lp3824
g56
(g65
g58
NtRp3825
(dp3826
g61
(dp3827
g69
I1
ssg70
Nsg63
(lp3828
g56
(g72
g58
NtRp3829
(dp3830
g61
(dp3831
sg70
g3825
sg63
(lp3832
g56
(g77
g58
NtRp3833
(dp3834
g61
(dp3835
sg70
g3829
sg63
(lp3836
g56
(g57
g58
NtRp3837
(dp3838
g61
(dp3839
g69
I1
ssg70
g3833
sg63
(lp3840
g3646
(S's\x04\x00\x00\x00View'
tRp3841
asbasbasbag56
(g72
g58
NtRp3842
(dp3843
g61
(dp3844
sg70
g3825
sg63
(lp3845
g56
(g77
g58
NtRp3846
(dp3847
g61
(dp3848
sg70
g3842
sg63
(lp3849
g56
(g57
g58
NtRp3850
(dp3851
g61
(dp3852
g69
I1
ssg70
g3846
sg63
(lp3853
I00
asbasbasbag56
(g72
g58
NtRp3854
(dp3855
g61
(dp3856
sg70
g3825
sg63
(lp3857
g56
(g77
g58
NtRp3858
(dp3859
g61
(dp3860
sg70
g3854
sg63
(lp3861
g56
(g57
g58
NtRp3862
(dp3863
g61
(dp3864
g69
I1
ssg70
g3858
sg63
(lp3865
S'/admin/default/edit/datos/views/default/index.html'
p3866
asbasbasbasbasbasbasbag56
(g72
g58
NtRp3867
(dp3868
g61
(dp3869
sg70
g3755
sg63
(lp3870
g56
(g77
g58
NtRp3871
(dp3872
g61
(dp3873
sg70
g3867
sg63
(lp3874
g56
(g57
g58
NtRp3875
(dp3876
g61
(dp3877
g69
I2
ssg70
g3871
sg63
(lp3878
g56
(g65
g58
NtRp3879
(dp3880
g61
(dp3881
g69
I1
ssg70
Nsg63
(lp3882
g56
(g72
g58
NtRp3883
(dp3884
g61
(dp3885
sg70
g3879
sg63
(lp3886
g56
(g77
g58
NtRp3887
(dp3888
g61
(dp3889
sg70
g3883
sg63
(lp3890
g56
(g57
g58
NtRp3891
(dp3892
g61
(dp3893
g69
I1
ssg70
g3887
sg63
(lp3894
g3646
(S's\x06\x00\x00\x00Layout'
tRp3895
asbasbasbag56
(g72
g58
NtRp3896
(dp3897
g61
(dp3898
sg70
g3879
sg63
(lp3899
g56
(g77
g58
NtRp3900
(dp3901
g61
(dp3902
sg70
g3896
sg63
(lp3903
g56
(g57
g58
NtRp3904
(dp3905
g61
(dp3906
g69
I1
ssg70
g3900
sg63
(lp3907
I00
asbasbasbag56
(g72
g58
NtRp3908
(dp3909
g61
(dp3910
sg70
g3879
sg63
(lp3911
g56
(g77
g58
NtRp3912
(dp3913
g61
(dp3914
sg70
g3908
sg63
(lp3915
g56
(g57
g58
NtRp3916
(dp3917
g61
(dp3918
g69
I1
ssg70
g3912
sg63
(lp3919
S'/admin/default/edit/datos/views/layout.html'
p3920
asbasbasbasbasbasbasbag56
(g72
g58
NtRp3921
(dp3922
g61
(dp3923
sg70
g3755
sg63
(lp3924
g56
(g77
g58
NtRp3925
(dp3926
g61
(dp3927
sg70
g3921
sg63
(lp3928
g56
(g57
g58
NtRp3929
(dp3930
g61
(dp3931
g69
I2
ssg70
g3925
sg63
(lp3932
g56
(g65
g58
NtRp3933
(dp3934
g61
(dp3935
g69
I1
ssg70
Nsg63
(lp3936
g56
(g72
g58
NtRp3937
(dp3938
g61
(dp3939
sg70
g3933
sg63
(lp3940
g56
(g77
g58
NtRp3941
(dp3942
g61
(dp3943
sg70
g3937
sg63
(lp3944
g56
(g57
g58
NtRp3945
(dp3946
g61
(dp3947
g69
I1
ssg70
g3941
sg63
(lp3948
g3646
(S's\n\x00\x00\x00Stylesheet'
tRp3949
asbasbasbag56
(g72
g58
NtRp3950
(dp3951
g61
(dp3952
sg70
g3933
sg63
(lp3953
g56
(g77
g58
NtRp3954
(dp3955
g61
(dp3956
sg70
g3950
sg63
(lp3957
g56
(g57
g58
NtRp3958
(dp3959
g61
(dp3960
g69
I1
ssg70
g3954
sg63
(lp3961
I00
asbasbasbag56
(g72
g58
NtRp3962
(dp3963
g61
(dp3964
sg70
g3933
sg63
(lp3965
g56
(g77
g58
NtRp3966
(dp3967
g61
(dp3968
sg70
g3962
sg63
(lp3969
g56
(g57
g58
NtRp3970
(dp3971
g61
(dp3972
g69
I1
ssg70
g3966
sg63
(lp3973
S'/admin/default/edit/datos/static/base.css'
p3974
asbasbasbasbasbasbasbag56
(g72
g58
NtRp3975
(dp3976
g61
(dp3977
sg70
g3755
sg63
(lp3978
g56
(g77
g58
NtRp3979
(dp3980
g61
(dp3981
sg70
g3975
sg63
(lp3982
g56
(g57
g58
NtRp3983
(dp3984
g61
(dp3985
g69
I2
ssg70
g3979
sg63
(lp3986
g56
(g65
g58
NtRp3987
(dp3988
g61
(dp3989
g69
I1
ssg70
Nsg63
(lp3990
g56
(g72
g58
NtRp3991
(dp3992
g61
(dp3993
sg70
g3987
sg63
(lp3994
g56
(g77
g58
NtRp3995
(dp3996
g61
(dp3997
sg70
g3991
sg63
(lp3998
g56
(g57
g58
NtRp3999
(dp4000
g61
(dp4001
g69
I1
ssg70
g3995
sg63
(lp4002
g3646
(S's\x08\x00\x00\x00DB Model'
tRp4003
asbasbasbag56
(g72
g58
NtRp4004
(dp4005
g61
(dp4006
sg70
g3987
sg63
(lp4007
g56
(g77
g58
NtRp4008
(dp4009
g61
(dp4010
sg70
g4004
sg63
(lp4011
g56
(g57
g58
NtRp4012
(dp4013
g61
(dp4014
g69
I1
ssg70
g4008
sg63
(lp4015
I00
asbasbasbag56
(g72
g58
NtRp4016
(dp4017
g61
(dp4018
sg70
g3987
sg63
(lp4019
g56
(g77
g58
NtRp4020
(dp4021
g61
(dp4022
sg70
g4016
sg63
(lp4023
g56
(g57
g58
NtRp4024
(dp4025
g61
(dp4026
g69
I1
ssg70
g4020
sg63
(lp4027
S'/admin/default/edit/datos/models/db.py'
p4028
asbasbasbasbasbasbasbag56
(g72
g58
NtRp4029
(dp4030
g61
(dp4031
sg70
g3755
sg63
(lp4032
g56
(g77
g58
NtRp4033
(dp4034
g61
(dp4035
sg70
g4029
sg63
(lp4036
g56
(g57
g58
NtRp4037
(dp4038
g61
(dp4039
g69
I2
ssg70
g4033
sg63
(lp4040
g56
(g65
g58
NtRp4041
(dp4042
g61
(dp4043
g69
I1
ssg70
Nsg63
(lp4044
g56
(g72
g58
NtRp4045
(dp4046
g61
(dp4047
sg70
g4041
sg63
(lp4048
g56
(g77
g58
NtRp4049
(dp4050
g61
(dp4051
sg70
g4045
sg63
(lp4052
g56
(g57
g58
NtRp4053
(dp4054
g61
(dp4055
g69
I1
ssg70
g4049
sg63
(lp4056
g3646
(S's\n\x00\x00\x00Menu Model'
tRp4057
asbasbasbag56
(g72
g58
NtRp4058
(dp4059
g61
(dp4060
sg70
g4041
sg63
(lp4061
g56
(g77
g58
NtRp4062
(dp4063
g61
(dp4064
sg70
g4058
sg63
(lp4065
g56
(g57
g58
NtRp4066
(dp4067
g61
(dp4068
g69
I1
ssg70
g4062
sg63
(lp4069
I00
asbasbasbag56
(g72
g58
NtRp4070
(dp4071
g61
(dp4072
sg70
g4041
sg63
(lp4073
g56
(g77
g58
NtRp4074
(dp4075
g61
(dp4076
sg70
g4070
sg63
(lp4077
g56
(g57
g58
NtRp4078
(dp4079
g61
(dp4080
g69
I1
ssg70
g4074
sg63
(lp4081
S'/admin/default/edit/datos/models/menu.py'
p4082
asbasbasbasbasbasbasbag56
(g72
g58
NtRp4083
(dp4084
g61
(dp4085
sg70
g3755
sg63
(lp4086
g56
(g77
g58
NtRp4087
(dp4088
g61
(dp4089
sg70
g4083
sg63
(lp4090
g56
(g57
g58
NtRp4091
(dp4092
g61
(dp4093
g69
I2
ssg70
g4087
sg63
(lp4094
g56
(g65
g58
NtRp4095
(dp4096
g61
(dp4097
g69
I1
ssg70
Nsg63
(lp4098
g56
(g72
g58
NtRp4099
(dp4100
g61
(dp4101
sg70
g4095
sg63
(lp4102
g56
(g77
g58
NtRp4103
(dp4104
g61
(dp4105
sg70
g4099
sg63
(lp4106
g56
(g57
g58
NtRp4107
(dp4108
g61
(dp4109
g69
I1
ssg70
g4103
sg63
(lp4110
g3646
(S's\x08\x00\x00\x00Database'
tRp4111
asbasbasbag56
(g72
g58
NtRp4112
(dp4113
g61
(dp4114
sg70
g4095
sg63
(lp4115
g56
(g77
g58
NtRp4116
(dp4117
g61
(dp4118
sg70
g4112
sg63
(lp4119
g56
(g57
g58
NtRp4120
(dp4121
g61
(dp4122
g69
I1
ssg70
g4116
sg63
(lp4123
I00
asbasbasbag56
(g72
g58
NtRp4124
(dp4125
g61
(dp4126
sg70
g4095
sg63
(lp4127
g56
(g77
g58
NtRp4128
(dp4129
g61
(dp4130
sg70
g4124
sg63
(lp4131
g56
(g57
g58
NtRp4132
(dp4133
g61
(dp4134
g69
I1
ssg70
g4128
sg63
(lp4135
S'/datos/appadmin/index'
p4136
asbasbasbasbasbasbasbag56
(g72
g58
NtRp4137
(dp4138
g61
(dp4139
sg70
g3755
sg63
(lp4140
g56
(g77
g58
NtRp4141
(dp4142
g61
(dp4143
sg70
g4137
sg63
(lp4144
g56
(g57
g58
NtRp4145
(dp4146
g61
(dp4147
g69
I2
ssg70
g4141
sg63
(lp4148
g56
(g65
g58
NtRp4149
(dp4150
g61
(dp4151
g69
I1
ssg70
Nsg63
(lp4152
g56
(g72
g58
NtRp4153
(dp4154
g61
(dp4155
sg70
g4149
sg63
(lp4156
g56
(g77
g58
NtRp4157
(dp4158
g61
(dp4159
sg70
g4153
sg63
(lp4160
g56
(g57
g58
NtRp4161
(dp4162
g61
(dp4163
g69
I1
ssg70
g4157
sg63
(lp4164
g3646
(S's\x06\x00\x00\x00Errors'
tRp4165
asbasbasbag56
(g72
g58
NtRp4166
(dp4167
g61
(dp4168
sg70
g4149
sg63
(lp4169
g56
(g77
g58
NtRp4170
(dp4171
g61
(dp4172
sg70
g4166
sg63
(lp4173
g56
(g57
g58
NtRp4174
(dp4175
g61
(dp4176
g69
I1
ssg70
g4170
sg63
(lp4177
I00
asbasbasbag56
(g72
g58
NtRp4178
(dp4179
g61
(dp4180
sg70
g4149
sg63
(lp4181
g56
(g77
g58
NtRp4182
(dp4183
g61
(dp4184
sg70
g4178
sg63
(lp4185
g56
(g57
g58
NtRp4186
(dp4187
g61
(dp4188
g69
I1
ssg70
g4182
sg63
(lp4189
S'/admin/default/errors/datos'
p4190
asbasbasbasbasbasbasbag56
(g72
g58
NtRp4191
(dp4192
g61
(dp4193
sg70
g3755
sg63
(lp4194
g56
(g77
g58
NtRp4195
(dp4196
g61
(dp4197
sg70
g4191
sg63
(lp4198
g56
(g57
g58
NtRp4199
(dp4200
g61
(dp4201
g69
I2
ssg70
g4195
sg63
(lp4202
g56
(g65
g58
NtRp4203
(dp4204
g61
(dp4205
g69
I1
ssg70
Nsg63
(lp4206
g56
(g72
g58
NtRp4207
(dp4208
g61
(dp4209
sg70
g4203
sg63
(lp4210
g56
(g77
g58
NtRp4211
(dp4212
g61
(dp4213
sg70
g4207
sg63
(lp4214
g56
(g57
g58
NtRp4215
(dp4216
g61
(dp4217
g69
I1
ssg70
g4211
sg63
(lp4218
g3646
(S's\x05\x00\x00\x00About'
tRp4219
asbasbasbag56
(g72
g58
NtRp4220
(dp4221
g61
(dp4222
sg70
g4203
sg63
(lp4223
g56
(g77
g58
NtRp4224
(dp4225
g61
(dp4226
sg70
g4220
sg63
(lp4227
g56
(g57
g58
NtRp4228
(dp4229
g61
(dp4230
g69
I1
ssg70
g4224
sg63
(lp4231
I00
asbasbasbag56
(g72
g58
NtRp4232
(dp4233
g61
(dp4234
sg70
g4203
sg63
(lp4235
g56
(g77
g58
NtRp4236
(dp4237
g61
(dp4238
sg70
g4232
sg63
(lp4239
g56
(g57
g58
NtRp4240
(dp4241
g61
(dp4242
g69
I1
ssg70
g4236
sg63
(lp4243
S'/admin/default/about/datos'
p4244
asbasbasbasbasbasbasbasbasbasbasbasbasbasbasbag56
(g72
g58
NtRp4245
(dp4246
g61
(dp4247
sg70
g3614
sg63
(lp4248
g56
(g77
g58
NtRp4249
(dp4250
g61
(dp4251
sg70
g4245
sg63
(lp4252
g56
(g57
g58
NtRp4253
(dp4254
g61
(dp4255
g69
I4
ssg70
g4249
sg63
(lp4256
g56
(g65
g58
NtRp4257
(dp4258
g61
(dp4259
g69
I3
ssg70
Nsg63
(lp4260
g56
(g72
g58
NtRp4261
(dp4262
g61
(dp4263
sg70
g4257
sg63
(lp4264
g56
(g77
g58
NtRp4265
(dp4266
g61
(dp4267
sg70
g4261
sg63
(lp4268
g56
(g57
g58
NtRp4269
(dp4270
g61
(dp4271
g69
I3
ssg70
g4265
sg63
(lp4272
g3646
(S's\t\x00\x00\x00Resources'
tRp4273
asbasbasbag56
(g72
g58
NtRp4274
(dp4275
g61
(dp4276
sg70
g4257
sg63
(lp4277
g56
(g77
g58
NtRp4278
(dp4279
g61
(dp4280
sg70
g4274
sg63
(lp4281
g56
(g57
g58
NtRp4282
(dp4283
g61
(dp4284
g69
I3
ssg70
g4278
sg63
(lp4285
g99
asbasbasbag56
(g72
g58
NtRp4286
(dp4287
g61
(dp4288
sg70
g4257
sg63
(lp4289
g56
(g77
g58
NtRp4290
(dp4291
g61
(dp4292
sg70
g4286
sg63
(lp4293
g56
(g57
g58
NtRp4294
(dp4295
g61
(dp4296
g69
I3
ssg70
g4290
sg63
(lp4297
S'None'
p4298
asbasbasbag56
(g72
g58
NtRp4299
(dp4300
g61
(dp4301
sg70
g4257
sg63
(lp4302
g56
(g77
g58
NtRp4303
(dp4304
g61
(dp4305
sg70
g4299
sg63
(lp4306
g56
(g57
g58
NtRp4307
(dp4308
g61
(dp4309
g69
I3
ssg70
g4303
sg63
(lp4310
g56
(g65
g58
NtRp4311
(dp4312
g61
(dp4313
g69
I2
ssg70
Nsg63
(lp4314
g56
(g72
g58
NtRp4315
(dp4316
g61
(dp4317
sg70
g4311
sg63
(lp4318
g56
(g77
g58
NtRp4319
(dp4320
g61
(dp4321
sg70
g4315
sg63
(lp4322
g56
(g57
g58
NtRp4323
(dp4324
g61
(dp4325
g69
I2
ssg70
g4319
sg63
(lp4326
g56
(g65
g58
NtRp4327
(dp4328
g61
(dp4329
g69
I1
ssg70
Nsg63
(lp4330
g56
(g72
g58
NtRp4331
(dp4332
g61
(dp4333
sg70
g4327
sg63
(lp4334
g56
(g77
g58
NtRp4335
(dp4336
g61
(dp4337
sg70
g4331
sg63
(lp4338
g56
(g57
g58
NtRp4339
(dp4340
g61
(dp4341
g69
I1
ssg70
g4335
sg63
(lp4342
g3646
(S's\r\x00\x00\x00Documentation'
tRp4343
asbasbasbag56
(g72
g58
NtRp4344
(dp4345
g61
(dp4346
sg70
g4327
sg63
(lp4347
g56
(g77
g58
NtRp4348
(dp4349
g61
(dp4350
sg70
g4344
sg63
(lp4351
g56
(g57
g58
NtRp4352
(dp4353
g61
(dp4354
g69
I1
ssg70
g4348
sg63
(lp4355
I00
asbasbasbag56
(g72
g58
NtRp4356
(dp4357
g61
(dp4358
sg70
g4327
sg63
(lp4359
g56
(g77
g58
NtRp4360
(dp4361
g61
(dp4362
sg70
g4356
sg63
(lp4363
g56
(g57
g58
NtRp4364
(dp4365
g61
(dp4366
g69
I1
ssg70
g4360
sg63
(lp4367
S'http://www.web2py.com/book'
p4368
asbasbasbag56
(g72
g58
NtRp4369
(dp4370
g61
(dp4371
sg70
g4327
sg63
(lp4372
g56
(g77
g58
NtRp4373
(dp4374
g61
(dp4375
sg70
g4369
sg63
(lp4376
g56
(g57
g58
NtRp4377
(dp4378
g61
(dp4379
g69
I1
ssg70
g4373
sg63
(lp4380
(lp4381
(g3646
(S's\x07\x00\x00\x00Preface'
tRp4382
I00
S'http://www.web2py.com/book/default/chapter/00'
tp4383
a(g3646
(S's\x0c\x00\x00\x00Introduction'
tRp4384
I00
S'http://www.web2py.com/book/default/chapter/01'
tp4385
a(g3646
(S's\x06\x00\x00\x00Python'
tRp4386
I00
S'http://www.web2py.com/book/default/chapter/02'
tp4387
a(g3646
(S's\x08\x00\x00\x00Overview'
tRp4388
I00
S'http://www.web2py.com/book/default/chapter/03'
tp4389
a(g3646
(S's\x08\x00\x00\x00The Core'
tRp4390
I00
S'http://www.web2py.com/book/default/chapter/04'
tp4391
a(g3646
(S's\t\x00\x00\x00The Views'
tRp4392
I00
S'http://www.web2py.com/book/default/chapter/05'
tp4393
a(g3646
(S's\x08\x00\x00\x00Database'
tRp4394
I00
S'http://www.web2py.com/book/default/chapter/06'
tp4395
a(g3646
(S's\x14\x00\x00\x00Forms and Validators'
tRp4396
I00
S'http://www.web2py.com/book/default/chapter/07'
tp4397
a(g3646
(S's\x0e\x00\x00\x00Access Control'
tRp4398
I00
S'http://www.web2py.com/book/default/chapter/08'
tp4399
a(g3646
(S's\x08\x00\x00\x00Services'
tRp4400
I00
S'http://www.web2py.com/book/default/chapter/09'
tp4401
a(g3646
(S's\x0c\x00\x00\x00Ajax Recipes'
tRp4402
I00
S'http://www.web2py.com/book/default/chapter/10'
tp4403
a(g3646
(S's\x12\x00\x00\x00Deployment Recipes'
tRp4404
I00
S'http://www.web2py.com/book/default/chapter/11'
tp4405
a(g3646
(S's\r\x00\x00\x00Other Recipes'
tRp4406
I00
S'http://www.web2py.com/book/default/chapter/12'
tp4407
a(g3646
(S's\r\x00\x00\x00Buy this book'
tRp4408
I00
S'http://stores.lulu.com/web2py'
tp4409
aasbasbasbasbasbasbasbag56
(g72
g58
NtRp4410
(dp4411
g61
(dp4412
sg70
g4311
sg63
(lp4413
g56
(g77
g58
NtRp4414
(dp4415
g61
(dp4416
sg70
g4410
sg63
(lp4417
g56
(g57
g58
NtRp4418
(dp4419
g61
(dp4420
g69
I2
ssg70
g4414
sg63
(lp4421
g56
(g65
g58
NtRp4422
(dp4423
g61
(dp4424
g69
I1
ssg70
Nsg63
(lp4425
g56
(g72
g58
NtRp4426
(dp4427
g61
(dp4428
sg70
g4422
sg63
(lp4429
g56
(g77
g58
NtRp4430
(dp4431
g61
(dp4432
sg70
g4426
sg63
(lp4433
g56
(g57
g58
NtRp4434
(dp4435
g61
(dp4436
g69
I1
ssg70
g4430
sg63
(lp4437
g3646
(S's\t\x00\x00\x00Community'
tRp4438
asbasbasbag56
(g72
g58
NtRp4439
(dp4440
g61
(dp4441
sg70
g4422
sg63
(lp4442
g56
(g77
g58
NtRp4443
(dp4444
g61
(dp4445
sg70
g4439
sg63
(lp4446
g56
(g57
g58
NtRp4447
(dp4448
g61
(dp4449
g69
I1
ssg70
g4443
sg63
(lp4450
I00
asbasbasbag56
(g72
g58
NtRp4451
(dp4452
g61
(dp4453
sg70
g4422
sg63
(lp4454
g56
(g77
g58
NtRp4455
(dp4456
g61
(dp4457
sg70
g4451
sg63
(lp4458
g56
(g57
g58
NtRp4459
(dp4460
g61
(dp4461
g69
I1
ssg70
g4455
sg63
(lp4462
Nasbasbasbag56
(g72
g58
NtRp4463
(dp4464
g61
(dp4465
sg70
g4422
sg63
(lp4466
g56
(g77
g58
NtRp4467
(dp4468
g61
(dp4469
sg70
g4463
sg63
(lp4470
g56
(g57
g58
NtRp4471
(dp4472
g61
(dp4473
g69
I1
ssg70
g4467
sg63
(lp4474
(lp4475
(g3646
(S's\x06\x00\x00\x00Groups'
tRp4476
I00
S'http://www.web2py.com/examples/default/usergroups'
tp4477
a(g3646
(S's\x07\x00\x00\x00Twitter'
tRp4478
I00
S'http://twitter.com/web2py'
tp4479
a(g3646
(S's\t\x00\x00\x00Live chat'
tRp4480
I00
S'http://mibbit.com/?channel=%23web2py&server=irc.mibbit.net'
tp4481
a(g3646
(S's\n\x00\x00\x00User Voice'
tRp4482
I00
S'http://web2py.uservoice.com/'
tp4483
aasbasbasbasbasbasbasbag56
(g72
g58
NtRp4484
(dp4485
g61
(dp4486
sg70
g4311
sg63
(lp4487
g56
(g77
g58
NtRp4488
(dp4489
g61
(dp4490
sg70
g4484
sg63
(lp4491
g56
(g57
g58
NtRp4492
(dp4493
g61
(dp4494
g69
I2
ssg70
g4488
sg63
(lp4495
g56
(g65
g58
NtRp4496
(dp4497
g61
(dp4498
g69
I1
ssg70
Nsg63
(lp4499
g56
(g72
g58
NtRp4500
(dp4501
g61
(dp4502
sg70
g4496
sg63
(lp4503
g56
(g77
g58
NtRp4504
(dp4505
g61
(dp4506
sg70
g4500
sg63
(lp4507
g56
(g57
g58
NtRp4508
(dp4509
g61
(dp4510
g69
I1
ssg70
g4504
sg63
(lp4511
g3646
(S's\x06\x00\x00\x00Web2py'
tRp4512
asbasbasbag56
(g72
g58
NtRp4513
(dp4514
g61
(dp4515
sg70
g4496
sg63
(lp4516
g56
(g77
g58
NtRp4517
(dp4518
g61
(dp4519
sg70
g4513
sg63
(lp4520
g56
(g57
g58
NtRp4521
(dp4522
g61
(dp4523
g69
I1
ssg70
g4517
sg63
(lp4524
I00
asbasbasbag56
(g72
g58
NtRp4525
(dp4526
g61
(dp4527
sg70
g4496
sg63
(lp4528
g56
(g77
g58
NtRp4529
(dp4530
g61
(dp4531
sg70
g4525
sg63
(lp4532
g56
(g57
g58
NtRp4533
(dp4534
g61
(dp4535
g69
I1
ssg70
g4529
sg63
(lp4536
S'http://www.web2py.com'
p4537
asbasbasbag56
(g72
g58
NtRp4538
(dp4539
g61
(dp4540
sg70
g4496
sg63
(lp4541
g56
(g77
g58
NtRp4542
(dp4543
g61
(dp4544
sg70
g4538
sg63
(lp4545
g56
(g57
g58
NtRp4546
(dp4547
g61
(dp4548
g69
I1
ssg70
g4542
sg63
(lp4549
(lp4550
(g3646
(S's\x08\x00\x00\x00Download'
tRp4551
I00
S'http://www.web2py.com/examples/default/download'
tp4552
a(g3646
(S's\x07\x00\x00\x00Support'
tRp4553
I00
S'http://www.web2py.com/examples/default/support'
tp4554
a(g3646
(S's\x0e\x00\x00\x00Quick Examples'
tRp4555
I00
S'http://web2py.com/examples/default/examples'
tp4556
a(g3646
(S's\x03\x00\x00\x00FAQ'
tRp4557
I00
S'http://web2py.com/AlterEgo'
tp4558
a(g3646
(S's\x11\x00\x00\x00Free Applications'
tRp4559
I00
S'http://web2py.com/appliances'
tp4560
a(g3646
(S's\x07\x00\x00\x00Plugins'
tRp4561
I00
S'http://web2py.com/plugins'
tp4562
a(g3646
(S's\x07\x00\x00\x00Recipes'
tRp4563
I00
S'http://web2pyslices.com/'
tp4564
a(g3646
(S's\x04\x00\x00\x00Demo'
tRp4565
I00
S'http://web2py.com/demo_admin'
tp4566
a(g3646
(S's\x08\x00\x00\x00Semantic'
tRp4567
I00
S'http://web2py.com/semantic'
tp4568
a(g3646
(S's\x07\x00\x00\x00Layouts'
tRp4569
I00
S'http://web2py.com/layouts'
tp4570
a(g3646
(S's\x06\x00\x00\x00Videos'
tRp4571
I00
S'http://www.web2py.com/examples/default/videos/'
tp4572
aasbasbasbasbasbasbasbasbasbasbasbasbasbasbasbasbasbasbasbag56
(g72
g58
NtRp4573
(dp4574
g61
(dp4575
sg70
g3075
sg63
(lp4576
g56
(g77
g58
NtRp4577
(dp4578
g61
(dp4579
g81
g82
ssg70
g4573
sg63
(lp4580
S'meta'
p4581
asbag56
(g77
g58
NtRp4582
(dp4583
g61
(dp4584
g88
g89
ssg70
g4573
sg63
(lp4585
S':'
asbag56
(g77
g58
NtRp4586
(dp4587
g61
(dp4588
sg70
g4573
sg63
(lp4589
g56
(g57
g58
NtRp4590
(dp4591
g61
(dp4592
g69
I5
ssg70
g4586
sg63
(lp4593
g56
(g65
g58
NtRp4594
(dp4595
g61
(dp4596
g69
I4
ssg70
Nsg63
(lp4597
g56
(g72
g58
NtRp4598
(dp4599
g61
(dp4600
sg70
g4594
sg63
(lp4601
g56
(g77
g58
NtRp4602
(dp4603
g61
(dp4604
g81
g82
ssg70
g4598
sg63
(lp4605
S'author'
p4606
asbag56
(g77
g58
NtRp4607
(dp4608
g61
(dp4609
g88
g89
ssg70
g4598
sg63
(lp4610
S':'
asbag56
(g77
g58
NtRp4611
(dp4612
g61
(dp4613
sg70
g4598
sg63
(lp4614
g56
(g57
g58
NtRp4615
(dp4616
g61
(dp4617
g69
I4
ssg70
g4611
sg63
(lp4618
S'you'
p4619
asbasbasbag56
(g72
g58
NtRp4620
(dp4621
g61
(dp4622
sg70
g4594
sg63
(lp4623
g56
(g77
g58
NtRp4624
(dp4625
g61
(dp4626
g81
g82
ssg70
g4620
sg63
(lp4627
S'copyright'
p4628
asbag56
(g77
g58
NtRp4629
(dp4630
g61
(dp4631
g88
g89
ssg70
g4620
sg63
(lp4632
S':'
asbag56
(g77
g58
NtRp4633
(dp4634
g61
(dp4635
sg70
g4620
sg63
(lp4636
g56
(g57
g58
NtRp4637
(dp4638
g61
(dp4639
g69
I4
ssg70
g4633
sg63
(lp4640
S'Copyright 2007-2010'
p4641
asbasbasbag56
(g72
g58
NtRp4642
(dp4643
g61
(dp4644
sg70
g4594
sg63
(lp4645
g56
(g77
g58
NtRp4646
(dp4647
g61
(dp4648
g81
g82
ssg70
g4642
sg63
(lp4649
S'description'
p4650
asbag56
(g77
g58
NtRp4651
(dp4652
g61
(dp4653
g88
g89
ssg70
g4642
sg63
(lp4654
S':'
asbag56
(g77
g58
NtRp4655
(dp4656
g61
(dp4657
sg70
g4642
sg63
(lp4658
g56
(g57
g58
NtRp4659
(dp4660
g61
(dp4661
g69
I4
ssg70
g4655
sg63
(lp4662
S'Free and open source full-stack enterprise framework for agile development of fast, scalable, secure and portable database-driven web-based applications. Written and programmable in Python'
p4663
asbasbasbag56
(g72
g58
NtRp4664
(dp4665
g61
(dp4666
sg70
g4594
sg63
(lp4667
g56
(g77
g58
NtRp4668
(dp4669
g61
(dp4670
g81
g82
ssg70
g4664
sg63
(lp4671
S'generator'
p4672
asbag56
(g77
g58
NtRp4673
(dp4674
g61
(dp4675
g88
g89
ssg70
g4664
sg63
(lp4676
S':'
asbag56
(g77
g58
NtRp4677
(dp4678
g61
(dp4679
sg70
g4664
sg63
(lp4680
g56
(g57
g58
NtRp4681
(dp4682
g61
(dp4683
g69
I4
ssg70
g4677
sg63
(lp4684
S'Web2py Enterprise Framework'
p4685
asbasbasbag56
(g72
g58
NtRp4686
(dp4687
g61
(dp4688
sg70
g4594
sg63
(lp4689
g56
(g77
g58
NtRp4690
(dp4691
g61
(dp4692
g81
g82
ssg70
g4686
sg63
(lp4693
S'keywords'
p4694
asbag56
(g77
g58
NtRp4695
(dp4696
g61
(dp4697
g88
g89
ssg70
g4686
sg63
(lp4698
S':'
asbag56
(g77
g58
NtRp4699
(dp4700
g61
(dp4701
sg70
g4686
sg63
(lp4702
g56
(g57
g58
NtRp4703
(dp4704
g61
(dp4705
g69
I4
ssg70
g4699
sg63
(lp4706
S'web2py, python, framework'
p4707
asbasbasbasbasbasbasbag56
(g72
g58
NtRp4708
(dp4709
g61
(dp4710
sg70
g3075
sg63
(lp4711
g56
(g77
g58
NtRp4712
(dp4713
g61
(dp4714
g81
g82
ssg70
g4708
sg63
(lp4715
S'postprocessing'
p4716
asbag56
(g77
g58
NtRp4717
(dp4718
g61
(dp4719
g88
g89
ssg70
g4708
sg63
(lp4720
S':'
asbag56
(g77
g58
NtRp4721
(dp4722
g61
(dp4723
sg70
g4708
sg63
(lp4724
g56
(g57
g58
NtRp4725
(dp4726
g61
(dp4727
g69
I5
ssg70
g4721
sg63
(lp4728
g56
(g65
g58
NtRp4729
(dp4730
g61
(dp4731
g69
I4
ssg70
Nsg63
(lp4732
sbasbasbasbag56
(g72
g58
NtRp4733
(dp4734
g61
(dp4735
sg70
g3075
sg63
(lp4736
g56
(g77
g58
NtRp4737
(dp4738
g61
(dp4739
g81
g82
ssg70
g4733
sg63
(lp4740
S'session_file'
p4741
asbag56
(g77
g58
NtRp4742
(dp4743
g61
(dp4744
g88
g89
ssg70
g4733
sg63
(lp4745
S':'
asbag56
(g77
g58
NtRp4746
(dp4747
g61
(dp4748
sg70
g4733
sg63
(lp4749
g56
(g57
g58
NtRp4750
(dp4751
g61
(dp4752
g69
I5
ssg70
g4746
sg63
(lp4753
S"<open file '/home/alumno/web2py/applications/datos/sessions/127.0.0.1-db62c583-5264-4eba-ba24-7cb87b43795a', mode 'rb+' at 0xa072a18>"
p4754
asbasbasbag56
(g72
g58
NtRp4755
(dp4756
g61
(dp4757
sg70
g3075
sg63
(lp4758
g56
(g77
g58
NtRp4759
(dp4760
g61
(dp4761
g81
g82
ssg70
g4755
sg63
(lp4762
S'session_filename'
p4763
asbag56
(g77
g58
NtRp4764
(dp4765
g61
(dp4766
g88
g89
ssg70
g4755
sg63
(lp4767
S':'
asbag56
(g77
g58
NtRp4768
(dp4769
g61
(dp4770
sg70
g4755
sg63
(lp4771
g56
(g57
g58
NtRp4772
(dp4773
g61
(dp4774
g69
I5
ssg70
g4768
sg63
(lp4775
S'/home/alumno/web2py/applications/datos/sessions/127.0.0.1-db62c583-5264-4eba-ba24-7cb87b43795a'
p4776
asbasbasbag56
(g72
g58
NtRp4777
(dp4778
g61
(dp4779
sg70
g3075
sg63
(lp4780
g56
(g77
g58
NtRp4781
(dp4782
g61
(dp4783
g81
g82
ssg70
g4777
sg63
(lp4784
S'session_id'
p4785
asbag56
(g77
g58
NtRp4786
(dp4787
g61
(dp4788
g88
g89
ssg70
g4777
sg63
(lp4789
S':'
asbag56
(g77
g58
NtRp4790
(dp4791
g61
(dp4792
sg70
g4777
sg63
(lp4793
g56
(g57
g58
NtRp4794
(dp4795
g61
(dp4796
g69
I5
ssg70
g4790
sg63
(lp4797
S'127.0.0.1-db62c583-5264-4eba-ba24-7cb87b43795a'
p4798
asbasbasbag56
(g72
g58
NtRp4799
(dp4800
g61
(dp4801
sg70
g3075
sg63
(lp4802
g56
(g77
g58
NtRp4803
(dp4804
g61
(dp4805
g81
g82
ssg70
g4799
sg63
(lp4806
S'session_id_name'
p4807
asbag56
(g77
g58
NtRp4808
(dp4809
g61
(dp4810
g88
g89
ssg70
g4799
sg63
(lp4811
S':'
asbag56
(g77
g58
NtRp4812
(dp4813
g61
(dp4814
sg70
g4799
sg63
(lp4815
g56
(g57
g58
NtRp4816
(dp4817
g61
(dp4818
g69
I5
ssg70
g4812
sg63
(lp4819
g3132
asbasbasbag56
(g72
g58
NtRp4820
(dp4821
g61
(dp4822
sg70
g3075
sg63
(lp4823
g56
(g77
g58
NtRp4824
(dp4825
g61
(dp4826
g81
g82
ssg70
g4820
sg63
(lp4827
S'session_locked'
p4828
asbag56
(g77
g58
NtRp4829
(dp4830
g61
(dp4831
g88
g89
ssg70
g4820
sg63
(lp4832
S':'
asbag56
(g77
g58
NtRp4833
(dp4834
g61
(dp4835
sg70
g4820
sg63
(lp4836
g56
(g57
g58
NtRp4837
(dp4838
g61
(dp4839
g69
I5
ssg70
g4833
sg63
(lp4840
g1960
asbasbasbag56
(g72
g58
NtRp4841
(dp4842
g61
(dp4843
sg70
g3075
sg63
(lp4844
g56
(g77
g58
NtRp4845
(dp4846
g61
(dp4847
g81
g82
ssg70
g4841
sg63
(lp4848
S'session_new'
p4849
asbag56
(g77
g58
NtRp4850
(dp4851
g61
(dp4852
g88
g89
ssg70
g4841
sg63
(lp4853
S':'
asbag56
(g77
g58
NtRp4854
(dp4855
g61
(dp4856
sg70
g4841
sg63
(lp4857
g56
(g57
g58
NtRp4858
(dp4859
g61
(dp4860
g69
I5
ssg70
g4854
sg63
(lp4861
g99
asbasbasbag56
(g72
g58
NtRp4862
(dp4863
g61
(dp4864
sg70
g3075
sg63
(lp4865
g56
(g77
g58
NtRp4866
(dp4867
g61
(dp4868
g81
g82
ssg70
g4862
sg63
(lp4869
S'status'
p4870
asbag56
(g77
g58
NtRp4871
(dp4872
g61
(dp4873
g88
g89
ssg70
g4862
sg63
(lp4874
S':'
asbag56
(g77
g58
NtRp4875
(dp4876
g61
(dp4877
sg70
g4862
sg63
(lp4878
g56
(g57
g58
NtRp4879
(dp4880
g61
(dp4881
g69
I5
ssg70
g4875
sg63
(lp4882
S'200'
p4883
asbasbasbag56
(g72
g58
NtRp4884
(dp4885
g61
(dp4886
sg70
g3075
sg63
(lp4887
g56
(g77
g58
NtRp4888
(dp4889
g61
(dp4890
g81
g82
ssg70
g4884
sg63
(lp4891
S'subtitle'
p4892
asbag56
(g77
g58
NtRp4893
(dp4894
g61
(dp4895
g88
g89
ssg70
g4884
sg63
(lp4896
S':'
asbag56
(g77
g58
NtRp4897
(dp4898
g61
(dp4899
sg70
g4884
sg63
(lp4900
g56
(g57
g58
NtRp4901
(dp4902
g61
(dp4903
g69
I5
ssg70
g4897
sg63
(lp4904
g3646
(S's\r\x00\x00\x00customize me!'
tRp4905
asbasbasbag56
(g72
g58
NtRp4906
(dp4907
g61
(dp4908
sg70
g3075
sg63
(lp4909
g56
(g77
g58
NtRp4910
(dp4911
g61
(dp4912
g81
g82
ssg70
g4906
sg63
(lp4913
S'title'
p4914
asbag56
(g77
g58
NtRp4915
(dp4916
g61
(dp4917
g88
g89
ssg70
g4906
sg63
(lp4918
S':'
asbag56
(g77
g58
NtRp4919
(dp4920
g61
(dp4921
sg70
g4906
sg63
(lp4922
g56
(g57
g58
NtRp4923
(dp4924
g61
(dp4925
g69
I5
ssg70
g4919
sg63
(lp4926
g121
asbasbasbag56
(g72
g58
NtRp4927
(dp4928
g61
(dp4929
sg70
g3075
sg63
(lp4930
g56
(g77
g58
NtRp4931
(dp4932
g61
(dp4933
g81
g82
ssg70
g4927
sg63
(lp4934
g2284
asbag56
(g77
g58
NtRp4935
(dp4936
g61
(dp4937
g88
g89
ssg70
g4927
sg63
(lp4938
S':'
asbag56
(g77
g58
NtRp4939
(dp4940
g61
(dp4941
sg70
g4927
sg63
(lp4942
g56
(g57
g58
NtRp4943
(dp4944
g61
(dp4945
g69
I5
ssg70
g4939
sg63
(lp4946
g2297
asbasbasbag56
(g72
g58
NtRp4947
(dp4948
g61
(dp4949
sg70
g3075
sg63
(lp4950
g56
(g77
g58
NtRp4951
(dp4952
g61
(dp4953
g81
g82
ssg70
g4947
sg63
(lp4954
S'view'
p4955
asbag56
(g77
g58
NtRp4956
(dp4957
g61
(dp4958
g88
g89
ssg70
g4947
sg63
(lp4959
S':'
asbag56
(g77
g58
NtRp4960
(dp4961
g61
(dp4962
sg70
g4947
sg63
(lp4963
g56
(g57
g58
NtRp4964
(dp4965
g61
(dp4966
g69
I5
ssg70
g4960
sg63
(lp4967
S'default/index.html'
p4968
asbasbasbasbasbsS'locals'
p4969
(dp4970
S'self'
p4971
S"<Row {'update_record': <function <lambda> at 0xa...elete_record': <function <lambda> at 0xa07e79c>}>"
p4972
sS'key'
p4973
S"'nombre'"
p4974
sssS'traceback'
p4975
S'Traceback (most recent call last):\n  File "/home/alumno/web2py/gluon/restricted.py", line 192, in restricted\n    exec ccode in environment\n  File "/home/alumno/web2py/applications/datos/views/default/index.html", line 103, in <module>\n  File "/home/alumno/web2py/gluon/dal.py", line 3786, in __getattr__\n    return self[key]\n  File "/home/alumno/web2py/gluon/dal.py", line 3777, in __getitem__\n    return dict.__getitem__(self, key)\nKeyError: \'nombre\'\n'
p4976
s.