(dp1
S'output'
p2
S''
sS'layer'
p3
S'/home/alumno/web2py/applications/proyecto/controllers/default.py'
p4
sS'code'
p5
S'# -*- coding: utf-8 -*-\n# this file is released under public domain and you can use without limitations\n\n#########################################################################\n## This is a samples controller\n## - index is the default action of any application\n## - user is required for authentication and authorization\n## - download is for downloading files uploaded in the db (does streaming)\n## - call exposes all registered services (none by default)\n#########################################################################\n\ndef index():\n    return dict(databases=databases)\n\tproductos = db().select(db.producto.ALL)\n\treturn dict(productos=productos)\n\ndef detalle():\n\tproducto =db(db.producto.idproducto==request.args(0)).select() #request.args()toma en cuenta los datos que se va enviar en get o post\n\treturn dict(producto=producto)\n\nresponse._vars=response._caller(index)\n'
p6
sS'snapshot'
p7
(dp8
S'exception'
p9
(dp10
S'__getslice__'
p11
S"<method-wrapper '__getslice__' of exceptions.IndentationError object>"
p12
sS'text'
p13
S"'\\tproductos = db().select(db.producto.ALL)\\n'"
p14
sS'__str__'
p15
S"<method-wrapper '__str__' of exceptions.IndentationError object>"
p16
sS'__reduce__'
p17
S'<built-in method __reduce__ of exceptions.IndentationError object>'
p18
sS'__dict__'
p19
S'{}'
p20
sS'__sizeof__'
p21
S'<built-in method __sizeof__ of exceptions.IndentationError object>'
p22
sS'__init__'
p23
S"<method-wrapper '__init__' of exceptions.IndentationError object>"
p24
sS'__setattr__'
p25
S"<method-wrapper '__setattr__' of exceptions.IndentationError object>"
p26
sS'__reduce_ex__'
p27
S'<built-in method __reduce_ex__ of exceptions.IndentationError object>'
p28
sS'__new__'
p29
S'<built-in method __new__ of type object>'
p30
sS'__format__'
p31
S'<built-in method __format__ of exceptions.IndentationError object>'
p32
sS'__class__'
p33
S"<type 'exceptions.IndentationError'>"
p34
sS'filename'
p35
S"'/home/alumno/web2py/applications/proyecto/controllers/default.py'"
p36
sS'lineno'
p37
S'14'
p38
sS'msg'
p39
S"'unexpected indent'"
p40
sS'__doc__'
p41
S"'Improper indentation.'"
p42
sS'__getitem__'
p43
S"<method-wrapper '__getitem__' of exceptions.IndentationError object>"
p44
sS'__setstate__'
p45
S'<built-in method __setstate__ of exceptions.IndentationError object>'
p46
sS'__getattribute__'
p47
S"<method-wrapper '__getattribute__' of exceptions.IndentationError object>"
p48
sS'print_file_and_line'
p49
S'None'
p50
sS'args'
p51
S"('unexpected indent', ('/home/alumno/web2py/applications/proyecto/controllers/default.py', 14, 1, '\\tproductos = db().select(db.producto.ALL)\\n'))"
p52
sS'__subclasshook__'
p53
S'<built-in method __subclasshook__ of type object>'
p54
sS'offset'
p55
S'1'
sS'__unicode__'
p56
S'<built-in method __unicode__ of exceptions.IndentationError object>'
p57
sS'__delattr__'
p58
S"<method-wrapper '__delattr__' of exceptions.IndentationError object>"
p59
sS'__repr__'
p60
S"<method-wrapper '__repr__' of exceptions.IndentationError object>"
p61
sS'__hash__'
p62
S"<method-wrapper '__hash__' of exceptions.IndentationError object>"
p63
ssS'evalue'
p64
S'unexpected indent (default.py, line 14)'
p65
sS'request'
p66
ccopy_reg
_reconstructor
p67
(cgluon.html
BEAUTIFY
p68
c__builtin__
object
p69
NtRp70
(dp71
S'attributes'
p72
(dp73
sS'components'
p74
(lp75
g67
(cgluon.html
TABLE
p76
g69
NtRp77
(dp78
g72
(dp79
S'level'
p80
I5
ssS'parent'
p81
Nsg74
(lp82
g67
(cgluon.html
TR
p83
g69
NtRp84
(dp85
g72
(dp86
sg81
g77
sg74
(lp87
g67
(cgluon.html
TD
p88
g69
NtRp89
(dp90
g72
(dp91
S'_style'
p92
S'font-weight:bold;'
p93
ssg81
g84
sg74
(lp94
S'ajax'
p95
asbag67
(g88
g69
NtRp96
(dp97
g72
(dp98
S'_valign'
p99
S'top'
p100
ssg81
g84
sg74
(lp101
S':'
asbag67
(g88
g69
NtRp102
(dp103
g72
(dp104
sg81
g84
sg74
(lp105
g67
(g68
g69
NtRp106
(dp107
g72
(dp108
g80
I5
ssg81
g102
sg74
(lp109
S'False'
p110
asbasbasbag67
(g83
g69
NtRp111
(dp112
g72
(dp113
sg81
g77
sg74
(lp114
g67
(g88
g69
NtRp115
(dp116
g72
(dp117
g92
g93
ssg81
g111
sg74
(lp118
S'application'
p119
asbag67
(g88
g69
NtRp120
(dp121
g72
(dp122
g99
g100
ssg81
g111
sg74
(lp123
S':'
asbag67
(g88
g69
NtRp124
(dp125
g72
(dp126
sg81
g111
sg74
(lp127
g67
(g68
g69
NtRp128
(dp129
g72
(dp130
g80
I5
ssg81
g124
sg74
(lp131
S'proyecto'
p132
asbasbasbag67
(g83
g69
NtRp133
(dp134
g72
(dp135
sg81
g77
sg74
(lp136
g67
(g88
g69
NtRp137
(dp138
g72
(dp139
g92
g93
ssg81
g133
sg74
(lp140
g51
asbag67
(g88
g69
NtRp141
(dp142
g72
(dp143
g99
g100
ssg81
g133
sg74
(lp144
S':'
asbag67
(g88
g69
NtRp145
(dp146
g72
(dp147
sg81
g133
sg74
(lp148
g67
(g68
g69
NtRp149
(dp150
g72
(dp151
g80
I5
ssg81
g145
sg74
(lp152
g67
(g76
g69
NtRp153
(dp154
g72
(dp155
g80
I4
ssg81
Nsg74
(lp156
sbasbasbasbag67
(g83
g69
NtRp157
(dp158
g72
(dp159
sg81
g77
sg74
(lp160
g67
(g88
g69
NtRp161
(dp162
g72
(dp163
g92
g93
ssg81
g157
sg74
(lp164
S'body'
p165
asbag67
(g88
g69
NtRp166
(dp167
g72
(dp168
g99
g100
ssg81
g157
sg74
(lp169
S':'
asbag67
(g88
g69
NtRp170
(dp171
g72
(dp172
sg81
g157
sg74
(lp173
g67
(g68
g69
NtRp174
(dp175
g72
(dp176
g80
I5
ssg81
g170
sg74
(lp177
S'<cStringIO.StringO object at 0xabe3600>'
p178
asbasbasbag67
(g83
g69
NtRp179
(dp180
g72
(dp181
sg81
g77
sg74
(lp182
g67
(g88
g69
NtRp183
(dp184
g72
(dp185
g92
g93
ssg81
g179
sg74
(lp186
S'client'
p187
asbag67
(g88
g69
NtRp188
(dp189
g72
(dp190
g99
g100
ssg81
g179
sg74
(lp191
S':'
asbag67
(g88
g69
NtRp192
(dp193
g72
(dp194
sg81
g179
sg74
(lp195
g67
(g68
g69
NtRp196
(dp197
g72
(dp198
g80
I5
ssg81
g192
sg74
(lp199
S'127.0.0.1'
p200
asbasbasbag67
(g83
g69
NtRp201
(dp202
g72
(dp203
sg81
g77
sg74
(lp204
g67
(g88
g69
NtRp205
(dp206
g72
(dp207
g92
g93
ssg81
g201
sg74
(lp208
S'controller'
p209
asbag67
(g88
g69
NtRp210
(dp211
g72
(dp212
g99
g100
ssg81
g201
sg74
(lp213
S':'
asbag67
(g88
g69
NtRp214
(dp215
g72
(dp216
sg81
g201
sg74
(lp217
g67
(g68
g69
NtRp218
(dp219
g72
(dp220
g80
I5
ssg81
g214
sg74
(lp221
S'default'
p222
asbasbasbag67
(g83
g69
NtRp223
(dp224
g72
(dp225
sg81
g77
sg74
(lp226
g67
(g88
g69
NtRp227
(dp228
g72
(dp229
g92
g93
ssg81
g223
sg74
(lp230
S'cookies'
p231
asbag67
(g88
g69
NtRp232
(dp233
g72
(dp234
g99
g100
ssg81
g223
sg74
(lp235
S':'
asbag67
(g88
g69
NtRp236
(dp237
g72
(dp238
sg81
g223
sg74
(lp239
g67
(g68
g69
NtRp240
(dp241
g72
(dp242
g80
I5
ssg81
g236
sg74
(lp243
g67
(g76
g69
NtRp244
(dp245
g72
(dp246
g80
I4
ssg81
Nsg74
(lp247
g67
(g83
g69
NtRp248
(dp249
g72
(dp250
sg81
g244
sg74
(lp251
g67
(g88
g69
NtRp252
(dp253
g72
(dp254
g92
g93
ssg81
g248
sg74
(lp255
S'adminLanguage'
p256
asbag67
(g88
g69
NtRp257
(dp258
g72
(dp259
g99
g100
ssg81
g248
sg74
(lp260
S':'
asbag67
(g88
g69
NtRp261
(dp262
g72
(dp263
sg81
g248
sg74
(lp264
g67
(g68
g69
NtRp265
(dp266
g72
(dp267
g80
I4
ssg81
g261
sg74
(lp268
g67
(g76
g69
NtRp269
(dp270
g72
(dp271
g80
I3
ssg81
Nsg74
(lp272
g67
(g83
g69
NtRp273
(dp274
g72
(dp275
sg81
g269
sg74
(lp276
g67
(g88
g69
NtRp277
(dp278
g72
(dp279
g92
g93
ssg81
g273
sg74
(lp280
S'comment'
p281
asbag67
(g88
g69
NtRp282
(dp283
g72
(dp284
g99
g100
ssg81
g273
sg74
(lp285
S':'
asbag67
(g88
g69
NtRp286
(dp287
g72
(dp288
sg81
g273
sg74
(lp289
g67
(g68
g69
NtRp290
(dp291
g72
(dp292
g80
I3
ssg81
g286
sg74
(lp293
S''
asbasbasbag67
(g83
g69
NtRp294
(dp295
g72
(dp296
sg81
g269
sg74
(lp297
g67
(g88
g69
NtRp298
(dp299
g72
(dp300
g92
g93
ssg81
g294
sg74
(lp301
S'domain'
p302
asbag67
(g88
g69
NtRp303
(dp304
g72
(dp305
g99
g100
ssg81
g294
sg74
(lp306
S':'
asbag67
(g88
g69
NtRp307
(dp308
g72
(dp309
sg81
g294
sg74
(lp310
g67
(g68
g69
NtRp311
(dp312
g72
(dp313
g80
I3
ssg81
g307
sg74
(lp314
S''
asbasbasbag67
(g83
g69
NtRp315
(dp316
g72
(dp317
sg81
g269
sg74
(lp318
g67
(g88
g69
NtRp319
(dp320
g72
(dp321
g92
g93
ssg81
g315
sg74
(lp322
S'expires'
p323
asbag67
(g88
g69
NtRp324
(dp325
g72
(dp326
g99
g100
ssg81
g315
sg74
(lp327
S':'
asbag67
(g88
g69
NtRp328
(dp329
g72
(dp330
sg81
g315
sg74
(lp331
g67
(g68
g69
NtRp332
(dp333
g72
(dp334
g80
I3
ssg81
g328
sg74
(lp335
S''
asbasbasbag67
(g83
g69
NtRp336
(dp337
g72
(dp338
sg81
g269
sg74
(lp339
g67
(g88
g69
NtRp340
(dp341
g72
(dp342
g92
g93
ssg81
g336
sg74
(lp343
S'httponly'
p344
asbag67
(g88
g69
NtRp345
(dp346
g72
(dp347
g99
g100
ssg81
g336
sg74
(lp348
S':'
asbag67
(g88
g69
NtRp349
(dp350
g72
(dp351
sg81
g336
sg74
(lp352
g67
(g68
g69
NtRp353
(dp354
g72
(dp355
g80
I3
ssg81
g349
sg74
(lp356
S''
asbasbasbag67
(g83
g69
NtRp357
(dp358
g72
(dp359
sg81
g269
sg74
(lp360
g67
(g88
g69
NtRp361
(dp362
g72
(dp363
g92
g93
ssg81
g357
sg74
(lp364
S'max-age'
p365
asbag67
(g88
g69
NtRp366
(dp367
g72
(dp368
g99
g100
ssg81
g357
sg74
(lp369
S':'
asbag67
(g88
g69
NtRp370
(dp371
g72
(dp372
sg81
g357
sg74
(lp373
g67
(g68
g69
NtRp374
(dp375
g72
(dp376
g80
I3
ssg81
g370
sg74
(lp377
S''
asbasbasbag67
(g83
g69
NtRp378
(dp379
g72
(dp380
sg81
g269
sg74
(lp381
g67
(g88
g69
NtRp382
(dp383
g72
(dp384
g92
g93
ssg81
g378
sg74
(lp385
S'path'
p386
asbag67
(g88
g69
NtRp387
(dp388
g72
(dp389
g99
g100
ssg81
g378
sg74
(lp390
S':'
asbag67
(g88
g69
NtRp391
(dp392
g72
(dp393
sg81
g378
sg74
(lp394
g67
(g68
g69
NtRp395
(dp396
g72
(dp397
g80
I3
ssg81
g391
sg74
(lp398
S''
asbasbasbag67
(g83
g69
NtRp399
(dp400
g72
(dp401
sg81
g269
sg74
(lp402
g67
(g88
g69
NtRp403
(dp404
g72
(dp405
g92
g93
ssg81
g399
sg74
(lp406
S'secure'
p407
asbag67
(g88
g69
NtRp408
(dp409
g72
(dp410
g99
g100
ssg81
g399
sg74
(lp411
S':'
asbag67
(g88
g69
NtRp412
(dp413
g72
(dp414
sg81
g399
sg74
(lp415
g67
(g68
g69
NtRp416
(dp417
g72
(dp418
g80
I3
ssg81
g412
sg74
(lp419
S''
asbasbasbag67
(g83
g69
NtRp420
(dp421
g72
(dp422
sg81
g269
sg74
(lp423
g67
(g88
g69
NtRp424
(dp425
g72
(dp426
g92
g93
ssg81
g420
sg74
(lp427
S'version'
p428
asbag67
(g88
g69
NtRp429
(dp430
g72
(dp431
g99
g100
ssg81
g420
sg74
(lp432
S':'
asbag67
(g88
g69
NtRp433
(dp434
g72
(dp435
sg81
g420
sg74
(lp436
g67
(g68
g69
NtRp437
(dp438
g72
(dp439
g80
I3
ssg81
g433
sg74
(lp440
S''
asbasbasbasbasbasbasbag67
(g83
g69
NtRp441
(dp442
g72
(dp443
sg81
g244
sg74
(lp444
g67
(g88
g69
NtRp445
(dp446
g72
(dp447
g92
g93
ssg81
g441
sg74
(lp448
S'session_id_admin'
p449
asbag67
(g88
g69
NtRp450
(dp451
g72
(dp452
g99
g100
ssg81
g441
sg74
(lp453
S':'
asbag67
(g88
g69
NtRp454
(dp455
g72
(dp456
sg81
g441
sg74
(lp457
g67
(g68
g69
NtRp458
(dp459
g72
(dp460
g80
I4
ssg81
g454
sg74
(lp461
g67
(g76
g69
NtRp462
(dp463
g72
(dp464
g80
I3
ssg81
Nsg74
(lp465
g67
(g83
g69
NtRp466
(dp467
g72
(dp468
sg81
g462
sg74
(lp469
g67
(g88
g69
NtRp470
(dp471
g72
(dp472
g92
g93
ssg81
g466
sg74
(lp473
g281
asbag67
(g88
g69
NtRp474
(dp475
g72
(dp476
g99
g100
ssg81
g466
sg74
(lp477
S':'
asbag67
(g88
g69
NtRp478
(dp479
g72
(dp480
sg81
g466
sg74
(lp481
g67
(g68
g69
NtRp482
(dp483
g72
(dp484
g80
I3
ssg81
g478
sg74
(lp485
S''
asbasbasbag67
(g83
g69
NtRp486
(dp487
g72
(dp488
sg81
g462
sg74
(lp489
g67
(g88
g69
NtRp490
(dp491
g72
(dp492
g92
g93
ssg81
g486
sg74
(lp493
g302
asbag67
(g88
g69
NtRp494
(dp495
g72
(dp496
g99
g100
ssg81
g486
sg74
(lp497
S':'
asbag67
(g88
g69
NtRp498
(dp499
g72
(dp500
sg81
g486
sg74
(lp501
g67
(g68
g69
NtRp502
(dp503
g72
(dp504
g80
I3
ssg81
g498
sg74
(lp505
S''
asbasbasbag67
(g83
g69
NtRp506
(dp507
g72
(dp508
sg81
g462
sg74
(lp509
g67
(g88
g69
NtRp510
(dp511
g72
(dp512
g92
g93
ssg81
g506
sg74
(lp513
g323
asbag67
(g88
g69
NtRp514
(dp515
g72
(dp516
g99
g100
ssg81
g506
sg74
(lp517
S':'
asbag67
(g88
g69
NtRp518
(dp519
g72
(dp520
sg81
g506
sg74
(lp521
g67
(g68
g69
NtRp522
(dp523
g72
(dp524
g80
I3
ssg81
g518
sg74
(lp525
S''
asbasbasbag67
(g83
g69
NtRp526
(dp527
g72
(dp528
sg81
g462
sg74
(lp529
g67
(g88
g69
NtRp530
(dp531
g72
(dp532
g92
g93
ssg81
g526
sg74
(lp533
g344
asbag67
(g88
g69
NtRp534
(dp535
g72
(dp536
g99
g100
ssg81
g526
sg74
(lp537
S':'
asbag67
(g88
g69
NtRp538
(dp539
g72
(dp540
sg81
g526
sg74
(lp541
g67
(g68
g69
NtRp542
(dp543
g72
(dp544
g80
I3
ssg81
g538
sg74
(lp545
S''
asbasbasbag67
(g83
g69
NtRp546
(dp547
g72
(dp548
sg81
g462
sg74
(lp549
g67
(g88
g69
NtRp550
(dp551
g72
(dp552
g92
g93
ssg81
g546
sg74
(lp553
g365
asbag67
(g88
g69
NtRp554
(dp555
g72
(dp556
g99
g100
ssg81
g546
sg74
(lp557
S':'
asbag67
(g88
g69
NtRp558
(dp559
g72
(dp560
sg81
g546
sg74
(lp561
g67
(g68
g69
NtRp562
(dp563
g72
(dp564
g80
I3
ssg81
g558
sg74
(lp565
S''
asbasbasbag67
(g83
g69
NtRp566
(dp567
g72
(dp568
sg81
g462
sg74
(lp569
g67
(g88
g69
NtRp570
(dp571
g72
(dp572
g92
g93
ssg81
g566
sg74
(lp573
g386
asbag67
(g88
g69
NtRp574
(dp575
g72
(dp576
g99
g100
ssg81
g566
sg74
(lp577
S':'
asbag67
(g88
g69
NtRp578
(dp579
g72
(dp580
sg81
g566
sg74
(lp581
g67
(g68
g69
NtRp582
(dp583
g72
(dp584
g80
I3
ssg81
g578
sg74
(lp585
S''
asbasbasbag67
(g83
g69
NtRp586
(dp587
g72
(dp588
sg81
g462
sg74
(lp589
g67
(g88
g69
NtRp590
(dp591
g72
(dp592
g92
g93
ssg81
g586
sg74
(lp593
g407
asbag67
(g88
g69
NtRp594
(dp595
g72
(dp596
g99
g100
ssg81
g586
sg74
(lp597
S':'
asbag67
(g88
g69
NtRp598
(dp599
g72
(dp600
sg81
g586
sg74
(lp601
g67
(g68
g69
NtRp602
(dp603
g72
(dp604
g80
I3
ssg81
g598
sg74
(lp605
S''
asbasbasbag67
(g83
g69
NtRp606
(dp607
g72
(dp608
sg81
g462
sg74
(lp609
g67
(g88
g69
NtRp610
(dp611
g72
(dp612
g92
g93
ssg81
g606
sg74
(lp613
g428
asbag67
(g88
g69
NtRp614
(dp615
g72
(dp616
g99
g100
ssg81
g606
sg74
(lp617
S':'
asbag67
(g88
g69
NtRp618
(dp619
g72
(dp620
sg81
g606
sg74
(lp621
g67
(g68
g69
NtRp622
(dp623
g72
(dp624
g80
I3
ssg81
g618
sg74
(lp625
S''
asbasbasbasbasbasbasbag67
(g83
g69
NtRp626
(dp627
g72
(dp628
sg81
g244
sg74
(lp629
g67
(g88
g69
NtRp630
(dp631
g72
(dp632
g92
g93
ssg81
g626
sg74
(lp633
S'session_id_datos'
p634
asbag67
(g88
g69
NtRp635
(dp636
g72
(dp637
g99
g100
ssg81
g626
sg74
(lp638
S':'
asbag67
(g88
g69
NtRp639
(dp640
g72
(dp641
sg81
g626
sg74
(lp642
g67
(g68
g69
NtRp643
(dp644
g72
(dp645
g80
I4
ssg81
g639
sg74
(lp646
g67
(g76
g69
NtRp647
(dp648
g72
(dp649
g80
I3
ssg81
Nsg74
(lp650
g67
(g83
g69
NtRp651
(dp652
g72
(dp653
sg81
g647
sg74
(lp654
g67
(g88
g69
NtRp655
(dp656
g72
(dp657
g92
g93
ssg81
g651
sg74
(lp658
g281
asbag67
(g88
g69
NtRp659
(dp660
g72
(dp661
g99
g100
ssg81
g651
sg74
(lp662
S':'
asbag67
(g88
g69
NtRp663
(dp664
g72
(dp665
sg81
g651
sg74
(lp666
g67
(g68
g69
NtRp667
(dp668
g72
(dp669
g80
I3
ssg81
g663
sg74
(lp670
S''
asbasbasbag67
(g83
g69
NtRp671
(dp672
g72
(dp673
sg81
g647
sg74
(lp674
g67
(g88
g69
NtRp675
(dp676
g72
(dp677
g92
g93
ssg81
g671
sg74
(lp678
g302
asbag67
(g88
g69
NtRp679
(dp680
g72
(dp681
g99
g100
ssg81
g671
sg74
(lp682
S':'
asbag67
(g88
g69
NtRp683
(dp684
g72
(dp685
sg81
g671
sg74
(lp686
g67
(g68
g69
NtRp687
(dp688
g72
(dp689
g80
I3
ssg81
g683
sg74
(lp690
S''
asbasbasbag67
(g83
g69
NtRp691
(dp692
g72
(dp693
sg81
g647
sg74
(lp694
g67
(g88
g69
NtRp695
(dp696
g72
(dp697
g92
g93
ssg81
g691
sg74
(lp698
g323
asbag67
(g88
g69
NtRp699
(dp700
g72
(dp701
g99
g100
ssg81
g691
sg74
(lp702
S':'
asbag67
(g88
g69
NtRp703
(dp704
g72
(dp705
sg81
g691
sg74
(lp706
g67
(g68
g69
NtRp707
(dp708
g72
(dp709
g80
I3
ssg81
g703
sg74
(lp710
S''
asbasbasbag67
(g83
g69
NtRp711
(dp712
g72
(dp713
sg81
g647
sg74
(lp714
g67
(g88
g69
NtRp715
(dp716
g72
(dp717
g92
g93
ssg81
g711
sg74
(lp718
g344
asbag67
(g88
g69
NtRp719
(dp720
g72
(dp721
g99
g100
ssg81
g711
sg74
(lp722
S':'
asbag67
(g88
g69
NtRp723
(dp724
g72
(dp725
sg81
g711
sg74
(lp726
g67
(g68
g69
NtRp727
(dp728
g72
(dp729
g80
I3
ssg81
g723
sg74
(lp730
S''
asbasbasbag67
(g83
g69
NtRp731
(dp732
g72
(dp733
sg81
g647
sg74
(lp734
g67
(g88
g69
NtRp735
(dp736
g72
(dp737
g92
g93
ssg81
g731
sg74
(lp738
g365
asbag67
(g88
g69
NtRp739
(dp740
g72
(dp741
g99
g100
ssg81
g731
sg74
(lp742
S':'
asbag67
(g88
g69
NtRp743
(dp744
g72
(dp745
sg81
g731
sg74
(lp746
g67
(g68
g69
NtRp747
(dp748
g72
(dp749
g80
I3
ssg81
g743
sg74
(lp750
S''
asbasbasbag67
(g83
g69
NtRp751
(dp752
g72
(dp753
sg81
g647
sg74
(lp754
g67
(g88
g69
NtRp755
(dp756
g72
(dp757
g92
g93
ssg81
g751
sg74
(lp758
g386
asbag67
(g88
g69
NtRp759
(dp760
g72
(dp761
g99
g100
ssg81
g751
sg74
(lp762
S':'
asbag67
(g88
g69
NtRp763
(dp764
g72
(dp765
sg81
g751
sg74
(lp766
g67
(g68
g69
NtRp767
(dp768
g72
(dp769
g80
I3
ssg81
g763
sg74
(lp770
S''
asbasbasbag67
(g83
g69
NtRp771
(dp772
g72
(dp773
sg81
g647
sg74
(lp774
g67
(g88
g69
NtRp775
(dp776
g72
(dp777
g92
g93
ssg81
g771
sg74
(lp778
g407
asbag67
(g88
g69
NtRp779
(dp780
g72
(dp781
g99
g100
ssg81
g771
sg74
(lp782
S':'
asbag67
(g88
g69
NtRp783
(dp784
g72
(dp785
sg81
g771
sg74
(lp786
g67
(g68
g69
NtRp787
(dp788
g72
(dp789
g80
I3
ssg81
g783
sg74
(lp790
S''
asbasbasbag67
(g83
g69
NtRp791
(dp792
g72
(dp793
sg81
g647
sg74
(lp794
g67
(g88
g69
NtRp795
(dp796
g72
(dp797
g92
g93
ssg81
g791
sg74
(lp798
g428
asbag67
(g88
g69
NtRp799
(dp800
g72
(dp801
g99
g100
ssg81
g791
sg74
(lp802
S':'
asbag67
(g88
g69
NtRp803
(dp804
g72
(dp805
sg81
g791
sg74
(lp806
g67
(g68
g69
NtRp807
(dp808
g72
(dp809
g80
I3
ssg81
g803
sg74
(lp810
S''
asbasbasbasbasbasbasbag67
(g83
g69
NtRp811
(dp812
g72
(dp813
sg81
g244
sg74
(lp814
g67
(g88
g69
NtRp815
(dp816
g72
(dp817
g92
g93
ssg81
g811
sg74
(lp818
S'session_id_proyecto'
p819
asbag67
(g88
g69
NtRp820
(dp821
g72
(dp822
g99
g100
ssg81
g811
sg74
(lp823
S':'
asbag67
(g88
g69
NtRp824
(dp825
g72
(dp826
sg81
g811
sg74
(lp827
g67
(g68
g69
NtRp828
(dp829
g72
(dp830
g80
I4
ssg81
g824
sg74
(lp831
g67
(g76
g69
NtRp832
(dp833
g72
(dp834
g80
I3
ssg81
Nsg74
(lp835
g67
(g83
g69
NtRp836
(dp837
g72
(dp838
sg81
g832
sg74
(lp839
g67
(g88
g69
NtRp840
(dp841
g72
(dp842
g92
g93
ssg81
g836
sg74
(lp843
g281
asbag67
(g88
g69
NtRp844
(dp845
g72
(dp846
g99
g100
ssg81
g836
sg74
(lp847
S':'
asbag67
(g88
g69
NtRp848
(dp849
g72
(dp850
sg81
g836
sg74
(lp851
g67
(g68
g69
NtRp852
(dp853
g72
(dp854
g80
I3
ssg81
g848
sg74
(lp855
S''
asbasbasbag67
(g83
g69
NtRp856
(dp857
g72
(dp858
sg81
g832
sg74
(lp859
g67
(g88
g69
NtRp860
(dp861
g72
(dp862
g92
g93
ssg81
g856
sg74
(lp863
g302
asbag67
(g88
g69
NtRp864
(dp865
g72
(dp866
g99
g100
ssg81
g856
sg74
(lp867
S':'
asbag67
(g88
g69
NtRp868
(dp869
g72
(dp870
sg81
g856
sg74
(lp871
g67
(g68
g69
NtRp872
(dp873
g72
(dp874
g80
I3
ssg81
g868
sg74
(lp875
S''
asbasbasbag67
(g83
g69
NtRp876
(dp877
g72
(dp878
sg81
g832
sg74
(lp879
g67
(g88
g69
NtRp880
(dp881
g72
(dp882
g92
g93
ssg81
g876
sg74
(lp883
g323
asbag67
(g88
g69
NtRp884
(dp885
g72
(dp886
g99
g100
ssg81
g876
sg74
(lp887
S':'
asbag67
(g88
g69
NtRp888
(dp889
g72
(dp890
sg81
g876
sg74
(lp891
g67
(g68
g69
NtRp892
(dp893
g72
(dp894
g80
I3
ssg81
g888
sg74
(lp895
S''
asbasbasbag67
(g83
g69
NtRp896
(dp897
g72
(dp898
sg81
g832
sg74
(lp899
g67
(g88
g69
NtRp900
(dp901
g72
(dp902
g92
g93
ssg81
g896
sg74
(lp903
g344
asbag67
(g88
g69
NtRp904
(dp905
g72
(dp906
g99
g100
ssg81
g896
sg74
(lp907
S':'
asbag67
(g88
g69
NtRp908
(dp909
g72
(dp910
sg81
g896
sg74
(lp911
g67
(g68
g69
NtRp912
(dp913
g72
(dp914
g80
I3
ssg81
g908
sg74
(lp915
S''
asbasbasbag67
(g83
g69
NtRp916
(dp917
g72
(dp918
sg81
g832
sg74
(lp919
g67
(g88
g69
NtRp920
(dp921
g72
(dp922
g92
g93
ssg81
g916
sg74
(lp923
g365
asbag67
(g88
g69
NtRp924
(dp925
g72
(dp926
g99
g100
ssg81
g916
sg74
(lp927
S':'
asbag67
(g88
g69
NtRp928
(dp929
g72
(dp930
sg81
g916
sg74
(lp931
g67
(g68
g69
NtRp932
(dp933
g72
(dp934
g80
I3
ssg81
g928
sg74
(lp935
S''
asbasbasbag67
(g83
g69
NtRp936
(dp937
g72
(dp938
sg81
g832
sg74
(lp939
g67
(g88
g69
NtRp940
(dp941
g72
(dp942
g92
g93
ssg81
g936
sg74
(lp943
g386
asbag67
(g88
g69
NtRp944
(dp945
g72
(dp946
g99
g100
ssg81
g936
sg74
(lp947
S':'
asbag67
(g88
g69
NtRp948
(dp949
g72
(dp950
sg81
g936
sg74
(lp951
g67
(g68
g69
NtRp952
(dp953
g72
(dp954
g80
I3
ssg81
g948
sg74
(lp955
S''
asbasbasbag67
(g83
g69
NtRp956
(dp957
g72
(dp958
sg81
g832
sg74
(lp959
g67
(g88
g69
NtRp960
(dp961
g72
(dp962
g92
g93
ssg81
g956
sg74
(lp963
g407
asbag67
(g88
g69
NtRp964
(dp965
g72
(dp966
g99
g100
ssg81
g956
sg74
(lp967
S':'
asbag67
(g88
g69
NtRp968
(dp969
g72
(dp970
sg81
g956
sg74
(lp971
g67
(g68
g69
NtRp972
(dp973
g72
(dp974
g80
I3
ssg81
g968
sg74
(lp975
S''
asbasbasbag67
(g83
g69
NtRp976
(dp977
g72
(dp978
sg81
g832
sg74
(lp979
g67
(g88
g69
NtRp980
(dp981
g72
(dp982
g92
g93
ssg81
g976
sg74
(lp983
g428
asbag67
(g88
g69
NtRp984
(dp985
g72
(dp986
g99
g100
ssg81
g976
sg74
(lp987
S':'
asbag67
(g88
g69
NtRp988
(dp989
g72
(dp990
sg81
g976
sg74
(lp991
g67
(g68
g69
NtRp992
(dp993
g72
(dp994
g80
I3
ssg81
g988
sg74
(lp995
S''
asbasbasbasbasbasbasbag67
(g83
g69
NtRp996
(dp997
g72
(dp998
sg81
g244
sg74
(lp999
g67
(g88
g69
NtRp1000
(dp1001
g72
(dp1002
g92
g93
ssg81
g996
sg74
(lp1003
S'session_id_welcome'
p1004
asbag67
(g88
g69
NtRp1005
(dp1006
g72
(dp1007
g99
g100
ssg81
g996
sg74
(lp1008
S':'
asbag67
(g88
g69
NtRp1009
(dp1010
g72
(dp1011
sg81
g996
sg74
(lp1012
g67
(g68
g69
NtRp1013
(dp1014
g72
(dp1015
g80
I4
ssg81
g1009
sg74
(lp1016
g67
(g76
g69
NtRp1017
(dp1018
g72
(dp1019
g80
I3
ssg81
Nsg74
(lp1020
g67
(g83
g69
NtRp1021
(dp1022
g72
(dp1023
sg81
g1017
sg74
(lp1024
g67
(g88
g69
NtRp1025
(dp1026
g72
(dp1027
g92
g93
ssg81
g1021
sg74
(lp1028
g281
asbag67
(g88
g69
NtRp1029
(dp1030
g72
(dp1031
g99
g100
ssg81
g1021
sg74
(lp1032
S':'
asbag67
(g88
g69
NtRp1033
(dp1034
g72
(dp1035
sg81
g1021
sg74
(lp1036
g67
(g68
g69
NtRp1037
(dp1038
g72
(dp1039
g80
I3
ssg81
g1033
sg74
(lp1040
S''
asbasbasbag67
(g83
g69
NtRp1041
(dp1042
g72
(dp1043
sg81
g1017
sg74
(lp1044
g67
(g88
g69
NtRp1045
(dp1046
g72
(dp1047
g92
g93
ssg81
g1041
sg74
(lp1048
g302
asbag67
(g88
g69
NtRp1049
(dp1050
g72
(dp1051
g99
g100
ssg81
g1041
sg74
(lp1052
S':'
asbag67
(g88
g69
NtRp1053
(dp1054
g72
(dp1055
sg81
g1041
sg74
(lp1056
g67
(g68
g69
NtRp1057
(dp1058
g72
(dp1059
g80
I3
ssg81
g1053
sg74
(lp1060
S''
asbasbasbag67
(g83
g69
NtRp1061
(dp1062
g72
(dp1063
sg81
g1017
sg74
(lp1064
g67
(g88
g69
NtRp1065
(dp1066
g72
(dp1067
g92
g93
ssg81
g1061
sg74
(lp1068
g323
asbag67
(g88
g69
NtRp1069
(dp1070
g72
(dp1071
g99
g100
ssg81
g1061
sg74
(lp1072
S':'
asbag67
(g88
g69
NtRp1073
(dp1074
g72
(dp1075
sg81
g1061
sg74
(lp1076
g67
(g68
g69
NtRp1077
(dp1078
g72
(dp1079
g80
I3
ssg81
g1073
sg74
(lp1080
S''
asbasbasbag67
(g83
g69
NtRp1081
(dp1082
g72
(dp1083
sg81
g1017
sg74
(lp1084
g67
(g88
g69
NtRp1085
(dp1086
g72
(dp1087
g92
g93
ssg81
g1081
sg74
(lp1088
g344
asbag67
(g88
g69
NtRp1089
(dp1090
g72
(dp1091
g99
g100
ssg81
g1081
sg74
(lp1092
S':'
asbag67
(g88
g69
NtRp1093
(dp1094
g72
(dp1095
sg81
g1081
sg74
(lp1096
g67
(g68
g69
NtRp1097
(dp1098
g72
(dp1099
g80
I3
ssg81
g1093
sg74
(lp1100
S''
asbasbasbag67
(g83
g69
NtRp1101
(dp1102
g72
(dp1103
sg81
g1017
sg74
(lp1104
g67
(g88
g69
NtRp1105
(dp1106
g72
(dp1107
g92
g93
ssg81
g1101
sg74
(lp1108
g365
asbag67
(g88
g69
NtRp1109
(dp1110
g72
(dp1111
g99
g100
ssg81
g1101
sg74
(lp1112
S':'
asbag67
(g88
g69
NtRp1113
(dp1114
g72
(dp1115
sg81
g1101
sg74
(lp1116
g67
(g68
g69
NtRp1117
(dp1118
g72
(dp1119
g80
I3
ssg81
g1113
sg74
(lp1120
S''
asbasbasbag67
(g83
g69
NtRp1121
(dp1122
g72
(dp1123
sg81
g1017
sg74
(lp1124
g67
(g88
g69
NtRp1125
(dp1126
g72
(dp1127
g92
g93
ssg81
g1121
sg74
(lp1128
g386
asbag67
(g88
g69
NtRp1129
(dp1130
g72
(dp1131
g99
g100
ssg81
g1121
sg74
(lp1132
S':'
asbag67
(g88
g69
NtRp1133
(dp1134
g72
(dp1135
sg81
g1121
sg74
(lp1136
g67
(g68
g69
NtRp1137
(dp1138
g72
(dp1139
g80
I3
ssg81
g1133
sg74
(lp1140
S''
asbasbasbag67
(g83
g69
NtRp1141
(dp1142
g72
(dp1143
sg81
g1017
sg74
(lp1144
g67
(g88
g69
NtRp1145
(dp1146
g72
(dp1147
g92
g93
ssg81
g1141
sg74
(lp1148
g407
asbag67
(g88
g69
NtRp1149
(dp1150
g72
(dp1151
g99
g100
ssg81
g1141
sg74
(lp1152
S':'
asbag67
(g88
g69
NtRp1153
(dp1154
g72
(dp1155
sg81
g1141
sg74
(lp1156
g67
(g68
g69
NtRp1157
(dp1158
g72
(dp1159
g80
I3
ssg81
g1153
sg74
(lp1160
S''
asbasbasbag67
(g83
g69
NtRp1161
(dp1162
g72
(dp1163
sg81
g1017
sg74
(lp1164
g67
(g88
g69
NtRp1165
(dp1166
g72
(dp1167
g92
g93
ssg81
g1161
sg74
(lp1168
g428
asbag67
(g88
g69
NtRp1169
(dp1170
g72
(dp1171
g99
g100
ssg81
g1161
sg74
(lp1172
S':'
asbag67
(g88
g69
NtRp1173
(dp1174
g72
(dp1175
sg81
g1161
sg74
(lp1176
g67
(g68
g69
NtRp1177
(dp1178
g72
(dp1179
g80
I3
ssg81
g1173
sg74
(lp1180
S''
asbasbasbasbasbasbasbasbasbasbasbag67
(g83
g69
NtRp1181
(dp1182
g72
(dp1183
sg81
g77
sg74
(lp1184
g67
(g88
g69
NtRp1185
(dp1186
g72
(dp1187
g92
g93
ssg81
g1181
sg74
(lp1188
S'env'
p1189
asbag67
(g88
g69
NtRp1190
(dp1191
g72
(dp1192
g99
g100
ssg81
g1181
sg74
(lp1193
S':'
asbag67
(g88
g69
NtRp1194
(dp1195
g72
(dp1196
sg81
g1181
sg74
(lp1197
g67
(g68
g69
NtRp1198
(dp1199
g72
(dp1200
g80
I5
ssg81
g1194
sg74
(lp1201
g67
(g76
g69
NtRp1202
(dp1203
g72
(dp1204
g80
I4
ssg81
Nsg74
(lp1205
g67
(g83
g69
NtRp1206
(dp1207
g72
(dp1208
sg81
g1202
sg74
(lp1209
g67
(g88
g69
NtRp1210
(dp1211
g72
(dp1212
g92
g93
ssg81
g1206
sg74
(lp1213
S'app_folders'
p1214
asbag67
(g88
g69
NtRp1215
(dp1216
g72
(dp1217
g99
g100
ssg81
g1206
sg74
(lp1218
S':'
asbag67
(g88
g69
NtRp1219
(dp1220
g72
(dp1221
sg81
g1206
sg74
(lp1222
g67
(g68
g69
NtRp1223
(dp1224
g72
(dp1225
g80
I4
ssg81
g1219
sg74
(lp1226
S"set(['/home/alumno/web2py/applications/proyecto/', '/home/alumno/web2py/applications/admin/', '/home/alumno/web2py/applications/welcome/', '/home/alumno/web2py/applications/datos/'])"
p1227
asbasbasbag67
(g83
g69
NtRp1228
(dp1229
g72
(dp1230
sg81
g1202
sg74
(lp1231
g67
(g88
g69
NtRp1232
(dp1233
g72
(dp1234
g92
g93
ssg81
g1228
sg74
(lp1235
S'applications_parent'
p1236
asbag67
(g88
g69
NtRp1237
(dp1238
g72
(dp1239
g99
g100
ssg81
g1228
sg74
(lp1240
S':'
asbag67
(g88
g69
NtRp1241
(dp1242
g72
(dp1243
sg81
g1228
sg74
(lp1244
g67
(g68
g69
NtRp1245
(dp1246
g72
(dp1247
g80
I4
ssg81
g1241
sg74
(lp1248
S'/home/alumno/web2py'
p1249
asbasbasbag67
(g83
g69
NtRp1250
(dp1251
g72
(dp1252
sg81
g1202
sg74
(lp1253
g67
(g88
g69
NtRp1254
(dp1255
g72
(dp1256
g92
g93
ssg81
g1250
sg74
(lp1257
S'cmd_args'
p1258
asbag67
(g88
g69
NtRp1259
(dp1260
g72
(dp1261
g99
g100
ssg81
g1250
sg74
(lp1262
S':'
asbag67
(g88
g69
NtRp1263
(dp1264
g72
(dp1265
sg81
g1250
sg74
(lp1266
g67
(g68
g69
NtRp1267
(dp1268
g72
(dp1269
g80
I4
ssg81
g1263
sg74
(lp1270
g67
(g76
g69
NtRp1271
(dp1272
g72
(dp1273
g80
I3
ssg81
Nsg74
(lp1274
sbasbasbasbag67
(g83
g69
NtRp1275
(dp1276
g72
(dp1277
sg81
g1202
sg74
(lp1278
g67
(g88
g69
NtRp1279
(dp1280
g72
(dp1281
g92
g93
ssg81
g1275
sg74
(lp1282
S'cmd_options'
p1283
asbag67
(g88
g69
NtRp1284
(dp1285
g72
(dp1286
g99
g100
ssg81
g1275
sg74
(lp1287
S':'
asbag67
(g88
g69
NtRp1288
(dp1289
g72
(dp1290
sg81
g1275
sg74
(lp1291
g67
(g68
g69
NtRp1292
(dp1293
g72
(dp1294
g80
I4
ssg81
g1288
sg74
(lp1295
S"<Values at 0xa51ca8c: {'verbose': False, 'ip': '127.0.0.1', 'shutdown_timeout': 5, 'taskbar': False, 'port': 8000, 'maxthreads': None, 'softcron': False, 'server_name': 'ubuntu-dev', 'bpython': False, 'nogui': False, 'nocron': False, 'extcron': False, 'debuglevel': 30, 'test': None, 'folder': '/home/alumno/web2py', 'config': '', 'import_models': False, 'winservice': '', 'shell': None, 'run': '', 'log_filename': 'httpserver.log', 'args': [''], 'profiler_filename': None, 'ssl_private_key': '', 'password': '<ask>', 'request_queue_size': 5, 'ssl_certificate': '', 'cronjob': False, 'plain': False, 'quiet': False, 'interfaces': None, 'minthreads': None, 'timeout': 10, 'numthreads': None, 'nobanner': False, 'pid_filename': 'httpserver.pid'}>"
p1296
asbasbasbag67
(g83
g69
NtRp1297
(dp1298
g72
(dp1299
sg81
g1202
sg74
(lp1300
g67
(g88
g69
NtRp1301
(dp1302
g72
(dp1303
g92
g93
ssg81
g1297
sg74
(lp1304
S'db_sessions'
p1305
asbag67
(g88
g69
NtRp1306
(dp1307
g72
(dp1308
g99
g100
ssg81
g1297
sg74
(lp1309
S':'
asbag67
(g88
g69
NtRp1310
(dp1311
g72
(dp1312
sg81
g1297
sg74
(lp1313
g67
(g68
g69
NtRp1314
(dp1315
g72
(dp1316
g80
I4
ssg81
g1310
sg74
(lp1317
S'set([])'
p1318
asbasbasbag67
(g83
g69
NtRp1319
(dp1320
g72
(dp1321
sg81
g1202
sg74
(lp1322
g67
(g88
g69
NtRp1323
(dp1324
g72
(dp1325
g92
g93
ssg81
g1319
sg74
(lp1326
S'debugging'
p1327
asbag67
(g88
g69
NtRp1328
(dp1329
g72
(dp1330
g99
g100
ssg81
g1319
sg74
(lp1331
S':'
asbag67
(g88
g69
NtRp1332
(dp1333
g72
(dp1334
sg81
g1319
sg74
(lp1335
g67
(g68
g69
NtRp1336
(dp1337
g72
(dp1338
g80
I4
ssg81
g1332
sg74
(lp1339
g110
asbasbasbag67
(g83
g69
NtRp1340
(dp1341
g72
(dp1342
sg81
g1202
sg74
(lp1343
g67
(g88
g69
NtRp1344
(dp1345
g72
(dp1346
g92
g93
ssg81
g1340
sg74
(lp1347
S'gluon_parent'
p1348
asbag67
(g88
g69
NtRp1349
(dp1350
g72
(dp1351
g99
g100
ssg81
g1340
sg74
(lp1352
S':'
asbag67
(g88
g69
NtRp1353
(dp1354
g72
(dp1355
sg81
g1340
sg74
(lp1356
g67
(g68
g69
NtRp1357
(dp1358
g72
(dp1359
g80
I4
ssg81
g1353
sg74
(lp1360
S'/home/alumno/web2py'
p1361
asbasbasbag67
(g83
g69
NtRp1362
(dp1363
g72
(dp1364
sg81
g1202
sg74
(lp1365
g67
(g88
g69
NtRp1366
(dp1367
g72
(dp1368
g92
g93
ssg81
g1362
sg74
(lp1369
S'http_accept'
p1370
asbag67
(g88
g69
NtRp1371
(dp1372
g72
(dp1373
g99
g100
ssg81
g1362
sg74
(lp1374
S':'
asbag67
(g88
g69
NtRp1375
(dp1376
g72
(dp1377
sg81
g1362
sg74
(lp1378
g67
(g68
g69
NtRp1379
(dp1380
g72
(dp1381
g80
I4
ssg81
g1375
sg74
(lp1382
S'text/html,application/xhtml+xml,application/xml;q=0.9,*/*;q=0.8'
p1383
asbasbasbag67
(g83
g69
NtRp1384
(dp1385
g72
(dp1386
sg81
g1202
sg74
(lp1387
g67
(g88
g69
NtRp1388
(dp1389
g72
(dp1390
g92
g93
ssg81
g1384
sg74
(lp1391
S'http_accept_charset'
p1392
asbag67
(g88
g69
NtRp1393
(dp1394
g72
(dp1395
g99
g100
ssg81
g1384
sg74
(lp1396
S':'
asbag67
(g88
g69
NtRp1397
(dp1398
g72
(dp1399
sg81
g1384
sg74
(lp1400
g67
(g68
g69
NtRp1401
(dp1402
g72
(dp1403
g80
I4
ssg81
g1397
sg74
(lp1404
S'ISO-8859-1,utf-8;q=0.7,*;q=0.7'
p1405
asbasbasbag67
(g83
g69
NtRp1406
(dp1407
g72
(dp1408
sg81
g1202
sg74
(lp1409
g67
(g88
g69
NtRp1410
(dp1411
g72
(dp1412
g92
g93
ssg81
g1406
sg74
(lp1413
S'http_accept_encoding'
p1414
asbag67
(g88
g69
NtRp1415
(dp1416
g72
(dp1417
g99
g100
ssg81
g1406
sg74
(lp1418
S':'
asbag67
(g88
g69
NtRp1419
(dp1420
g72
(dp1421
sg81
g1406
sg74
(lp1422
g67
(g68
g69
NtRp1423
(dp1424
g72
(dp1425
g80
I4
ssg81
g1419
sg74
(lp1426
S'gzip, deflate'
p1427
asbasbasbag67
(g83
g69
NtRp1428
(dp1429
g72
(dp1430
sg81
g1202
sg74
(lp1431
g67
(g88
g69
NtRp1432
(dp1433
g72
(dp1434
g92
g93
ssg81
g1428
sg74
(lp1435
S'http_accept_language'
p1436
asbag67
(g88
g69
NtRp1437
(dp1438
g72
(dp1439
g99
g100
ssg81
g1428
sg74
(lp1440
S':'
asbag67
(g88
g69
NtRp1441
(dp1442
g72
(dp1443
sg81
g1428
sg74
(lp1444
g67
(g68
g69
NtRp1445
(dp1446
g72
(dp1447
g80
I4
ssg81
g1441
sg74
(lp1448
S'es-ar,es;q=0.8,en-us;q=0.5,en;q=0.3'
p1449
asbasbasbag67
(g83
g69
NtRp1450
(dp1451
g72
(dp1452
sg81
g1202
sg74
(lp1453
g67
(g88
g69
NtRp1454
(dp1455
g72
(dp1456
g92
g93
ssg81
g1450
sg74
(lp1457
S'http_cache_control'
p1458
asbag67
(g88
g69
NtRp1459
(dp1460
g72
(dp1461
g99
g100
ssg81
g1450
sg74
(lp1462
S':'
asbag67
(g88
g69
NtRp1463
(dp1464
g72
(dp1465
sg81
g1450
sg74
(lp1466
g67
(g68
g69
NtRp1467
(dp1468
g72
(dp1469
g80
I4
ssg81
g1463
sg74
(lp1470
S'max-age=0'
p1471
asbasbasbag67
(g83
g69
NtRp1472
(dp1473
g72
(dp1474
sg81
g1202
sg74
(lp1475
g67
(g88
g69
NtRp1476
(dp1477
g72
(dp1478
g92
g93
ssg81
g1472
sg74
(lp1479
S'http_connection'
p1480
asbag67
(g88
g69
NtRp1481
(dp1482
g72
(dp1483
g99
g100
ssg81
g1472
sg74
(lp1484
S':'
asbag67
(g88
g69
NtRp1485
(dp1486
g72
(dp1487
sg81
g1472
sg74
(lp1488
g67
(g68
g69
NtRp1489
(dp1490
g72
(dp1491
g80
I4
ssg81
g1485
sg74
(lp1492
S'keep-alive'
p1493
asbasbasbag67
(g83
g69
NtRp1494
(dp1495
g72
(dp1496
sg81
g1202
sg74
(lp1497
g67
(g88
g69
NtRp1498
(dp1499
g72
(dp1500
g92
g93
ssg81
g1494
sg74
(lp1501
S'http_cookie'
p1502
asbag67
(g88
g69
NtRp1503
(dp1504
g72
(dp1505
g99
g100
ssg81
g1494
sg74
(lp1506
S':'
asbag67
(g88
g69
NtRp1507
(dp1508
g72
(dp1509
sg81
g1494
sg74
(lp1510
g67
(g68
g69
NtRp1511
(dp1512
g72
(dp1513
g80
I4
ssg81
g1507
sg74
(lp1514
S'session_id_welcome=127.0.0.1-5caa90bf-8919-473f-bfe4-ad68bcedc506; session_id_admin=127.0.0.1-d858e67f-91b6-401e-90fb-03c74efa9202; adminLanguage=es-es; session_id_proyecto=127.0.0.1-537689b4-5d8c-43f6-8499-f345a752f325; session_id_datos=127.0.0.1-01cd6270-ebce-49b5-a324-f35a3330a3d1'
p1515
asbasbasbag67
(g83
g69
NtRp1516
(dp1517
g72
(dp1518
sg81
g1202
sg74
(lp1519
g67
(g88
g69
NtRp1520
(dp1521
g72
(dp1522
g92
g93
ssg81
g1516
sg74
(lp1523
S'http_host'
p1524
asbag67
(g88
g69
NtRp1525
(dp1526
g72
(dp1527
g99
g100
ssg81
g1516
sg74
(lp1528
S':'
asbag67
(g88
g69
NtRp1529
(dp1530
g72
(dp1531
sg81
g1516
sg74
(lp1532
g67
(g68
g69
NtRp1533
(dp1534
g72
(dp1535
g80
I4
ssg81
g1529
sg74
(lp1536
S'127.0.0.1:8000'
p1537
asbasbasbag67
(g83
g69
NtRp1538
(dp1539
g72
(dp1540
sg81
g1202
sg74
(lp1541
g67
(g88
g69
NtRp1542
(dp1543
g72
(dp1544
g92
g93
ssg81
g1538
sg74
(lp1545
S'http_referer'
p1546
asbag67
(g88
g69
NtRp1547
(dp1548
g72
(dp1549
g99
g100
ssg81
g1538
sg74
(lp1550
S':'
asbag67
(g88
g69
NtRp1551
(dp1552
g72
(dp1553
sg81
g1538
sg74
(lp1554
g67
(g68
g69
NtRp1555
(dp1556
g72
(dp1557
g80
I4
ssg81
g1551
sg74
(lp1558
S'http://127.0.0.1:8000/admin/default/design/proyecto'
p1559
asbasbasbag67
(g83
g69
NtRp1560
(dp1561
g72
(dp1562
sg81
g1202
sg74
(lp1563
g67
(g88
g69
NtRp1564
(dp1565
g72
(dp1566
g92
g93
ssg81
g1560
sg74
(lp1567
S'http_user_agent'
p1568
asbag67
(g88
g69
NtRp1569
(dp1570
g72
(dp1571
g99
g100
ssg81
g1560
sg74
(lp1572
S':'
asbag67
(g88
g69
NtRp1573
(dp1574
g72
(dp1575
sg81
g1560
sg74
(lp1576
g67
(g68
g69
NtRp1577
(dp1578
g72
(dp1579
g80
I4
ssg81
g1573
sg74
(lp1580
S'Mozilla/5.0 (X11; Linux i686; rv:6.0) Gecko/20100101 Firefox/6.0'
p1581
asbasbasbag67
(g83
g69
NtRp1582
(dp1583
g72
(dp1584
sg81
g1202
sg74
(lp1585
g67
(g88
g69
NtRp1586
(dp1587
g72
(dp1588
g92
g93
ssg81
g1582
sg74
(lp1589
S'is_jython'
p1590
asbag67
(g88
g69
NtRp1591
(dp1592
g72
(dp1593
g99
g100
ssg81
g1582
sg74
(lp1594
S':'
asbag67
(g88
g69
NtRp1595
(dp1596
g72
(dp1597
sg81
g1582
sg74
(lp1598
g67
(g68
g69
NtRp1599
(dp1600
g72
(dp1601
g80
I4
ssg81
g1595
sg74
(lp1602
g110
asbasbasbag67
(g83
g69
NtRp1603
(dp1604
g72
(dp1605
sg81
g1202
sg74
(lp1606
g67
(g88
g69
NtRp1607
(dp1608
g72
(dp1609
g92
g93
ssg81
g1603
sg74
(lp1610
S'path_info'
p1611
asbag67
(g88
g69
NtRp1612
(dp1613
g72
(dp1614
g99
g100
ssg81
g1603
sg74
(lp1615
S':'
asbag67
(g88
g69
NtRp1616
(dp1617
g72
(dp1618
sg81
g1603
sg74
(lp1619
g67
(g68
g69
NtRp1620
(dp1621
g72
(dp1622
g80
I4
ssg81
g1616
sg74
(lp1623
S'/proyecto/default/index'
p1624
asbasbasbag67
(g83
g69
NtRp1625
(dp1626
g72
(dp1627
sg81
g1202
sg74
(lp1628
g67
(g88
g69
NtRp1629
(dp1630
g72
(dp1631
g92
g93
ssg81
g1625
sg74
(lp1632
S'query_string'
p1633
asbag67
(g88
g69
NtRp1634
(dp1635
g72
(dp1636
g99
g100
ssg81
g1625
sg74
(lp1637
S':'
asbag67
(g88
g69
NtRp1638
(dp1639
g72
(dp1640
sg81
g1625
sg74
(lp1641
g67
(g68
g69
NtRp1642
(dp1643
g72
(dp1644
g80
I4
ssg81
g1638
sg74
(lp1645
S''
asbasbasbag67
(g83
g69
NtRp1646
(dp1647
g72
(dp1648
sg81
g1202
sg74
(lp1649
g67
(g88
g69
NtRp1650
(dp1651
g72
(dp1652
g92
g93
ssg81
g1646
sg74
(lp1653
S'remote_addr'
p1654
asbag67
(g88
g69
NtRp1655
(dp1656
g72
(dp1657
g99
g100
ssg81
g1646
sg74
(lp1658
S':'
asbag67
(g88
g69
NtRp1659
(dp1660
g72
(dp1661
sg81
g1646
sg74
(lp1662
g67
(g68
g69
NtRp1663
(dp1664
g72
(dp1665
g80
I4
ssg81
g1659
sg74
(lp1666
g200
asbasbasbag67
(g83
g69
NtRp1667
(dp1668
g72
(dp1669
sg81
g1202
sg74
(lp1670
g67
(g88
g69
NtRp1671
(dp1672
g72
(dp1673
g92
g93
ssg81
g1667
sg74
(lp1674
S'remote_port'
p1675
asbag67
(g88
g69
NtRp1676
(dp1677
g72
(dp1678
g99
g100
ssg81
g1667
sg74
(lp1679
S':'
asbag67
(g88
g69
NtRp1680
(dp1681
g72
(dp1682
sg81
g1667
sg74
(lp1683
g67
(g68
g69
NtRp1684
(dp1685
g72
(dp1686
g80
I4
ssg81
g1680
sg74
(lp1687
S'38760'
p1688
asbasbasbag67
(g83
g69
NtRp1689
(dp1690
g72
(dp1691
sg81
g1202
sg74
(lp1692
g67
(g88
g69
NtRp1693
(dp1694
g72
(dp1695
g92
g93
ssg81
g1689
sg74
(lp1696
S'request_method'
p1697
asbag67
(g88
g69
NtRp1698
(dp1699
g72
(dp1700
g99
g100
ssg81
g1689
sg74
(lp1701
S':'
asbag67
(g88
g69
NtRp1702
(dp1703
g72
(dp1704
sg81
g1689
sg74
(lp1705
g67
(g68
g69
NtRp1706
(dp1707
g72
(dp1708
g80
I4
ssg81
g1702
sg74
(lp1709
S'GET'
p1710
asbasbasbag67
(g83
g69
NtRp1711
(dp1712
g72
(dp1713
sg81
g1202
sg74
(lp1714
g67
(g88
g69
NtRp1715
(dp1716
g72
(dp1717
g92
g93
ssg81
g1711
sg74
(lp1718
S'script_name'
p1719
asbag67
(g88
g69
NtRp1720
(dp1721
g72
(dp1722
g99
g100
ssg81
g1711
sg74
(lp1723
S':'
asbag67
(g88
g69
NtRp1724
(dp1725
g72
(dp1726
sg81
g1711
sg74
(lp1727
g67
(g68
g69
NtRp1728
(dp1729
g72
(dp1730
g80
I4
ssg81
g1724
sg74
(lp1731
S''
asbasbasbag67
(g83
g69
NtRp1732
(dp1733
g72
(dp1734
sg81
g1202
sg74
(lp1735
g67
(g88
g69
NtRp1736
(dp1737
g72
(dp1738
g92
g93
ssg81
g1732
sg74
(lp1739
S'server_name'
p1740
asbag67
(g88
g69
NtRp1741
(dp1742
g72
(dp1743
g99
g100
ssg81
g1732
sg74
(lp1744
S':'
asbag67
(g88
g69
NtRp1745
(dp1746
g72
(dp1747
sg81
g1732
sg74
(lp1748
g67
(g68
g69
NtRp1749
(dp1750
g72
(dp1751
g80
I4
ssg81
g1745
sg74
(lp1752
S'ubuntu-dev'
p1753
asbasbasbag67
(g83
g69
NtRp1754
(dp1755
g72
(dp1756
sg81
g1202
sg74
(lp1757
g67
(g88
g69
NtRp1758
(dp1759
g72
(dp1760
g92
g93
ssg81
g1754
sg74
(lp1761
S'server_port'
p1762
asbag67
(g88
g69
NtRp1763
(dp1764
g72
(dp1765
g99
g100
ssg81
g1754
sg74
(lp1766
S':'
asbag67
(g88
g69
NtRp1767
(dp1768
g72
(dp1769
sg81
g1754
sg74
(lp1770
g67
(g68
g69
NtRp1771
(dp1772
g72
(dp1773
g80
I4
ssg81
g1767
sg74
(lp1774
S'8000'
p1775
asbasbasbag67
(g83
g69
NtRp1776
(dp1777
g72
(dp1778
sg81
g1202
sg74
(lp1779
g67
(g88
g69
NtRp1780
(dp1781
g72
(dp1782
g92
g93
ssg81
g1776
sg74
(lp1783
S'server_protocol'
p1784
asbag67
(g88
g69
NtRp1785
(dp1786
g72
(dp1787
g99
g100
ssg81
g1776
sg74
(lp1788
S':'
asbag67
(g88
g69
NtRp1789
(dp1790
g72
(dp1791
sg81
g1776
sg74
(lp1792
g67
(g68
g69
NtRp1793
(dp1794
g72
(dp1795
g80
I4
ssg81
g1789
sg74
(lp1796
S'HTTP/1.1'
p1797
asbasbasbag67
(g83
g69
NtRp1798
(dp1799
g72
(dp1800
sg81
g1202
sg74
(lp1801
g67
(g88
g69
NtRp1802
(dp1803
g72
(dp1804
g92
g93
ssg81
g1798
sg74
(lp1805
S'server_software'
p1806
asbag67
(g88
g69
NtRp1807
(dp1808
g72
(dp1809
g99
g100
ssg81
g1798
sg74
(lp1810
S':'
asbag67
(g88
g69
NtRp1811
(dp1812
g72
(dp1813
sg81
g1798
sg74
(lp1814
g67
(g68
g69
NtRp1815
(dp1816
g72
(dp1817
g80
I4
ssg81
g1811
sg74
(lp1818
S'Rocket 1.2.2'
p1819
asbasbasbag67
(g83
g69
NtRp1820
(dp1821
g72
(dp1822
sg81
g1202
sg74
(lp1823
g67
(g88
g69
NtRp1824
(dp1825
g72
(dp1826
g92
g93
ssg81
g1820
sg74
(lp1827
S'web2py_crontype'
p1828
asbag67
(g88
g69
NtRp1829
(dp1830
g72
(dp1831
g99
g100
ssg81
g1820
sg74
(lp1832
S':'
asbag67
(g88
g69
NtRp1833
(dp1834
g72
(dp1835
sg81
g1820
sg74
(lp1836
g67
(g68
g69
NtRp1837
(dp1838
g72
(dp1839
g80
I4
ssg81
g1833
sg74
(lp1840
S'hard'
p1841
asbasbasbag67
(g83
g69
NtRp1842
(dp1843
g72
(dp1844
sg81
g1202
sg74
(lp1845
g67
(g88
g69
NtRp1846
(dp1847
g72
(dp1848
g92
g93
ssg81
g1842
sg74
(lp1849
S'web2py_path'
p1850
asbag67
(g88
g69
NtRp1851
(dp1852
g72
(dp1853
g99
g100
ssg81
g1842
sg74
(lp1854
S':'
asbag67
(g88
g69
NtRp1855
(dp1856
g72
(dp1857
sg81
g1842
sg74
(lp1858
g67
(g68
g69
NtRp1859
(dp1860
g72
(dp1861
g80
I4
ssg81
g1855
sg74
(lp1862
g1249
asbasbasbag67
(g83
g69
NtRp1863
(dp1864
g72
(dp1865
sg81
g1202
sg74
(lp1866
g67
(g88
g69
NtRp1867
(dp1868
g72
(dp1869
g92
g93
ssg81
g1863
sg74
(lp1870
S'web2py_version'
p1871
asbag67
(g88
g69
NtRp1872
(dp1873
g72
(dp1874
g99
g100
ssg81
g1863
sg74
(lp1875
S':'
asbag67
(g88
g69
NtRp1876
(dp1877
g72
(dp1878
sg81
g1863
sg74
(lp1879
g67
(g68
g69
NtRp1880
(dp1881
g72
(dp1882
g80
I4
ssg81
g1876
sg74
(lp1883
S'Version 1.98.2 (2011-08-04 00:47:09)\n'
p1884
asbasbasbag67
(g83
g69
NtRp1885
(dp1886
g72
(dp1887
sg81
g1202
sg74
(lp1888
g67
(g88
g69
NtRp1889
(dp1890
g72
(dp1891
g92
g93
ssg81
g1885
sg74
(lp1892
S'wsgi_errors'
p1893
asbag67
(g88
g69
NtRp1894
(dp1895
g72
(dp1896
g99
g100
ssg81
g1885
sg74
(lp1897
S':'
asbag67
(g88
g69
NtRp1898
(dp1899
g72
(dp1900
sg81
g1885
sg74
(lp1901
g67
(g68
g69
NtRp1902
(dp1903
g72
(dp1904
g80
I4
ssg81
g1898
sg74
(lp1905
S"<open file '<stderr>', mode 'w' at 0xb77aa0d0>"
p1906
asbasbasbag67
(g83
g69
NtRp1907
(dp1908
g72
(dp1909
sg81
g1202
sg74
(lp1910
g67
(g88
g69
NtRp1911
(dp1912
g72
(dp1913
g92
g93
ssg81
g1907
sg74
(lp1914
S'wsgi_file_wrapper'
p1915
asbag67
(g88
g69
NtRp1916
(dp1917
g72
(dp1918
g99
g100
ssg81
g1907
sg74
(lp1919
S':'
asbag67
(g88
g69
NtRp1920
(dp1921
g72
(dp1922
sg81
g1907
sg74
(lp1923
g67
(g68
g69
NtRp1924
(dp1925
g72
(dp1926
g80
I4
ssg81
g1920
sg74
(lp1927
S'<class gluon.rocket.FileWrapper at 0xa1b432c>'
p1928
asbasbasbag67
(g83
g69
NtRp1929
(dp1930
g72
(dp1931
sg81
g1202
sg74
(lp1932
g67
(g88
g69
NtRp1933
(dp1934
g72
(dp1935
g92
g93
ssg81
g1929
sg74
(lp1936
S'wsgi_input'
p1937
asbag67
(g88
g69
NtRp1938
(dp1939
g72
(dp1940
g99
g100
ssg81
g1929
sg74
(lp1941
S':'
asbag67
(g88
g69
NtRp1942
(dp1943
g72
(dp1944
sg81
g1929
sg74
(lp1945
g67
(g68
g69
NtRp1946
(dp1947
g72
(dp1948
g80
I4
ssg81
g1942
sg74
(lp1949
S'<socket._fileobject object at 0xae866ec>'
p1950
asbasbasbag67
(g83
g69
NtRp1951
(dp1952
g72
(dp1953
sg81
g1202
sg74
(lp1954
g67
(g88
g69
NtRp1955
(dp1956
g72
(dp1957
g92
g93
ssg81
g1951
sg74
(lp1958
S'wsgi_multiprocess'
p1959
asbag67
(g88
g69
NtRp1960
(dp1961
g72
(dp1962
g99
g100
ssg81
g1951
sg74
(lp1963
S':'
asbag67
(g88
g69
NtRp1964
(dp1965
g72
(dp1966
sg81
g1951
sg74
(lp1967
g67
(g68
g69
NtRp1968
(dp1969
g72
(dp1970
g80
I4
ssg81
g1964
sg74
(lp1971
g110
asbasbasbag67
(g83
g69
NtRp1972
(dp1973
g72
(dp1974
sg81
g1202
sg74
(lp1975
g67
(g88
g69
NtRp1976
(dp1977
g72
(dp1978
g92
g93
ssg81
g1972
sg74
(lp1979
S'wsgi_multithread'
p1980
asbag67
(g88
g69
NtRp1981
(dp1982
g72
(dp1983
g99
g100
ssg81
g1972
sg74
(lp1984
S':'
asbag67
(g88
g69
NtRp1985
(dp1986
g72
(dp1987
sg81
g1972
sg74
(lp1988
g67
(g68
g69
NtRp1989
(dp1990
g72
(dp1991
g80
I4
ssg81
g1985
sg74
(lp1992
S'True'
p1993
asbasbasbag67
(g83
g69
NtRp1994
(dp1995
g72
(dp1996
sg81
g1202
sg74
(lp1997
g67
(g88
g69
NtRp1998
(dp1999
g72
(dp2000
g92
g93
ssg81
g1994
sg74
(lp2001
S'wsgi_run_once'
p2002
asbag67
(g88
g69
NtRp2003
(dp2004
g72
(dp2005
g99
g100
ssg81
g1994
sg74
(lp2006
S':'
asbag67
(g88
g69
NtRp2007
(dp2008
g72
(dp2009
sg81
g1994
sg74
(lp2010
g67
(g68
g69
NtRp2011
(dp2012
g72
(dp2013
g80
I4
ssg81
g2007
sg74
(lp2014
g110
asbasbasbag67
(g83
g69
NtRp2015
(dp2016
g72
(dp2017
sg81
g1202
sg74
(lp2018
g67
(g88
g69
NtRp2019
(dp2020
g72
(dp2021
g92
g93
ssg81
g2015
sg74
(lp2022
S'wsgi_url_scheme'
p2023
asbag67
(g88
g69
NtRp2024
(dp2025
g72
(dp2026
g99
g100
ssg81
g2015
sg74
(lp2027
S':'
asbag67
(g88
g69
NtRp2028
(dp2029
g72
(dp2030
sg81
g2015
sg74
(lp2031
g67
(g68
g69
NtRp2032
(dp2033
g72
(dp2034
g80
I4
ssg81
g2028
sg74
(lp2035
S'http'
p2036
asbasbasbag67
(g83
g69
NtRp2037
(dp2038
g72
(dp2039
sg81
g1202
sg74
(lp2040
g67
(g88
g69
NtRp2041
(dp2042
g72
(dp2043
g92
g93
ssg81
g2037
sg74
(lp2044
S'wsgi_version'
p2045
asbag67
(g88
g69
NtRp2046
(dp2047
g72
(dp2048
g99
g100
ssg81
g2037
sg74
(lp2049
S':'
asbag67
(g88
g69
NtRp2050
(dp2051
g72
(dp2052
sg81
g2037
sg74
(lp2053
g67
(g68
g69
NtRp2054
(dp2055
g72
(dp2056
g80
I4
ssg81
g2050
sg74
(lp2057
g67
(g76
g69
NtRp2058
(dp2059
g72
(dp2060
g80
I3
ssg81
Nsg74
(lp2061
g67
(g83
g69
NtRp2062
(dp2063
g72
(dp2064
sg81
g2058
sg74
(lp2065
g67
(g88
g69
NtRp2066
(dp2067
g72
(dp2068
sg81
g2062
sg74
(lp2069
g67
(g68
g69
NtRp2070
(dp2071
g72
(dp2072
g80
I3
ssg81
g2066
sg74
(lp2073
S'1'
asbasbasbag67
(g83
g69
NtRp2074
(dp2075
g72
(dp2076
sg81
g2058
sg74
(lp2077
g67
(g88
g69
NtRp2078
(dp2079
g72
(dp2080
sg81
g2074
sg74
(lp2081
g67
(g68
g69
NtRp2082
(dp2083
g72
(dp2084
g80
I3
ssg81
g2078
sg74
(lp2085
S'0'
asbasbasbasbasbasbasbasbasbasbasbag67
(g83
g69
NtRp2086
(dp2087
g72
(dp2088
sg81
g77
sg74
(lp2089
g67
(g88
g69
NtRp2090
(dp2091
g72
(dp2092
g92
g93
ssg81
g2086
sg74
(lp2093
S'extension'
p2094
asbag67
(g88
g69
NtRp2095
(dp2096
g72
(dp2097
g99
g100
ssg81
g2086
sg74
(lp2098
S':'
asbag67
(g88
g69
NtRp2099
(dp2100
g72
(dp2101
sg81
g2086
sg74
(lp2102
g67
(g68
g69
NtRp2103
(dp2104
g72
(dp2105
g80
I5
ssg81
g2099
sg74
(lp2106
S'html'
p2107
asbasbasbag67
(g83
g69
NtRp2108
(dp2109
g72
(dp2110
sg81
g77
sg74
(lp2111
g67
(g88
g69
NtRp2112
(dp2113
g72
(dp2114
g92
g93
ssg81
g2108
sg74
(lp2115
S'folder'
p2116
asbag67
(g88
g69
NtRp2117
(dp2118
g72
(dp2119
g99
g100
ssg81
g2108
sg74
(lp2120
S':'
asbag67
(g88
g69
NtRp2121
(dp2122
g72
(dp2123
sg81
g2108
sg74
(lp2124
g67
(g68
g69
NtRp2125
(dp2126
g72
(dp2127
g80
I5
ssg81
g2121
sg74
(lp2128
S'/home/alumno/web2py/applications/proyecto/'
p2129
asbasbasbag67
(g83
g69
NtRp2130
(dp2131
g72
(dp2132
sg81
g77
sg74
(lp2133
g67
(g88
g69
NtRp2134
(dp2135
g72
(dp2136
g92
g93
ssg81
g2130
sg74
(lp2137
S'function'
p2138
asbag67
(g88
g69
NtRp2139
(dp2140
g72
(dp2141
g99
g100
ssg81
g2130
sg74
(lp2142
S':'
asbag67
(g88
g69
NtRp2143
(dp2144
g72
(dp2145
sg81
g2130
sg74
(lp2146
g67
(g68
g69
NtRp2147
(dp2148
g72
(dp2149
g80
I5
ssg81
g2143
sg74
(lp2150
S'index'
p2151
asbasbasbag67
(g83
g69
NtRp2152
(dp2153
g72
(dp2154
sg81
g77
sg74
(lp2155
g67
(g88
g69
NtRp2156
(dp2157
g72
(dp2158
g92
g93
ssg81
g2152
sg74
(lp2159
S'get_vars'
p2160
asbag67
(g88
g69
NtRp2161
(dp2162
g72
(dp2163
g99
g100
ssg81
g2152
sg74
(lp2164
S':'
asbag67
(g88
g69
NtRp2165
(dp2166
g72
(dp2167
sg81
g2152
sg74
(lp2168
g67
(g68
g69
NtRp2169
(dp2170
g72
(dp2171
g80
I5
ssg81
g2165
sg74
(lp2172
g67
(g76
g69
NtRp2173
(dp2174
g72
(dp2175
g80
I4
ssg81
Nsg74
(lp2176
sbasbasbasbag67
(g83
g69
NtRp2177
(dp2178
g72
(dp2179
sg81
g77
sg74
(lp2180
g67
(g88
g69
NtRp2181
(dp2182
g72
(dp2183
g92
g93
ssg81
g2177
sg74
(lp2184
S'is_https'
p2185
asbag67
(g88
g69
NtRp2186
(dp2187
g72
(dp2188
g99
g100
ssg81
g2177
sg74
(lp2189
S':'
asbag67
(g88
g69
NtRp2190
(dp2191
g72
(dp2192
sg81
g2177
sg74
(lp2193
g67
(g68
g69
NtRp2194
(dp2195
g72
(dp2196
g80
I5
ssg81
g2190
sg74
(lp2197
g110
asbasbasbag67
(g83
g69
NtRp2198
(dp2199
g72
(dp2200
sg81
g77
sg74
(lp2201
g67
(g88
g69
NtRp2202
(dp2203
g72
(dp2204
g92
g93
ssg81
g2198
sg74
(lp2205
S'is_local'
p2206
asbag67
(g88
g69
NtRp2207
(dp2208
g72
(dp2209
g99
g100
ssg81
g2198
sg74
(lp2210
S':'
asbag67
(g88
g69
NtRp2211
(dp2212
g72
(dp2213
sg81
g2198
sg74
(lp2214
g67
(g68
g69
NtRp2215
(dp2216
g72
(dp2217
g80
I5
ssg81
g2211
sg74
(lp2218
g1993
asbasbasbag67
(g83
g69
NtRp2219
(dp2220
g72
(dp2221
sg81
g77
sg74
(lp2222
g67
(g88
g69
NtRp2223
(dp2224
g72
(dp2225
g92
g93
ssg81
g2219
sg74
(lp2226
S'is_restful'
p2227
asbag67
(g88
g69
NtRp2228
(dp2229
g72
(dp2230
g99
g100
ssg81
g2219
sg74
(lp2231
S':'
asbag67
(g88
g69
NtRp2232
(dp2233
g72
(dp2234
sg81
g2219
sg74
(lp2235
g67
(g68
g69
NtRp2236
(dp2237
g72
(dp2238
g80
I5
ssg81
g2232
sg74
(lp2239
g110
asbasbasbag67
(g83
g69
NtRp2240
(dp2241
g72
(dp2242
sg81
g77
sg74
(lp2243
g67
(g88
g69
NtRp2244
(dp2245
g72
(dp2246
g92
g93
ssg81
g2240
sg74
(lp2247
S'now'
p2248
asbag67
(g88
g69
NtRp2249
(dp2250
g72
(dp2251
g99
g100
ssg81
g2240
sg74
(lp2252
S':'
asbag67
(g88
g69
NtRp2253
(dp2254
g72
(dp2255
sg81
g2240
sg74
(lp2256
g67
(g68
g69
NtRp2257
(dp2258
g72
(dp2259
g80
I5
ssg81
g2253
sg74
(lp2260
S'datetime.datetime(2011, 9, 10, 17, 45, 18, 727901)'
p2261
asbasbasbag67
(g83
g69
NtRp2262
(dp2263
g72
(dp2264
sg81
g77
sg74
(lp2265
g67
(g88
g69
NtRp2266
(dp2267
g72
(dp2268
g92
g93
ssg81
g2262
sg74
(lp2269
S'post_vars'
p2270
asbag67
(g88
g69
NtRp2271
(dp2272
g72
(dp2273
g99
g100
ssg81
g2262
sg74
(lp2274
S':'
asbag67
(g88
g69
NtRp2275
(dp2276
g72
(dp2277
sg81
g2262
sg74
(lp2278
g67
(g68
g69
NtRp2279
(dp2280
g72
(dp2281
g80
I5
ssg81
g2275
sg74
(lp2282
g67
(g76
g69
NtRp2283
(dp2284
g72
(dp2285
g80
I4
ssg81
Nsg74
(lp2286
sbasbasbasbag67
(g83
g69
NtRp2287
(dp2288
g72
(dp2289
sg81
g77
sg74
(lp2290
g67
(g88
g69
NtRp2291
(dp2292
g72
(dp2293
g92
g93
ssg81
g2287
sg74
(lp2294
S'url'
p2295
asbag67
(g88
g69
NtRp2296
(dp2297
g72
(dp2298
g99
g100
ssg81
g2287
sg74
(lp2299
S':'
asbag67
(g88
g69
NtRp2300
(dp2301
g72
(dp2302
sg81
g2287
sg74
(lp2303
g67
(g68
g69
NtRp2304
(dp2305
g72
(dp2306
g80
I5
ssg81
g2300
sg74
(lp2307
S'/proyecto/default/index'
p2308
asbasbasbag67
(g83
g69
NtRp2309
(dp2310
g72
(dp2311
sg81
g77
sg74
(lp2312
g67
(g88
g69
NtRp2313
(dp2314
g72
(dp2315
g92
g93
ssg81
g2309
sg74
(lp2316
S'uuid'
p2317
asbag67
(g88
g69
NtRp2318
(dp2319
g72
(dp2320
g99
g100
ssg81
g2309
sg74
(lp2321
S':'
asbag67
(g88
g69
NtRp2322
(dp2323
g72
(dp2324
sg81
g2309
sg74
(lp2325
g67
(g68
g69
NtRp2326
(dp2327
g72
(dp2328
g80
I5
ssg81
g2322
sg74
(lp2329
S'proyecto/127.0.0.1.2011-09-10.17-45-18.776124dd-08a3-4148-b6d9-f8dd9928b059'
p2330
asbasbasbag67
(g83
g69
NtRp2331
(dp2332
g72
(dp2333
sg81
g77
sg74
(lp2334
g67
(g88
g69
NtRp2335
(dp2336
g72
(dp2337
g92
g93
ssg81
g2331
sg74
(lp2338
S'vars'
p2339
asbag67
(g88
g69
NtRp2340
(dp2341
g72
(dp2342
g99
g100
ssg81
g2331
sg74
(lp2343
S':'
asbag67
(g88
g69
NtRp2344
(dp2345
g72
(dp2346
sg81
g2331
sg74
(lp2347
g67
(g68
g69
NtRp2348
(dp2349
g72
(dp2350
g80
I5
ssg81
g2344
sg74
(lp2351
g67
(g76
g69
NtRp2352
(dp2353
g72
(dp2354
g80
I4
ssg81
Nsg74
(lp2355
sbasbasbasbag67
(g83
g69
NtRp2356
(dp2357
g72
(dp2358
sg81
g77
sg74
(lp2359
g67
(g88
g69
NtRp2360
(dp2361
g72
(dp2362
g92
g93
ssg81
g2356
sg74
(lp2363
S'wsgi'
p2364
asbag67
(g88
g69
NtRp2365
(dp2366
g72
(dp2367
g99
g100
ssg81
g2356
sg74
(lp2368
S':'
asbag67
(g88
g69
NtRp2369
(dp2370
g72
(dp2371
sg81
g2356
sg74
(lp2372
g67
(g68
g69
NtRp2373
(dp2374
g72
(dp2375
g80
I5
ssg81
g2369
sg74
(lp2376
g67
(g76
g69
NtRp2377
(dp2378
g72
(dp2379
g80
I4
ssg81
Nsg74
(lp2380
g67
(g83
g69
NtRp2381
(dp2382
g72
(dp2383
sg81
g2377
sg74
(lp2384
g67
(g88
g69
NtRp2385
(dp2386
g72
(dp2387
g92
g93
ssg81
g2381
sg74
(lp2388
S'environ'
p2389
asbag67
(g88
g69
NtRp2390
(dp2391
g72
(dp2392
g99
g100
ssg81
g2381
sg74
(lp2393
S':'
asbag67
(g88
g69
NtRp2394
(dp2395
g72
(dp2396
sg81
g2381
sg74
(lp2397
g67
(g68
g69
NtRp2398
(dp2399
g72
(dp2400
g80
I4
ssg81
g2394
sg74
(lp2401
g67
(g76
g69
NtRp2402
(dp2403
g72
(dp2404
g80
I3
ssg81
Nsg74
(lp2405
g67
(g83
g69
NtRp2406
(dp2407
g72
(dp2408
sg81
g2402
sg74
(lp2409
g67
(g88
g69
NtRp2410
(dp2411
g72
(dp2412
g92
g93
ssg81
g2406
sg74
(lp2413
S'HTTP_ACCEPT'
p2414
asbag67
(g88
g69
NtRp2415
(dp2416
g72
(dp2417
g99
g100
ssg81
g2406
sg74
(lp2418
S':'
asbag67
(g88
g69
NtRp2419
(dp2420
g72
(dp2421
sg81
g2406
sg74
(lp2422
g67
(g68
g69
NtRp2423
(dp2424
g72
(dp2425
g80
I3
ssg81
g2419
sg74
(lp2426
g1383
asbasbasbag67
(g83
g69
NtRp2427
(dp2428
g72
(dp2429
sg81
g2402
sg74
(lp2430
g67
(g88
g69
NtRp2431
(dp2432
g72
(dp2433
g92
g93
ssg81
g2427
sg74
(lp2434
S'HTTP_ACCEPT_CHARSET'
p2435
asbag67
(g88
g69
NtRp2436
(dp2437
g72
(dp2438
g99
g100
ssg81
g2427
sg74
(lp2439
S':'
asbag67
(g88
g69
NtRp2440
(dp2441
g72
(dp2442
sg81
g2427
sg74
(lp2443
g67
(g68
g69
NtRp2444
(dp2445
g72
(dp2446
g80
I3
ssg81
g2440
sg74
(lp2447
g1405
asbasbasbag67
(g83
g69
NtRp2448
(dp2449
g72
(dp2450
sg81
g2402
sg74
(lp2451
g67
(g88
g69
NtRp2452
(dp2453
g72
(dp2454
g92
g93
ssg81
g2448
sg74
(lp2455
S'HTTP_ACCEPT_ENCODING'
p2456
asbag67
(g88
g69
NtRp2457
(dp2458
g72
(dp2459
g99
g100
ssg81
g2448
sg74
(lp2460
S':'
asbag67
(g88
g69
NtRp2461
(dp2462
g72
(dp2463
sg81
g2448
sg74
(lp2464
g67
(g68
g69
NtRp2465
(dp2466
g72
(dp2467
g80
I3
ssg81
g2461
sg74
(lp2468
g1427
asbasbasbag67
(g83
g69
NtRp2469
(dp2470
g72
(dp2471
sg81
g2402
sg74
(lp2472
g67
(g88
g69
NtRp2473
(dp2474
g72
(dp2475
g92
g93
ssg81
g2469
sg74
(lp2476
S'HTTP_ACCEPT_LANGUAGE'
p2477
asbag67
(g88
g69
NtRp2478
(dp2479
g72
(dp2480
g99
g100
ssg81
g2469
sg74
(lp2481
S':'
asbag67
(g88
g69
NtRp2482
(dp2483
g72
(dp2484
sg81
g2469
sg74
(lp2485
g67
(g68
g69
NtRp2486
(dp2487
g72
(dp2488
g80
I3
ssg81
g2482
sg74
(lp2489
g1449
asbasbasbag67
(g83
g69
NtRp2490
(dp2491
g72
(dp2492
sg81
g2402
sg74
(lp2493
g67
(g88
g69
NtRp2494
(dp2495
g72
(dp2496
g92
g93
ssg81
g2490
sg74
(lp2497
S'HTTP_CACHE_CONTROL'
p2498
asbag67
(g88
g69
NtRp2499
(dp2500
g72
(dp2501
g99
g100
ssg81
g2490
sg74
(lp2502
S':'
asbag67
(g88
g69
NtRp2503
(dp2504
g72
(dp2505
sg81
g2490
sg74
(lp2506
g67
(g68
g69
NtRp2507
(dp2508
g72
(dp2509
g80
I3
ssg81
g2503
sg74
(lp2510
g1471
asbasbasbag67
(g83
g69
NtRp2511
(dp2512
g72
(dp2513
sg81
g2402
sg74
(lp2514
g67
(g88
g69
NtRp2515
(dp2516
g72
(dp2517
g92
g93
ssg81
g2511
sg74
(lp2518
S'HTTP_CONNECTION'
p2519
asbag67
(g88
g69
NtRp2520
(dp2521
g72
(dp2522
g99
g100
ssg81
g2511
sg74
(lp2523
S':'
asbag67
(g88
g69
NtRp2524
(dp2525
g72
(dp2526
sg81
g2511
sg74
(lp2527
g67
(g68
g69
NtRp2528
(dp2529
g72
(dp2530
g80
I3
ssg81
g2524
sg74
(lp2531
g1493
asbasbasbag67
(g83
g69
NtRp2532
(dp2533
g72
(dp2534
sg81
g2402
sg74
(lp2535
g67
(g88
g69
NtRp2536
(dp2537
g72
(dp2538
g92
g93
ssg81
g2532
sg74
(lp2539
S'HTTP_COOKIE'
p2540
asbag67
(g88
g69
NtRp2541
(dp2542
g72
(dp2543
g99
g100
ssg81
g2532
sg74
(lp2544
S':'
asbag67
(g88
g69
NtRp2545
(dp2546
g72
(dp2547
sg81
g2532
sg74
(lp2548
g67
(g68
g69
NtRp2549
(dp2550
g72
(dp2551
g80
I3
ssg81
g2545
sg74
(lp2552
g1515
asbasbasbag67
(g83
g69
NtRp2553
(dp2554
g72
(dp2555
sg81
g2402
sg74
(lp2556
g67
(g88
g69
NtRp2557
(dp2558
g72
(dp2559
g92
g93
ssg81
g2553
sg74
(lp2560
S'HTTP_HOST'
p2561
asbag67
(g88
g69
NtRp2562
(dp2563
g72
(dp2564
g99
g100
ssg81
g2553
sg74
(lp2565
S':'
asbag67
(g88
g69
NtRp2566
(dp2567
g72
(dp2568
sg81
g2553
sg74
(lp2569
g67
(g68
g69
NtRp2570
(dp2571
g72
(dp2572
g80
I3
ssg81
g2566
sg74
(lp2573
g1537
asbasbasbag67
(g83
g69
NtRp2574
(dp2575
g72
(dp2576
sg81
g2402
sg74
(lp2577
g67
(g88
g69
NtRp2578
(dp2579
g72
(dp2580
g92
g93
ssg81
g2574
sg74
(lp2581
S'HTTP_REFERER'
p2582
asbag67
(g88
g69
NtRp2583
(dp2584
g72
(dp2585
g99
g100
ssg81
g2574
sg74
(lp2586
S':'
asbag67
(g88
g69
NtRp2587
(dp2588
g72
(dp2589
sg81
g2574
sg74
(lp2590
g67
(g68
g69
NtRp2591
(dp2592
g72
(dp2593
g80
I3
ssg81
g2587
sg74
(lp2594
g1559
asbasbasbag67
(g83
g69
NtRp2595
(dp2596
g72
(dp2597
sg81
g2402
sg74
(lp2598
g67
(g88
g69
NtRp2599
(dp2600
g72
(dp2601
g92
g93
ssg81
g2595
sg74
(lp2602
S'HTTP_USER_AGENT'
p2603
asbag67
(g88
g69
NtRp2604
(dp2605
g72
(dp2606
g99
g100
ssg81
g2595
sg74
(lp2607
S':'
asbag67
(g88
g69
NtRp2608
(dp2609
g72
(dp2610
sg81
g2595
sg74
(lp2611
g67
(g68
g69
NtRp2612
(dp2613
g72
(dp2614
g80
I3
ssg81
g2608
sg74
(lp2615
g1581
asbasbasbag67
(g83
g69
NtRp2616
(dp2617
g72
(dp2618
sg81
g2402
sg74
(lp2619
g67
(g88
g69
NtRp2620
(dp2621
g72
(dp2622
g92
g93
ssg81
g2616
sg74
(lp2623
S'PATH_INFO'
p2624
asbag67
(g88
g69
NtRp2625
(dp2626
g72
(dp2627
g99
g100
ssg81
g2616
sg74
(lp2628
S':'
asbag67
(g88
g69
NtRp2629
(dp2630
g72
(dp2631
sg81
g2616
sg74
(lp2632
g67
(g68
g69
NtRp2633
(dp2634
g72
(dp2635
g80
I3
ssg81
g2629
sg74
(lp2636
g1624
asbasbasbag67
(g83
g69
NtRp2637
(dp2638
g72
(dp2639
sg81
g2402
sg74
(lp2640
g67
(g88
g69
NtRp2641
(dp2642
g72
(dp2643
g92
g93
ssg81
g2637
sg74
(lp2644
S'QUERY_STRING'
p2645
asbag67
(g88
g69
NtRp2646
(dp2647
g72
(dp2648
g99
g100
ssg81
g2637
sg74
(lp2649
S':'
asbag67
(g88
g69
NtRp2650
(dp2651
g72
(dp2652
sg81
g2637
sg74
(lp2653
g67
(g68
g69
NtRp2654
(dp2655
g72
(dp2656
g80
I3
ssg81
g2650
sg74
(lp2657
S''
asbasbasbag67
(g83
g69
NtRp2658
(dp2659
g72
(dp2660
sg81
g2402
sg74
(lp2661
g67
(g88
g69
NtRp2662
(dp2663
g72
(dp2664
g92
g93
ssg81
g2658
sg74
(lp2665
S'REMOTE_ADDR'
p2666
asbag67
(g88
g69
NtRp2667
(dp2668
g72
(dp2669
g99
g100
ssg81
g2658
sg74
(lp2670
S':'
asbag67
(g88
g69
NtRp2671
(dp2672
g72
(dp2673
sg81
g2658
sg74
(lp2674
g67
(g68
g69
NtRp2675
(dp2676
g72
(dp2677
g80
I3
ssg81
g2671
sg74
(lp2678
g200
asbasbasbag67
(g83
g69
NtRp2679
(dp2680
g72
(dp2681
sg81
g2402
sg74
(lp2682
g67
(g88
g69
NtRp2683
(dp2684
g72
(dp2685
g92
g93
ssg81
g2679
sg74
(lp2686
S'REMOTE_PORT'
p2687
asbag67
(g88
g69
NtRp2688
(dp2689
g72
(dp2690
g99
g100
ssg81
g2679
sg74
(lp2691
S':'
asbag67
(g88
g69
NtRp2692
(dp2693
g72
(dp2694
sg81
g2679
sg74
(lp2695
g67
(g68
g69
NtRp2696
(dp2697
g72
(dp2698
g80
I3
ssg81
g2692
sg74
(lp2699
g1688
asbasbasbag67
(g83
g69
NtRp2700
(dp2701
g72
(dp2702
sg81
g2402
sg74
(lp2703
g67
(g88
g69
NtRp2704
(dp2705
g72
(dp2706
g92
g93
ssg81
g2700
sg74
(lp2707
S'REQUEST_METHOD'
p2708
asbag67
(g88
g69
NtRp2709
(dp2710
g72
(dp2711
g99
g100
ssg81
g2700
sg74
(lp2712
S':'
asbag67
(g88
g69
NtRp2713
(dp2714
g72
(dp2715
sg81
g2700
sg74
(lp2716
g67
(g68
g69
NtRp2717
(dp2718
g72
(dp2719
g80
I3
ssg81
g2713
sg74
(lp2720
g1710
asbasbasbag67
(g83
g69
NtRp2721
(dp2722
g72
(dp2723
sg81
g2402
sg74
(lp2724
g67
(g88
g69
NtRp2725
(dp2726
g72
(dp2727
g92
g93
ssg81
g2721
sg74
(lp2728
S'SCRIPT_NAME'
p2729
asbag67
(g88
g69
NtRp2730
(dp2731
g72
(dp2732
g99
g100
ssg81
g2721
sg74
(lp2733
S':'
asbag67
(g88
g69
NtRp2734
(dp2735
g72
(dp2736
sg81
g2721
sg74
(lp2737
g67
(g68
g69
NtRp2738
(dp2739
g72
(dp2740
g80
I3
ssg81
g2734
sg74
(lp2741
S''
asbasbasbag67
(g83
g69
NtRp2742
(dp2743
g72
(dp2744
sg81
g2402
sg74
(lp2745
g67
(g88
g69
NtRp2746
(dp2747
g72
(dp2748
g92
g93
ssg81
g2742
sg74
(lp2749
S'SERVER_NAME'
p2750
asbag67
(g88
g69
NtRp2751
(dp2752
g72
(dp2753
g99
g100
ssg81
g2742
sg74
(lp2754
S':'
asbag67
(g88
g69
NtRp2755
(dp2756
g72
(dp2757
sg81
g2742
sg74
(lp2758
g67
(g68
g69
NtRp2759
(dp2760
g72
(dp2761
g80
I3
ssg81
g2755
sg74
(lp2762
g1753
asbasbasbag67
(g83
g69
NtRp2763
(dp2764
g72
(dp2765
sg81
g2402
sg74
(lp2766
g67
(g88
g69
NtRp2767
(dp2768
g72
(dp2769
g92
g93
ssg81
g2763
sg74
(lp2770
S'SERVER_PORT'
p2771
asbag67
(g88
g69
NtRp2772
(dp2773
g72
(dp2774
g99
g100
ssg81
g2763
sg74
(lp2775
S':'
asbag67
(g88
g69
NtRp2776
(dp2777
g72
(dp2778
sg81
g2763
sg74
(lp2779
g67
(g68
g69
NtRp2780
(dp2781
g72
(dp2782
g80
I3
ssg81
g2776
sg74
(lp2783
g1775
asbasbasbag67
(g83
g69
NtRp2784
(dp2785
g72
(dp2786
sg81
g2402
sg74
(lp2787
g67
(g88
g69
NtRp2788
(dp2789
g72
(dp2790
g92
g93
ssg81
g2784
sg74
(lp2791
S'SERVER_PROTOCOL'
p2792
asbag67
(g88
g69
NtRp2793
(dp2794
g72
(dp2795
g99
g100
ssg81
g2784
sg74
(lp2796
S':'
asbag67
(g88
g69
NtRp2797
(dp2798
g72
(dp2799
sg81
g2784
sg74
(lp2800
g67
(g68
g69
NtRp2801
(dp2802
g72
(dp2803
g80
I3
ssg81
g2797
sg74
(lp2804
g1797
asbasbasbag67
(g83
g69
NtRp2805
(dp2806
g72
(dp2807
sg81
g2402
sg74
(lp2808
g67
(g88
g69
NtRp2809
(dp2810
g72
(dp2811
g92
g93
ssg81
g2805
sg74
(lp2812
S'SERVER_SOFTWARE'
p2813
asbag67
(g88
g69
NtRp2814
(dp2815
g72
(dp2816
g99
g100
ssg81
g2805
sg74
(lp2817
S':'
asbag67
(g88
g69
NtRp2818
(dp2819
g72
(dp2820
sg81
g2805
sg74
(lp2821
g67
(g68
g69
NtRp2822
(dp2823
g72
(dp2824
g80
I3
ssg81
g2818
sg74
(lp2825
g1819
asbasbasbag67
(g83
g69
NtRp2826
(dp2827
g72
(dp2828
sg81
g2402
sg74
(lp2829
g67
(g88
g69
NtRp2830
(dp2831
g72
(dp2832
g92
g93
ssg81
g2826
sg74
(lp2833
S'wsgi.errors'
p2834
asbag67
(g88
g69
NtRp2835
(dp2836
g72
(dp2837
g99
g100
ssg81
g2826
sg74
(lp2838
S':'
asbag67
(g88
g69
NtRp2839
(dp2840
g72
(dp2841
sg81
g2826
sg74
(lp2842
g67
(g68
g69
NtRp2843
(dp2844
g72
(dp2845
g80
I3
ssg81
g2839
sg74
(lp2846
S"<open file '<stderr>', mode 'w' at 0xb77aa0d0>"
p2847
asbasbasbag67
(g83
g69
NtRp2848
(dp2849
g72
(dp2850
sg81
g2402
sg74
(lp2851
g67
(g88
g69
NtRp2852
(dp2853
g72
(dp2854
g92
g93
ssg81
g2848
sg74
(lp2855
S'wsgi.file_wrapper'
p2856
asbag67
(g88
g69
NtRp2857
(dp2858
g72
(dp2859
g99
g100
ssg81
g2848
sg74
(lp2860
S':'
asbag67
(g88
g69
NtRp2861
(dp2862
g72
(dp2863
sg81
g2848
sg74
(lp2864
g67
(g68
g69
NtRp2865
(dp2866
g72
(dp2867
g80
I3
ssg81
g2861
sg74
(lp2868
S'<class gluon.rocket.FileWrapper at 0xa1b432c>'
p2869
asbasbasbag67
(g83
g69
NtRp2870
(dp2871
g72
(dp2872
sg81
g2402
sg74
(lp2873
g67
(g88
g69
NtRp2874
(dp2875
g72
(dp2876
g92
g93
ssg81
g2870
sg74
(lp2877
S'wsgi.input'
p2878
asbag67
(g88
g69
NtRp2879
(dp2880
g72
(dp2881
g99
g100
ssg81
g2870
sg74
(lp2882
S':'
asbag67
(g88
g69
NtRp2883
(dp2884
g72
(dp2885
sg81
g2870
sg74
(lp2886
g67
(g68
g69
NtRp2887
(dp2888
g72
(dp2889
g80
I3
ssg81
g2883
sg74
(lp2890
S'<cStringIO.StringO object at 0xabe3600>'
p2891
asbasbasbag67
(g83
g69
NtRp2892
(dp2893
g72
(dp2894
sg81
g2402
sg74
(lp2895
g67
(g88
g69
NtRp2896
(dp2897
g72
(dp2898
g92
g93
ssg81
g2892
sg74
(lp2899
S'wsgi.multiprocess'
p2900
asbag67
(g88
g69
NtRp2901
(dp2902
g72
(dp2903
g99
g100
ssg81
g2892
sg74
(lp2904
S':'
asbag67
(g88
g69
NtRp2905
(dp2906
g72
(dp2907
sg81
g2892
sg74
(lp2908
g67
(g68
g69
NtRp2909
(dp2910
g72
(dp2911
g80
I3
ssg81
g2905
sg74
(lp2912
g110
asbasbasbag67
(g83
g69
NtRp2913
(dp2914
g72
(dp2915
sg81
g2402
sg74
(lp2916
g67
(g88
g69
NtRp2917
(dp2918
g72
(dp2919
g92
g93
ssg81
g2913
sg74
(lp2920
S'wsgi.multithread'
p2921
asbag67
(g88
g69
NtRp2922
(dp2923
g72
(dp2924
g99
g100
ssg81
g2913
sg74
(lp2925
S':'
asbag67
(g88
g69
NtRp2926
(dp2927
g72
(dp2928
sg81
g2913
sg74
(lp2929
g67
(g68
g69
NtRp2930
(dp2931
g72
(dp2932
g80
I3
ssg81
g2926
sg74
(lp2933
g1993
asbasbasbag67
(g83
g69
NtRp2934
(dp2935
g72
(dp2936
sg81
g2402
sg74
(lp2937
g67
(g88
g69
NtRp2938
(dp2939
g72
(dp2940
g92
g93
ssg81
g2934
sg74
(lp2941
S'wsgi.run_once'
p2942
asbag67
(g88
g69
NtRp2943
(dp2944
g72
(dp2945
g99
g100
ssg81
g2934
sg74
(lp2946
S':'
asbag67
(g88
g69
NtRp2947
(dp2948
g72
(dp2949
sg81
g2934
sg74
(lp2950
g67
(g68
g69
NtRp2951
(dp2952
g72
(dp2953
g80
I3
ssg81
g2947
sg74
(lp2954
g110
asbasbasbag67
(g83
g69
NtRp2955
(dp2956
g72
(dp2957
sg81
g2402
sg74
(lp2958
g67
(g88
g69
NtRp2959
(dp2960
g72
(dp2961
g92
g93
ssg81
g2955
sg74
(lp2962
S'wsgi.url_scheme'
p2963
asbag67
(g88
g69
NtRp2964
(dp2965
g72
(dp2966
g99
g100
ssg81
g2955
sg74
(lp2967
S':'
asbag67
(g88
g69
NtRp2968
(dp2969
g72
(dp2970
sg81
g2955
sg74
(lp2971
g67
(g68
g69
NtRp2972
(dp2973
g72
(dp2974
g80
I3
ssg81
g2968
sg74
(lp2975
g2036
asbasbasbag67
(g83
g69
NtRp2976
(dp2977
g72
(dp2978
sg81
g2402
sg74
(lp2979
g67
(g88
g69
NtRp2980
(dp2981
g72
(dp2982
g92
g93
ssg81
g2976
sg74
(lp2983
S'wsgi.version'
p2984
asbag67
(g88
g69
NtRp2985
(dp2986
g72
(dp2987
g99
g100
ssg81
g2976
sg74
(lp2988
S':'
asbag67
(g88
g69
NtRp2989
(dp2990
g72
(dp2991
sg81
g2976
sg74
(lp2992
g67
(g68
g69
NtRp2993
(dp2994
g72
(dp2995
g80
I3
ssg81
g2989
sg74
(lp2996
S'1'
asbasbasbasbasbasbasbasbasbasbasbasbasbsS'frames'
p2997
(lp2998
(dp2999
S'file'
p3000
S'/home/alumno/web2py/gluon/restricted.py'
p3001
sS'dump'
p3002
(dp3003
S'code'
p3004
S"'# -*- coding: utf-8 -*-\\n# this file is released ...roducto)\\n\\nresponse._vars=response._caller(index)\\n'"
p3005
sS'layer'
p3006
S"'/home/alumno/web2py/applications/proyecto/controllers/default.py'"
p3007
sS'global compile2'
p3008
S'<function compile2>'
p3009
sS'ccode'
p3010
S'undefined'
p3011
ssS'lnum'
p3012
I191
sS'lines'
p3013
(dp3014
I192
S'        exec ccode in environment'
p3015
sI193
S'    except HTTP:'
p3016
sI194
S'        raise'
p3017
sI195
S'    except Exception, error:'
p3018
sI186
S"    environment['__file__'] = layer"
p3019
sI187
S'    try:'
p3020
sI188
S'        if type(code) == types.CodeType:'
p3021
sI189
S'            ccode = code'
p3022
sI190
S'        else:'
p3023
sI191
S'            ccode = compile2(code,layer)'
p3024
ssS'call'
p3025
S"(code='# -*- coding: utf-8 -*-\\n# this file is released ...roducto)\\n\\nresponse._vars=response._caller(index)\\n', environment={'A': <class 'gluon.html.A'>, 'B': <class 'gluon.html.B'>, 'BEAUTIFY': <class 'gluon.html.BEAUTIFY'>, 'BODY': <class 'gluon.html.BODY'>, 'BR': <class 'gluon.html.BR'>, 'BUTTON': <class 'gluon.html.BUTTON'>, 'CAT': <class 'gluon.html.CAT'>, 'CENTER': <class 'gluon.html.CENTER'>, 'CLEANUP': <class 'gluon.validators.CLEANUP'>, 'CODE': <class 'gluon.html.CODE'>, ...}, layer='/home/alumno/web2py/applications/proyecto/controllers/default.py')"
p3026
sS'func'
p3027
S'restricted'
p3028
sa(dp3029
g3000
S'/home/alumno/web2py/gluon/restricted.py'
p3030
sg3002
(dp3031
S'builtincompile'
p3032
S'<built-in function compile>'
p3033
sS'code'
p3034
S"'# -*- coding: utf-8 -*-\\n# this file is released ...roducto)\\n\\nresponse._vars=response._caller(index)\\n'"
p3035
sS'code.rstrip'
p3036
S'<built-in method rstrip of str object>'
p3037
sS').replace'
p3038
g3011
sS'layer'
p3039
S"'/home/alumno/web2py/applications/proyecto/controllers/default.py'"
p3040
ssg3012
I178
sg3013
(dp3041
I173
S''
sI174
S'def compile2(code,layer):'
p3042
sI175
S'    """'
p3043
sI176
S"    The +'\\n' is necessary else compile fails when code ends in a comment."
p3044
sI177
S'    """'
p3045
sI178
S"    return compile(code.rstrip().replace('\\r\\n','\\n')+'\\n', layer, 'exec')"
p3046
sI179
S''
sI180
S"def restricted(code, environment={}, layer='Unknown'):"
p3047
sI181
S'    """'
p3048
sI182
S'    runs code in environment and returns the output. if an exception occurs'
p3049
ssg3025
S"(code='# -*- coding: utf-8 -*-\\n# this file is released ...roducto)\\n\\nresponse._vars=response._caller(index)\\n', layer='/home/alumno/web2py/applications/proyecto/controllers/default.py')"
p3050
sg3027
S'compile2'
p3051
sasS'pyver'
p3052
S'Python 2.6.6: /usr/bin/python'
p3053
sS'session'
p3054
g67
(g68
g69
NtRp3055
(dp3056
g72
(dp3057
sg74
(lp3058
g67
(g76
g69
NtRp3059
(dp3060
g72
(dp3061
g80
I5
ssg81
Nsg74
(lp3062
g67
(g83
g69
NtRp3063
(dp3064
g72
(dp3065
sg81
g3059
sg74
(lp3066
g67
(g88
g69
NtRp3067
(dp3068
g72
(dp3069
g92
g93
ssg81
g3063
sg74
(lp3070
S'last_query'
p3071
asbag67
(g88
g69
NtRp3072
(dp3073
g72
(dp3074
g99
g100
ssg81
g3063
sg74
(lp3075
S':'
asbag67
(g88
g69
NtRp3076
(dp3077
g72
(dp3078
sg81
g3063
sg74
(lp3079
g67
(g68
g69
NtRp3080
(dp3081
g72
(dp3082
g80
I5
ssg81
g3076
sg74
(lp3083
S'db.producto.id>0'
p3084
asbasbasbasbasbsS'etype'
p3085
S"<type 'exceptions.IndentationError'>"
p3086
sS'date'
p3087
S'Sat Sep 10 17:45:18 2011'
p3088
sS'response'
p3089
g67
(g68
g69
NtRp3090
(dp3091
g72
(dp3092
sg74
(lp3093
g67
(g76
g69
NtRp3094
(dp3095
g72
(dp3096
g80
I5
ssg81
Nsg74
(lp3097
g67
(g83
g69
NtRp3098
(dp3099
g72
(dp3100
sg81
g3094
sg74
(lp3101
g67
(g88
g69
NtRp3102
(dp3103
g72
(dp3104
g92
g93
ssg81
g3098
sg74
(lp3105
g165
asbag67
(g88
g69
NtRp3106
(dp3107
g72
(dp3108
g99
g100
ssg81
g3098
sg74
(lp3109
S':'
asbag67
(g88
g69
NtRp3110
(dp3111
g72
(dp3112
sg81
g3098
sg74
(lp3113
g67
(g68
g69
NtRp3114
(dp3115
g72
(dp3116
g80
I5
ssg81
g3110
sg74
(lp3117
S'<cStringIO.StringO object at 0xa091860>'
p3118
asbasbasbag67
(g83
g69
NtRp3119
(dp3120
g72
(dp3121
sg81
g3094
sg74
(lp3122
g67
(g88
g69
NtRp3123
(dp3124
g72
(dp3125
g92
g93
ssg81
g3119
sg74
(lp3126
g231
asbag67
(g88
g69
NtRp3127
(dp3128
g72
(dp3129
g99
g100
ssg81
g3119
sg74
(lp3130
S':'
asbag67
(g88
g69
NtRp3131
(dp3132
g72
(dp3133
sg81
g3119
sg74
(lp3134
g67
(g68
g69
NtRp3135
(dp3136
g72
(dp3137
g80
I5
ssg81
g3131
sg74
(lp3138
g67
(g76
g69
NtRp3139
(dp3140
g72
(dp3141
g80
I4
ssg81
Nsg74
(lp3142
g67
(g83
g69
NtRp3143
(dp3144
g72
(dp3145
sg81
g3139
sg74
(lp3146
g67
(g88
g69
NtRp3147
(dp3148
g72
(dp3149
g92
g93
ssg81
g3143
sg74
(lp3150
S'session_id_proyecto'
p3151
asbag67
(g88
g69
NtRp3152
(dp3153
g72
(dp3154
g99
g100
ssg81
g3143
sg74
(lp3155
S':'
asbag67
(g88
g69
NtRp3156
(dp3157
g72
(dp3158
sg81
g3143
sg74
(lp3159
g67
(g68
g69
NtRp3160
(dp3161
g72
(dp3162
g80
I4
ssg81
g3156
sg74
(lp3163
g67
(g76
g69
NtRp3164
(dp3165
g72
(dp3166
g80
I3
ssg81
Nsg74
(lp3167
g67
(g83
g69
NtRp3168
(dp3169
g72
(dp3170
sg81
g3164
sg74
(lp3171
g67
(g88
g69
NtRp3172
(dp3173
g72
(dp3174
g92
g93
ssg81
g3168
sg74
(lp3175
g281
asbag67
(g88
g69
NtRp3176
(dp3177
g72
(dp3178
g99
g100
ssg81
g3168
sg74
(lp3179
S':'
asbag67
(g88
g69
NtRp3180
(dp3181
g72
(dp3182
sg81
g3168
sg74
(lp3183
g67
(g68
g69
NtRp3184
(dp3185
g72
(dp3186
g80
I3
ssg81
g3180
sg74
(lp3187
S''
asbasbasbag67
(g83
g69
NtRp3188
(dp3189
g72
(dp3190
sg81
g3164
sg74
(lp3191
g67
(g88
g69
NtRp3192
(dp3193
g72
(dp3194
g92
g93
ssg81
g3188
sg74
(lp3195
g302
asbag67
(g88
g69
NtRp3196
(dp3197
g72
(dp3198
g99
g100
ssg81
g3188
sg74
(lp3199
S':'
asbag67
(g88
g69
NtRp3200
(dp3201
g72
(dp3202
sg81
g3188
sg74
(lp3203
g67
(g68
g69
NtRp3204
(dp3205
g72
(dp3206
g80
I3
ssg81
g3200
sg74
(lp3207
S''
asbasbasbag67
(g83
g69
NtRp3208
(dp3209
g72
(dp3210
sg81
g3164
sg74
(lp3211
g67
(g88
g69
NtRp3212
(dp3213
g72
(dp3214
g92
g93
ssg81
g3208
sg74
(lp3215
g323
asbag67
(g88
g69
NtRp3216
(dp3217
g72
(dp3218
g99
g100
ssg81
g3208
sg74
(lp3219
S':'
asbag67
(g88
g69
NtRp3220
(dp3221
g72
(dp3222
sg81
g3208
sg74
(lp3223
g67
(g68
g69
NtRp3224
(dp3225
g72
(dp3226
g80
I3
ssg81
g3220
sg74
(lp3227
S''
asbasbasbag67
(g83
g69
NtRp3228
(dp3229
g72
(dp3230
sg81
g3164
sg74
(lp3231
g67
(g88
g69
NtRp3232
(dp3233
g72
(dp3234
g92
g93
ssg81
g3228
sg74
(lp3235
g344
asbag67
(g88
g69
NtRp3236
(dp3237
g72
(dp3238
g99
g100
ssg81
g3228
sg74
(lp3239
S':'
asbag67
(g88
g69
NtRp3240
(dp3241
g72
(dp3242
sg81
g3228
sg74
(lp3243
g67
(g68
g69
NtRp3244
(dp3245
g72
(dp3246
g80
I3
ssg81
g3240
sg74
(lp3247
S''
asbasbasbag67
(g83
g69
NtRp3248
(dp3249
g72
(dp3250
sg81
g3164
sg74
(lp3251
g67
(g88
g69
NtRp3252
(dp3253
g72
(dp3254
g92
g93
ssg81
g3248
sg74
(lp3255
g365
asbag67
(g88
g69
NtRp3256
(dp3257
g72
(dp3258
g99
g100
ssg81
g3248
sg74
(lp3259
S':'
asbag67
(g88
g69
NtRp3260
(dp3261
g72
(dp3262
sg81
g3248
sg74
(lp3263
g67
(g68
g69
NtRp3264
(dp3265
g72
(dp3266
g80
I3
ssg81
g3260
sg74
(lp3267
S''
asbasbasbag67
(g83
g69
NtRp3268
(dp3269
g72
(dp3270
sg81
g3164
sg74
(lp3271
g67
(g88
g69
NtRp3272
(dp3273
g72
(dp3274
g92
g93
ssg81
g3268
sg74
(lp3275
g386
asbag67
(g88
g69
NtRp3276
(dp3277
g72
(dp3278
g99
g100
ssg81
g3268
sg74
(lp3279
S':'
asbag67
(g88
g69
NtRp3280
(dp3281
g72
(dp3282
sg81
g3268
sg74
(lp3283
g67
(g68
g69
NtRp3284
(dp3285
g72
(dp3286
g80
I3
ssg81
g3280
sg74
(lp3287
S'/'
asbasbasbag67
(g83
g69
NtRp3288
(dp3289
g72
(dp3290
sg81
g3164
sg74
(lp3291
g67
(g88
g69
NtRp3292
(dp3293
g72
(dp3294
g92
g93
ssg81
g3288
sg74
(lp3295
g407
asbag67
(g88
g69
NtRp3296
(dp3297
g72
(dp3298
g99
g100
ssg81
g3288
sg74
(lp3299
S':'
asbag67
(g88
g69
NtRp3300
(dp3301
g72
(dp3302
sg81
g3288
sg74
(lp3303
g67
(g68
g69
NtRp3304
(dp3305
g72
(dp3306
g80
I3
ssg81
g3300
sg74
(lp3307
S''
asbasbasbag67
(g83
g69
NtRp3308
(dp3309
g72
(dp3310
sg81
g3164
sg74
(lp3311
g67
(g88
g69
NtRp3312
(dp3313
g72
(dp3314
g92
g93
ssg81
g3308
sg74
(lp3315
g428
asbag67
(g88
g69
NtRp3316
(dp3317
g72
(dp3318
g99
g100
ssg81
g3308
sg74
(lp3319
S':'
asbag67
(g88
g69
NtRp3320
(dp3321
g72
(dp3322
sg81
g3308
sg74
(lp3323
g67
(g68
g69
NtRp3324
(dp3325
g72
(dp3326
g80
I3
ssg81
g3320
sg74
(lp3327
S''
asbasbasbasbasbasbasbasbasbasbasbag67
(g83
g69
NtRp3328
(dp3329
g72
(dp3330
sg81
g3094
sg74
(lp3331
g67
(g88
g69
NtRp3332
(dp3333
g72
(dp3334
g92
g93
ssg81
g3328
sg74
(lp3335
S'files'
p3336
asbag67
(g88
g69
NtRp3337
(dp3338
g72
(dp3339
g99
g100
ssg81
g3328
sg74
(lp3340
S':'
asbag67
(g88
g69
NtRp3341
(dp3342
g72
(dp3343
sg81
g3328
sg74
(lp3344
g67
(g68
g69
NtRp3345
(dp3346
g72
(dp3347
g80
I5
ssg81
g3341
sg74
(lp3348
g67
(g76
g69
NtRp3349
(dp3350
g72
(dp3351
g80
I4
ssg81
Nsg74
(lp3352
sbasbasbasbag67
(g83
g69
NtRp3353
(dp3354
g72
(dp3355
sg81
g3094
sg74
(lp3356
g67
(g88
g69
NtRp3357
(dp3358
g72
(dp3359
g92
g93
ssg81
g3353
sg74
(lp3360
S'flash'
p3361
asbag67
(g88
g69
NtRp3362
(dp3363
g72
(dp3364
g99
g100
ssg81
g3353
sg74
(lp3365
S':'
asbag67
(g88
g69
NtRp3366
(dp3367
g72
(dp3368
sg81
g3353
sg74
(lp3369
g67
(g68
g69
NtRp3370
(dp3371
g72
(dp3372
g80
I5
ssg81
g3366
sg74
(lp3373
S''
asbasbasbag67
(g83
g69
NtRp3374
(dp3375
g72
(dp3376
sg81
g3094
sg74
(lp3377
g67
(g88
g69
NtRp3378
(dp3379
g72
(dp3380
g92
g93
ssg81
g3374
sg74
(lp3381
S'generic_patterns'
p3382
asbag67
(g88
g69
NtRp3383
(dp3384
g72
(dp3385
g99
g100
ssg81
g3374
sg74
(lp3386
S':'
asbag67
(g88
g69
NtRp3387
(dp3388
g72
(dp3389
sg81
g3374
sg74
(lp3390
g67
(g68
g69
NtRp3391
(dp3392
g72
(dp3393
g80
I5
ssg81
g3387
sg74
(lp3394
g67
(g76
g69
NtRp3395
(dp3396
g72
(dp3397
g80
I4
ssg81
Nsg74
(lp3398
sbasbasbasbag67
(g83
g69
NtRp3399
(dp3400
g72
(dp3401
sg81
g3094
sg74
(lp3402
g67
(g88
g69
NtRp3403
(dp3404
g72
(dp3405
g92
g93
ssg81
g3399
sg74
(lp3406
S'headers'
p3407
asbag67
(g88
g69
NtRp3408
(dp3409
g72
(dp3410
g99
g100
ssg81
g3399
sg74
(lp3411
S':'
asbag67
(g88
g69
NtRp3412
(dp3413
g72
(dp3414
sg81
g3399
sg74
(lp3415
g67
(g68
g69
NtRp3416
(dp3417
g72
(dp3418
g80
I5
ssg81
g3412
sg74
(lp3419
g67
(g76
g69
NtRp3420
(dp3421
g72
(dp3422
g80
I4
ssg81
Nsg74
(lp3423
g67
(g83
g69
NtRp3424
(dp3425
g72
(dp3426
sg81
g3420
sg74
(lp3427
g67
(g88
g69
NtRp3428
(dp3429
g72
(dp3430
g92
g93
ssg81
g3424
sg74
(lp3431
S'Cache-Control'
p3432
asbag67
(g88
g69
NtRp3433
(dp3434
g72
(dp3435
g99
g100
ssg81
g3424
sg74
(lp3436
S':'
asbag67
(g88
g69
NtRp3437
(dp3438
g72
(dp3439
sg81
g3424
sg74
(lp3440
g67
(g68
g69
NtRp3441
(dp3442
g72
(dp3443
g80
I4
ssg81
g3437
sg74
(lp3444
S'no-store, no-cache, must-revalidate, post-check=0, pre-check=0'
p3445
asbasbasbag67
(g83
g69
NtRp3446
(dp3447
g72
(dp3448
sg81
g3420
sg74
(lp3449
g67
(g88
g69
NtRp3450
(dp3451
g72
(dp3452
g92
g93
ssg81
g3446
sg74
(lp3453
S'Content-Type'
p3454
asbag67
(g88
g69
NtRp3455
(dp3456
g72
(dp3457
g99
g100
ssg81
g3446
sg74
(lp3458
S':'
asbag67
(g88
g69
NtRp3459
(dp3460
g72
(dp3461
sg81
g3446
sg74
(lp3462
g67
(g68
g69
NtRp3463
(dp3464
g72
(dp3465
g80
I4
ssg81
g3459
sg74
(lp3466
S'text/html; charset=utf-8'
p3467
asbasbasbag67
(g83
g69
NtRp3468
(dp3469
g72
(dp3470
sg81
g3420
sg74
(lp3471
g67
(g88
g69
NtRp3472
(dp3473
g72
(dp3474
g92
g93
ssg81
g3468
sg74
(lp3475
S'Expires'
p3476
asbag67
(g88
g69
NtRp3477
(dp3478
g72
(dp3479
g99
g100
ssg81
g3468
sg74
(lp3480
S':'
asbag67
(g88
g69
NtRp3481
(dp3482
g72
(dp3483
sg81
g3468
sg74
(lp3484
g67
(g68
g69
NtRp3485
(dp3486
g72
(dp3487
g80
I4
ssg81
g3481
sg74
(lp3488
S'Sat, 10 Sep 2011 22:45:18 GMT'
p3489
asbasbasbag67
(g83
g69
NtRp3490
(dp3491
g72
(dp3492
sg81
g3420
sg74
(lp3493
g67
(g88
g69
NtRp3494
(dp3495
g72
(dp3496
g92
g93
ssg81
g3490
sg74
(lp3497
S'Pragma'
p3498
asbag67
(g88
g69
NtRp3499
(dp3500
g72
(dp3501
g99
g100
ssg81
g3490
sg74
(lp3502
S':'
asbag67
(g88
g69
NtRp3503
(dp3504
g72
(dp3505
sg81
g3490
sg74
(lp3506
g67
(g68
g69
NtRp3507
(dp3508
g72
(dp3509
g80
I4
ssg81
g3503
sg74
(lp3510
S'no-cache'
p3511
asbasbasbag67
(g83
g69
NtRp3512
(dp3513
g72
(dp3514
sg81
g3420
sg74
(lp3515
g67
(g88
g69
NtRp3516
(dp3517
g72
(dp3518
g92
g93
ssg81
g3512
sg74
(lp3519
S'X-Powered-By'
p3520
asbag67
(g88
g69
NtRp3521
(dp3522
g72
(dp3523
g99
g100
ssg81
g3512
sg74
(lp3524
S':'
asbag67
(g88
g69
NtRp3525
(dp3526
g72
(dp3527
sg81
g3512
sg74
(lp3528
g67
(g68
g69
NtRp3529
(dp3530
g72
(dp3531
g80
I4
ssg81
g3525
sg74
(lp3532
S'web2py'
p3533
asbasbasbasbasbasbasbag67
(g83
g69
NtRp3534
(dp3535
g72
(dp3536
sg81
g3094
sg74
(lp3537
g67
(g88
g69
NtRp3538
(dp3539
g72
(dp3540
g92
g93
ssg81
g3534
sg74
(lp3541
S'menu'
p3542
asbag67
(g88
g69
NtRp3543
(dp3544
g72
(dp3545
g99
g100
ssg81
g3534
sg74
(lp3546
S':'
asbag67
(g88
g69
NtRp3547
(dp3548
g72
(dp3549
sg81
g3534
sg74
(lp3550
g67
(g68
g69
NtRp3551
(dp3552
g72
(dp3553
g80
I5
ssg81
g3547
sg74
(lp3554
g67
(g76
g69
NtRp3555
(dp3556
g72
(dp3557
g80
I4
ssg81
Nsg74
(lp3558
g67
(g83
g69
NtRp3559
(dp3560
g72
(dp3561
sg81
g3555
sg74
(lp3562
g67
(g88
g69
NtRp3563
(dp3564
g72
(dp3565
sg81
g3559
sg74
(lp3566
g67
(g68
g69
NtRp3567
(dp3568
g72
(dp3569
g80
I4
ssg81
g3563
sg74
(lp3570
g67
(g76
g69
NtRp3571
(dp3572
g72
(dp3573
g80
I3
ssg81
Nsg74
(lp3574
g67
(g83
g69
NtRp3575
(dp3576
g72
(dp3577
sg81
g3571
sg74
(lp3578
g67
(g88
g69
NtRp3579
(dp3580
g72
(dp3581
sg81
g3575
sg74
(lp3582
g67
(g68
g69
NtRp3583
(dp3584
g72
(dp3585
g80
I3
ssg81
g3579
sg74
(lp3586
cgluon.languages
lazyT_unpickle
p3587
(S's\x04\x00\x00\x00Home'
tRp3588
asbasbasbag67
(g83
g69
NtRp3589
(dp3590
g72
(dp3591
sg81
g3571
sg74
(lp3592
g67
(g88
g69
NtRp3593
(dp3594
g72
(dp3595
sg81
g3589
sg74
(lp3596
g67
(g68
g69
NtRp3597
(dp3598
g72
(dp3599
g80
I3
ssg81
g3593
sg74
(lp3600
g110
asbasbasbag67
(g83
g69
NtRp3601
(dp3602
g72
(dp3603
sg81
g3571
sg74
(lp3604
g67
(g88
g69
NtRp3605
(dp3606
g72
(dp3607
sg81
g3601
sg74
(lp3608
g67
(g68
g69
NtRp3609
(dp3610
g72
(dp3611
g80
I3
ssg81
g3605
sg74
(lp3612
S'/proyecto/default/index'
p3613
asbasbasbag67
(g83
g69
NtRp3614
(dp3615
g72
(dp3616
sg81
g3571
sg74
(lp3617
g67
(g88
g69
NtRp3618
(dp3619
g72
(dp3620
sg81
g3614
sg74
(lp3621
g67
(g68
g69
NtRp3622
(dp3623
g72
(dp3624
g80
I3
ssg81
g3618
sg74
(lp3625
g67
(g76
g69
NtRp3626
(dp3627
g72
(dp3628
g80
I2
ssg81
Nsg74
(lp3629
sbasbasbasbasbasbasbasbag67
(g83
g69
NtRp3630
(dp3631
g72
(dp3632
sg81
g3555
sg74
(lp3633
g67
(g88
g69
NtRp3634
(dp3635
g72
(dp3636
sg81
g3630
sg74
(lp3637
g67
(g68
g69
NtRp3638
(dp3639
g72
(dp3640
g80
I4
ssg81
g3634
sg74
(lp3641
g67
(g76
g69
NtRp3642
(dp3643
g72
(dp3644
g80
I3
ssg81
Nsg74
(lp3645
g67
(g83
g69
NtRp3646
(dp3647
g72
(dp3648
sg81
g3642
sg74
(lp3649
g67
(g88
g69
NtRp3650
(dp3651
g72
(dp3652
sg81
g3646
sg74
(lp3653
g67
(g68
g69
NtRp3654
(dp3655
g72
(dp3656
g80
I3
ssg81
g3650
sg74
(lp3657
g3587
(S's\x08\x00\x00\x00This App'
tRp3658
asbasbasbag67
(g83
g69
NtRp3659
(dp3660
g72
(dp3661
sg81
g3642
sg74
(lp3662
g67
(g88
g69
NtRp3663
(dp3664
g72
(dp3665
sg81
g3659
sg74
(lp3666
g67
(g68
g69
NtRp3667
(dp3668
g72
(dp3669
g80
I3
ssg81
g3663
sg74
(lp3670
g110
asbasbasbag67
(g83
g69
NtRp3671
(dp3672
g72
(dp3673
sg81
g3642
sg74
(lp3674
g67
(g88
g69
NtRp3675
(dp3676
g72
(dp3677
sg81
g3671
sg74
(lp3678
g67
(g68
g69
NtRp3679
(dp3680
g72
(dp3681
g80
I3
ssg81
g3675
sg74
(lp3682
S'/admin/default/design/proyecto'
p3683
asbasbasbag67
(g83
g69
NtRp3684
(dp3685
g72
(dp3686
sg81
g3642
sg74
(lp3687
g67
(g88
g69
NtRp3688
(dp3689
g72
(dp3690
sg81
g3684
sg74
(lp3691
g67
(g68
g69
NtRp3692
(dp3693
g72
(dp3694
g80
I3
ssg81
g3688
sg74
(lp3695
g67
(g76
g69
NtRp3696
(dp3697
g72
(dp3698
g80
I2
ssg81
Nsg74
(lp3699
g67
(g83
g69
NtRp3700
(dp3701
g72
(dp3702
sg81
g3696
sg74
(lp3703
g67
(g88
g69
NtRp3704
(dp3705
g72
(dp3706
sg81
g3700
sg74
(lp3707
g67
(g68
g69
NtRp3708
(dp3709
g72
(dp3710
g80
I2
ssg81
g3704
sg74
(lp3711
g67
(g76
g69
NtRp3712
(dp3713
g72
(dp3714
g80
I1
ssg81
Nsg74
(lp3715
g67
(g83
g69
NtRp3716
(dp3717
g72
(dp3718
sg81
g3712
sg74
(lp3719
g67
(g88
g69
NtRp3720
(dp3721
g72
(dp3722
sg81
g3716
sg74
(lp3723
g67
(g68
g69
NtRp3724
(dp3725
g72
(dp3726
g80
I1
ssg81
g3720
sg74
(lp3727
g3587
(S's\n\x00\x00\x00Controller'
tRp3728
asbasbasbag67
(g83
g69
NtRp3729
(dp3730
g72
(dp3731
sg81
g3712
sg74
(lp3732
g67
(g88
g69
NtRp3733
(dp3734
g72
(dp3735
sg81
g3729
sg74
(lp3736
g67
(g68
g69
NtRp3737
(dp3738
g72
(dp3739
g80
I1
ssg81
g3733
sg74
(lp3740
I00
asbasbasbag67
(g83
g69
NtRp3741
(dp3742
g72
(dp3743
sg81
g3712
sg74
(lp3744
g67
(g88
g69
NtRp3745
(dp3746
g72
(dp3747
sg81
g3741
sg74
(lp3748
g67
(g68
g69
NtRp3749
(dp3750
g72
(dp3751
g80
I1
ssg81
g3745
sg74
(lp3752
S'/admin/default/edit/proyecto/controllers/default.py'
p3753
asbasbasbasbasbasbasbag67
(g83
g69
NtRp3754
(dp3755
g72
(dp3756
sg81
g3696
sg74
(lp3757
g67
(g88
g69
NtRp3758
(dp3759
g72
(dp3760
sg81
g3754
sg74
(lp3761
g67
(g68
g69
NtRp3762
(dp3763
g72
(dp3764
g80
I2
ssg81
g3758
sg74
(lp3765
g67
(g76
g69
NtRp3766
(dp3767
g72
(dp3768
g80
I1
ssg81
Nsg74
(lp3769
g67
(g83
g69
NtRp3770
(dp3771
g72
(dp3772
sg81
g3766
sg74
(lp3773
g67
(g88
g69
NtRp3774
(dp3775
g72
(dp3776
sg81
g3770
sg74
(lp3777
g67
(g68
g69
NtRp3778
(dp3779
g72
(dp3780
g80
I1
ssg81
g3774
sg74
(lp3781
g3587
(S's\x04\x00\x00\x00View'
tRp3782
asbasbasbag67
(g83
g69
NtRp3783
(dp3784
g72
(dp3785
sg81
g3766
sg74
(lp3786
g67
(g88
g69
NtRp3787
(dp3788
g72
(dp3789
sg81
g3783
sg74
(lp3790
g67
(g68
g69
NtRp3791
(dp3792
g72
(dp3793
g80
I1
ssg81
g3787
sg74
(lp3794
I00
asbasbasbag67
(g83
g69
NtRp3795
(dp3796
g72
(dp3797
sg81
g3766
sg74
(lp3798
g67
(g88
g69
NtRp3799
(dp3800
g72
(dp3801
sg81
g3795
sg74
(lp3802
g67
(g68
g69
NtRp3803
(dp3804
g72
(dp3805
g80
I1
ssg81
g3799
sg74
(lp3806
S'/admin/default/edit/proyecto/views/default/index.html'
p3807
asbasbasbasbasbasbasbag67
(g83
g69
NtRp3808
(dp3809
g72
(dp3810
sg81
g3696
sg74
(lp3811
g67
(g88
g69
NtRp3812
(dp3813
g72
(dp3814
sg81
g3808
sg74
(lp3815
g67
(g68
g69
NtRp3816
(dp3817
g72
(dp3818
g80
I2
ssg81
g3812
sg74
(lp3819
g67
(g76
g69
NtRp3820
(dp3821
g72
(dp3822
g80
I1
ssg81
Nsg74
(lp3823
g67
(g83
g69
NtRp3824
(dp3825
g72
(dp3826
sg81
g3820
sg74
(lp3827
g67
(g88
g69
NtRp3828
(dp3829
g72
(dp3830
sg81
g3824
sg74
(lp3831
g67
(g68
g69
NtRp3832
(dp3833
g72
(dp3834
g80
I1
ssg81
g3828
sg74
(lp3835
g3587
(S's\x06\x00\x00\x00Layout'
tRp3836
asbasbasbag67
(g83
g69
NtRp3837
(dp3838
g72
(dp3839
sg81
g3820
sg74
(lp3840
g67
(g88
g69
NtRp3841
(dp3842
g72
(dp3843
sg81
g3837
sg74
(lp3844
g67
(g68
g69
NtRp3845
(dp3846
g72
(dp3847
g80
I1
ssg81
g3841
sg74
(lp3848
I00
asbasbasbag67
(g83
g69
NtRp3849
(dp3850
g72
(dp3851
sg81
g3820
sg74
(lp3852
g67
(g88
g69
NtRp3853
(dp3854
g72
(dp3855
sg81
g3849
sg74
(lp3856
g67
(g68
g69
NtRp3857
(dp3858
g72
(dp3859
g80
I1
ssg81
g3853
sg74
(lp3860
S'/admin/default/edit/proyecto/views/layout.html'
p3861
asbasbasbasbasbasbasbag67
(g83
g69
NtRp3862
(dp3863
g72
(dp3864
sg81
g3696
sg74
(lp3865
g67
(g88
g69
NtRp3866
(dp3867
g72
(dp3868
sg81
g3862
sg74
(lp3869
g67
(g68
g69
NtRp3870
(dp3871
g72
(dp3872
g80
I2
ssg81
g3866
sg74
(lp3873
g67
(g76
g69
NtRp3874
(dp3875
g72
(dp3876
g80
I1
ssg81
Nsg74
(lp3877
g67
(g83
g69
NtRp3878
(dp3879
g72
(dp3880
sg81
g3874
sg74
(lp3881
g67
(g88
g69
NtRp3882
(dp3883
g72
(dp3884
sg81
g3878
sg74
(lp3885
g67
(g68
g69
NtRp3886
(dp3887
g72
(dp3888
g80
I1
ssg81
g3882
sg74
(lp3889
g3587
(S's\n\x00\x00\x00Stylesheet'
tRp3890
asbasbasbag67
(g83
g69
NtRp3891
(dp3892
g72
(dp3893
sg81
g3874
sg74
(lp3894
g67
(g88
g69
NtRp3895
(dp3896
g72
(dp3897
sg81
g3891
sg74
(lp3898
g67
(g68
g69
NtRp3899
(dp3900
g72
(dp3901
g80
I1
ssg81
g3895
sg74
(lp3902
I00
asbasbasbag67
(g83
g69
NtRp3903
(dp3904
g72
(dp3905
sg81
g3874
sg74
(lp3906
g67
(g88
g69
NtRp3907
(dp3908
g72
(dp3909
sg81
g3903
sg74
(lp3910
g67
(g68
g69
NtRp3911
(dp3912
g72
(dp3913
g80
I1
ssg81
g3907
sg74
(lp3914
S'/admin/default/edit/proyecto/static/base.css'
p3915
asbasbasbasbasbasbasbag67
(g83
g69
NtRp3916
(dp3917
g72
(dp3918
sg81
g3696
sg74
(lp3919
g67
(g88
g69
NtRp3920
(dp3921
g72
(dp3922
sg81
g3916
sg74
(lp3923
g67
(g68
g69
NtRp3924
(dp3925
g72
(dp3926
g80
I2
ssg81
g3920
sg74
(lp3927
g67
(g76
g69
NtRp3928
(dp3929
g72
(dp3930
g80
I1
ssg81
Nsg74
(lp3931
g67
(g83
g69
NtRp3932
(dp3933
g72
(dp3934
sg81
g3928
sg74
(lp3935
g67
(g88
g69
NtRp3936
(dp3937
g72
(dp3938
sg81
g3932
sg74
(lp3939
g67
(g68
g69
NtRp3940
(dp3941
g72
(dp3942
g80
I1
ssg81
g3936
sg74
(lp3943
g3587
(S's\x08\x00\x00\x00DB Model'
tRp3944
asbasbasbag67
(g83
g69
NtRp3945
(dp3946
g72
(dp3947
sg81
g3928
sg74
(lp3948
g67
(g88
g69
NtRp3949
(dp3950
g72
(dp3951
sg81
g3945
sg74
(lp3952
g67
(g68
g69
NtRp3953
(dp3954
g72
(dp3955
g80
I1
ssg81
g3949
sg74
(lp3956
I00
asbasbasbag67
(g83
g69
NtRp3957
(dp3958
g72
(dp3959
sg81
g3928
sg74
(lp3960
g67
(g88
g69
NtRp3961
(dp3962
g72
(dp3963
sg81
g3957
sg74
(lp3964
g67
(g68
g69
NtRp3965
(dp3966
g72
(dp3967
g80
I1
ssg81
g3961
sg74
(lp3968
S'/admin/default/edit/proyecto/models/db.py'
p3969
asbasbasbasbasbasbasbag67
(g83
g69
NtRp3970
(dp3971
g72
(dp3972
sg81
g3696
sg74
(lp3973
g67
(g88
g69
NtRp3974
(dp3975
g72
(dp3976
sg81
g3970
sg74
(lp3977
g67
(g68
g69
NtRp3978
(dp3979
g72
(dp3980
g80
I2
ssg81
g3974
sg74
(lp3981
g67
(g76
g69
NtRp3982
(dp3983
g72
(dp3984
g80
I1
ssg81
Nsg74
(lp3985
g67
(g83
g69
NtRp3986
(dp3987
g72
(dp3988
sg81
g3982
sg74
(lp3989
g67
(g88
g69
NtRp3990
(dp3991
g72
(dp3992
sg81
g3986
sg74
(lp3993
g67
(g68
g69
NtRp3994
(dp3995
g72
(dp3996
g80
I1
ssg81
g3990
sg74
(lp3997
g3587
(S's\n\x00\x00\x00Menu Model'
tRp3998
asbasbasbag67
(g83
g69
NtRp3999
(dp4000
g72
(dp4001
sg81
g3982
sg74
(lp4002
g67
(g88
g69
NtRp4003
(dp4004
g72
(dp4005
sg81
g3999
sg74
(lp4006
g67
(g68
g69
NtRp4007
(dp4008
g72
(dp4009
g80
I1
ssg81
g4003
sg74
(lp4010
I00
asbasbasbag67
(g83
g69
NtRp4011
(dp4012
g72
(dp4013
sg81
g3982
sg74
(lp4014
g67
(g88
g69
NtRp4015
(dp4016
g72
(dp4017
sg81
g4011
sg74
(lp4018
g67
(g68
g69
NtRp4019
(dp4020
g72
(dp4021
g80
I1
ssg81
g4015
sg74
(lp4022
S'/admin/default/edit/proyecto/models/menu.py'
p4023
asbasbasbasbasbasbasbag67
(g83
g69
NtRp4024
(dp4025
g72
(dp4026
sg81
g3696
sg74
(lp4027
g67
(g88
g69
NtRp4028
(dp4029
g72
(dp4030
sg81
g4024
sg74
(lp4031
g67
(g68
g69
NtRp4032
(dp4033
g72
(dp4034
g80
I2
ssg81
g4028
sg74
(lp4035
g67
(g76
g69
NtRp4036
(dp4037
g72
(dp4038
g80
I1
ssg81
Nsg74
(lp4039
g67
(g83
g69
NtRp4040
(dp4041
g72
(dp4042
sg81
g4036
sg74
(lp4043
g67
(g88
g69
NtRp4044
(dp4045
g72
(dp4046
sg81
g4040
sg74
(lp4047
g67
(g68
g69
NtRp4048
(dp4049
g72
(dp4050
g80
I1
ssg81
g4044
sg74
(lp4051
g3587
(S's\x08\x00\x00\x00Database'
tRp4052
asbasbasbag67
(g83
g69
NtRp4053
(dp4054
g72
(dp4055
sg81
g4036
sg74
(lp4056
g67
(g88
g69
NtRp4057
(dp4058
g72
(dp4059
sg81
g4053
sg74
(lp4060
g67
(g68
g69
NtRp4061
(dp4062
g72
(dp4063
g80
I1
ssg81
g4057
sg74
(lp4064
I00
asbasbasbag67
(g83
g69
NtRp4065
(dp4066
g72
(dp4067
sg81
g4036
sg74
(lp4068
g67
(g88
g69
NtRp4069
(dp4070
g72
(dp4071
sg81
g4065
sg74
(lp4072
g67
(g68
g69
NtRp4073
(dp4074
g72
(dp4075
g80
I1
ssg81
g4069
sg74
(lp4076
S'/proyecto/appadmin/index'
p4077
asbasbasbasbasbasbasbag67
(g83
g69
NtRp4078
(dp4079
g72
(dp4080
sg81
g3696
sg74
(lp4081
g67
(g88
g69
NtRp4082
(dp4083
g72
(dp4084
sg81
g4078
sg74
(lp4085
g67
(g68
g69
NtRp4086
(dp4087
g72
(dp4088
g80
I2
ssg81
g4082
sg74
(lp4089
g67
(g76
g69
NtRp4090
(dp4091
g72
(dp4092
g80
I1
ssg81
Nsg74
(lp4093
g67
(g83
g69
NtRp4094
(dp4095
g72
(dp4096
sg81
g4090
sg74
(lp4097
g67
(g88
g69
NtRp4098
(dp4099
g72
(dp4100
sg81
g4094
sg74
(lp4101
g67
(g68
g69
NtRp4102
(dp4103
g72
(dp4104
g80
I1
ssg81
g4098
sg74
(lp4105
g3587
(S's\x06\x00\x00\x00Errors'
tRp4106
asbasbasbag67
(g83
g69
NtRp4107
(dp4108
g72
(dp4109
sg81
g4090
sg74
(lp4110
g67
(g88
g69
NtRp4111
(dp4112
g72
(dp4113
sg81
g4107
sg74
(lp4114
g67
(g68
g69
NtRp4115
(dp4116
g72
(dp4117
g80
I1
ssg81
g4111
sg74
(lp4118
I00
asbasbasbag67
(g83
g69
NtRp4119
(dp4120
g72
(dp4121
sg81
g4090
sg74
(lp4122
g67
(g88
g69
NtRp4123
(dp4124
g72
(dp4125
sg81
g4119
sg74
(lp4126
g67
(g68
g69
NtRp4127
(dp4128
g72
(dp4129
g80
I1
ssg81
g4123
sg74
(lp4130
S'/admin/default/errors/proyecto'
p4131
asbasbasbasbasbasbasbag67
(g83
g69
NtRp4132
(dp4133
g72
(dp4134
sg81
g3696
sg74
(lp4135
g67
(g88
g69
NtRp4136
(dp4137
g72
(dp4138
sg81
g4132
sg74
(lp4139
g67
(g68
g69
NtRp4140
(dp4141
g72
(dp4142
g80
I2
ssg81
g4136
sg74
(lp4143
g67
(g76
g69
NtRp4144
(dp4145
g72
(dp4146
g80
I1
ssg81
Nsg74
(lp4147
g67
(g83
g69
NtRp4148
(dp4149
g72
(dp4150
sg81
g4144
sg74
(lp4151
g67
(g88
g69
NtRp4152
(dp4153
g72
(dp4154
sg81
g4148
sg74
(lp4155
g67
(g68
g69
NtRp4156
(dp4157
g72
(dp4158
g80
I1
ssg81
g4152
sg74
(lp4159
g3587
(S's\x05\x00\x00\x00About'
tRp4160
asbasbasbag67
(g83
g69
NtRp4161
(dp4162
g72
(dp4163
sg81
g4144
sg74
(lp4164
g67
(g88
g69
NtRp4165
(dp4166
g72
(dp4167
sg81
g4161
sg74
(lp4168
g67
(g68
g69
NtRp4169
(dp4170
g72
(dp4171
g80
I1
ssg81
g4165
sg74
(lp4172
I00
asbasbasbag67
(g83
g69
NtRp4173
(dp4174
g72
(dp4175
sg81
g4144
sg74
(lp4176
g67
(g88
g69
NtRp4177
(dp4178
g72
(dp4179
sg81
g4173
sg74
(lp4180
g67
(g68
g69
NtRp4181
(dp4182
g72
(dp4183
g80
I1
ssg81
g4177
sg74
(lp4184
S'/admin/default/about/proyecto'
p4185
asbasbasbasbasbasbasbasbasbasbasbasbasbasbasbag67
(g83
g69
NtRp4186
(dp4187
g72
(dp4188
sg81
g3555
sg74
(lp4189
g67
(g88
g69
NtRp4190
(dp4191
g72
(dp4192
sg81
g4186
sg74
(lp4193
g67
(g68
g69
NtRp4194
(dp4195
g72
(dp4196
g80
I4
ssg81
g4190
sg74
(lp4197
g67
(g76
g69
NtRp4198
(dp4199
g72
(dp4200
g80
I3
ssg81
Nsg74
(lp4201
g67
(g83
g69
NtRp4202
(dp4203
g72
(dp4204
sg81
g4198
sg74
(lp4205
g67
(g88
g69
NtRp4206
(dp4207
g72
(dp4208
sg81
g4202
sg74
(lp4209
g67
(g68
g69
NtRp4210
(dp4211
g72
(dp4212
g80
I3
ssg81
g4206
sg74
(lp4213
g3587
(S's\t\x00\x00\x00Resources'
tRp4214
asbasbasbag67
(g83
g69
NtRp4215
(dp4216
g72
(dp4217
sg81
g4198
sg74
(lp4218
g67
(g88
g69
NtRp4219
(dp4220
g72
(dp4221
sg81
g4215
sg74
(lp4222
g67
(g68
g69
NtRp4223
(dp4224
g72
(dp4225
g80
I3
ssg81
g4219
sg74
(lp4226
g110
asbasbasbag67
(g83
g69
NtRp4227
(dp4228
g72
(dp4229
sg81
g4198
sg74
(lp4230
g67
(g88
g69
NtRp4231
(dp4232
g72
(dp4233
sg81
g4227
sg74
(lp4234
g67
(g68
g69
NtRp4235
(dp4236
g72
(dp4237
g80
I3
ssg81
g4231
sg74
(lp4238
S'None'
p4239
asbasbasbag67
(g83
g69
NtRp4240
(dp4241
g72
(dp4242
sg81
g4198
sg74
(lp4243
g67
(g88
g69
NtRp4244
(dp4245
g72
(dp4246
sg81
g4240
sg74
(lp4247
g67
(g68
g69
NtRp4248
(dp4249
g72
(dp4250
g80
I3
ssg81
g4244
sg74
(lp4251
g67
(g76
g69
NtRp4252
(dp4253
g72
(dp4254
g80
I2
ssg81
Nsg74
(lp4255
g67
(g83
g69
NtRp4256
(dp4257
g72
(dp4258
sg81
g4252
sg74
(lp4259
g67
(g88
g69
NtRp4260
(dp4261
g72
(dp4262
sg81
g4256
sg74
(lp4263
g67
(g68
g69
NtRp4264
(dp4265
g72
(dp4266
g80
I2
ssg81
g4260
sg74
(lp4267
g67
(g76
g69
NtRp4268
(dp4269
g72
(dp4270
g80
I1
ssg81
Nsg74
(lp4271
g67
(g83
g69
NtRp4272
(dp4273
g72
(dp4274
sg81
g4268
sg74
(lp4275
g67
(g88
g69
NtRp4276
(dp4277
g72
(dp4278
sg81
g4272
sg74
(lp4279
g67
(g68
g69
NtRp4280
(dp4281
g72
(dp4282
g80
I1
ssg81
g4276
sg74
(lp4283
g3587
(S's\r\x00\x00\x00Documentation'
tRp4284
asbasbasbag67
(g83
g69
NtRp4285
(dp4286
g72
(dp4287
sg81
g4268
sg74
(lp4288
g67
(g88
g69
NtRp4289
(dp4290
g72
(dp4291
sg81
g4285
sg74
(lp4292
g67
(g68
g69
NtRp4293
(dp4294
g72
(dp4295
g80
I1
ssg81
g4289
sg74
(lp4296
I00
asbasbasbag67
(g83
g69
NtRp4297
(dp4298
g72
(dp4299
sg81
g4268
sg74
(lp4300
g67
(g88
g69
NtRp4301
(dp4302
g72
(dp4303
sg81
g4297
sg74
(lp4304
g67
(g68
g69
NtRp4305
(dp4306
g72
(dp4307
g80
I1
ssg81
g4301
sg74
(lp4308
S'http://www.web2py.com/book'
p4309
asbasbasbag67
(g83
g69
NtRp4310
(dp4311
g72
(dp4312
sg81
g4268
sg74
(lp4313
g67
(g88
g69
NtRp4314
(dp4315
g72
(dp4316
sg81
g4310
sg74
(lp4317
g67
(g68
g69
NtRp4318
(dp4319
g72
(dp4320
g80
I1
ssg81
g4314
sg74
(lp4321
(lp4322
(g3587
(S's\x07\x00\x00\x00Preface'
tRp4323
I00
S'http://www.web2py.com/book/default/chapter/00'
tp4324
a(g3587
(S's\x0c\x00\x00\x00Introduction'
tRp4325
I00
S'http://www.web2py.com/book/default/chapter/01'
tp4326
a(g3587
(S's\x06\x00\x00\x00Python'
tRp4327
I00
S'http://www.web2py.com/book/default/chapter/02'
tp4328
a(g3587
(S's\x08\x00\x00\x00Overview'
tRp4329
I00
S'http://www.web2py.com/book/default/chapter/03'
tp4330
a(g3587
(S's\x08\x00\x00\x00The Core'
tRp4331
I00
S'http://www.web2py.com/book/default/chapter/04'
tp4332
a(g3587
(S's\t\x00\x00\x00The Views'
tRp4333
I00
S'http://www.web2py.com/book/default/chapter/05'
tp4334
a(g3587
(S's\x08\x00\x00\x00Database'
tRp4335
I00
S'http://www.web2py.com/book/default/chapter/06'
tp4336
a(g3587
(S's\x14\x00\x00\x00Forms and Validators'
tRp4337
I00
S'http://www.web2py.com/book/default/chapter/07'
tp4338
a(g3587
(S's\x0e\x00\x00\x00Access Control'
tRp4339
I00
S'http://www.web2py.com/book/default/chapter/08'
tp4340
a(g3587
(S's\x08\x00\x00\x00Services'
tRp4341
I00
S'http://www.web2py.com/book/default/chapter/09'
tp4342
a(g3587
(S's\x0c\x00\x00\x00Ajax Recipes'
tRp4343
I00
S'http://www.web2py.com/book/default/chapter/10'
tp4344
a(g3587
(S's\x12\x00\x00\x00Deployment Recipes'
tRp4345
I00
S'http://www.web2py.com/book/default/chapter/11'
tp4346
a(g3587
(S's\r\x00\x00\x00Other Recipes'
tRp4347
I00
S'http://www.web2py.com/book/default/chapter/12'
tp4348
a(g3587
(S's\r\x00\x00\x00Buy this book'
tRp4349
I00
S'http://stores.lulu.com/web2py'
tp4350
aasbasbasbasbasbasbasbag67
(g83
g69
NtRp4351
(dp4352
g72
(dp4353
sg81
g4252
sg74
(lp4354
g67
(g88
g69
NtRp4355
(dp4356
g72
(dp4357
sg81
g4351
sg74
(lp4358
g67
(g68
g69
NtRp4359
(dp4360
g72
(dp4361
g80
I2
ssg81
g4355
sg74
(lp4362
g67
(g76
g69
NtRp4363
(dp4364
g72
(dp4365
g80
I1
ssg81
Nsg74
(lp4366
g67
(g83
g69
NtRp4367
(dp4368
g72
(dp4369
sg81
g4363
sg74
(lp4370
g67
(g88
g69
NtRp4371
(dp4372
g72
(dp4373
sg81
g4367
sg74
(lp4374
g67
(g68
g69
NtRp4375
(dp4376
g72
(dp4377
g80
I1
ssg81
g4371
sg74
(lp4378
g3587
(S's\t\x00\x00\x00Community'
tRp4379
asbasbasbag67
(g83
g69
NtRp4380
(dp4381
g72
(dp4382
sg81
g4363
sg74
(lp4383
g67
(g88
g69
NtRp4384
(dp4385
g72
(dp4386
sg81
g4380
sg74
(lp4387
g67
(g68
g69
NtRp4388
(dp4389
g72
(dp4390
g80
I1
ssg81
g4384
sg74
(lp4391
I00
asbasbasbag67
(g83
g69
NtRp4392
(dp4393
g72
(dp4394
sg81
g4363
sg74
(lp4395
g67
(g88
g69
NtRp4396
(dp4397
g72
(dp4398
sg81
g4392
sg74
(lp4399
g67
(g68
g69
NtRp4400
(dp4401
g72
(dp4402
g80
I1
ssg81
g4396
sg74
(lp4403
Nasbasbasbag67
(g83
g69
NtRp4404
(dp4405
g72
(dp4406
sg81
g4363
sg74
(lp4407
g67
(g88
g69
NtRp4408
(dp4409
g72
(dp4410
sg81
g4404
sg74
(lp4411
g67
(g68
g69
NtRp4412
(dp4413
g72
(dp4414
g80
I1
ssg81
g4408
sg74
(lp4415
(lp4416
(g3587
(S's\x06\x00\x00\x00Groups'
tRp4417
I00
S'http://www.web2py.com/examples/default/usergroups'
tp4418
a(g3587
(S's\x07\x00\x00\x00Twitter'
tRp4419
I00
S'http://twitter.com/web2py'
tp4420
a(g3587
(S's\t\x00\x00\x00Live chat'
tRp4421
I00
S'http://mibbit.com/?channel=%23web2py&server=irc.mibbit.net'
tp4422
a(g3587
(S's\n\x00\x00\x00User Voice'
tRp4423
I00
S'http://web2py.uservoice.com/'
tp4424
aasbasbasbasbasbasbasbag67
(g83
g69
NtRp4425
(dp4426
g72
(dp4427
sg81
g4252
sg74
(lp4428
g67
(g88
g69
NtRp4429
(dp4430
g72
(dp4431
sg81
g4425
sg74
(lp4432
g67
(g68
g69
NtRp4433
(dp4434
g72
(dp4435
g80
I2
ssg81
g4429
sg74
(lp4436
g67
(g76
g69
NtRp4437
(dp4438
g72
(dp4439
g80
I1
ssg81
Nsg74
(lp4440
g67
(g83
g69
NtRp4441
(dp4442
g72
(dp4443
sg81
g4437
sg74
(lp4444
g67
(g88
g69
NtRp4445
(dp4446
g72
(dp4447
sg81
g4441
sg74
(lp4448
g67
(g68
g69
NtRp4449
(dp4450
g72
(dp4451
g80
I1
ssg81
g4445
sg74
(lp4452
g3587
(S's\x06\x00\x00\x00Web2py'
tRp4453
asbasbasbag67
(g83
g69
NtRp4454
(dp4455
g72
(dp4456
sg81
g4437
sg74
(lp4457
g67
(g88
g69
NtRp4458
(dp4459
g72
(dp4460
sg81
g4454
sg74
(lp4461
g67
(g68
g69
NtRp4462
(dp4463
g72
(dp4464
g80
I1
ssg81
g4458
sg74
(lp4465
I00
asbasbasbag67
(g83
g69
NtRp4466
(dp4467
g72
(dp4468
sg81
g4437
sg74
(lp4469
g67
(g88
g69
NtRp4470
(dp4471
g72
(dp4472
sg81
g4466
sg74
(lp4473
g67
(g68
g69
NtRp4474
(dp4475
g72
(dp4476
g80
I1
ssg81
g4470
sg74
(lp4477
S'http://www.web2py.com'
p4478
asbasbasbag67
(g83
g69
NtRp4479
(dp4480
g72
(dp4481
sg81
g4437
sg74
(lp4482
g67
(g88
g69
NtRp4483
(dp4484
g72
(dp4485
sg81
g4479
sg74
(lp4486
g67
(g68
g69
NtRp4487
(dp4488
g72
(dp4489
g80
I1
ssg81
g4483
sg74
(lp4490
(lp4491
(g3587
(S's\x08\x00\x00\x00Download'
tRp4492
I00
S'http://www.web2py.com/examples/default/download'
tp4493
a(g3587
(S's\x07\x00\x00\x00Support'
tRp4494
I00
S'http://www.web2py.com/examples/default/support'
tp4495
a(g3587
(S's\x0e\x00\x00\x00Quick Examples'
tRp4496
I00
S'http://web2py.com/examples/default/examples'
tp4497
a(g3587
(S's\x03\x00\x00\x00FAQ'
tRp4498
I00
S'http://web2py.com/AlterEgo'
tp4499
a(g3587
(S's\x11\x00\x00\x00Free Applications'
tRp4500
I00
S'http://web2py.com/appliances'
tp4501
a(g3587
(S's\x07\x00\x00\x00Plugins'
tRp4502
I00
S'http://web2py.com/plugins'
tp4503
a(g3587
(S's\x07\x00\x00\x00Recipes'
tRp4504
I00
S'http://web2pyslices.com/'
tp4505
a(g3587
(S's\x04\x00\x00\x00Demo'
tRp4506
I00
S'http://web2py.com/demo_admin'
tp4507
a(g3587
(S's\x08\x00\x00\x00Semantic'
tRp4508
I00
S'http://web2py.com/semantic'
tp4509
a(g3587
(S's\x07\x00\x00\x00Layouts'
tRp4510
I00
S'http://web2py.com/layouts'
tp4511
a(g3587
(S's\x06\x00\x00\x00Videos'
tRp4512
I00
S'http://www.web2py.com/examples/default/videos/'
tp4513
aasbasbasbasbasbasbasbasbasbasbasbasbasbasbasbasbasbasbasbag67
(g83
g69
NtRp4514
(dp4515
g72
(dp4516
sg81
g3094
sg74
(lp4517
g67
(g88
g69
NtRp4518
(dp4519
g72
(dp4520
g92
g93
ssg81
g4514
sg74
(lp4521
S'meta'
p4522
asbag67
(g88
g69
NtRp4523
(dp4524
g72
(dp4525
g99
g100
ssg81
g4514
sg74
(lp4526
S':'
asbag67
(g88
g69
NtRp4527
(dp4528
g72
(dp4529
sg81
g4514
sg74
(lp4530
g67
(g68
g69
NtRp4531
(dp4532
g72
(dp4533
g80
I5
ssg81
g4527
sg74
(lp4534
g67
(g76
g69
NtRp4535
(dp4536
g72
(dp4537
g80
I4
ssg81
Nsg74
(lp4538
g67
(g83
g69
NtRp4539
(dp4540
g72
(dp4541
sg81
g4535
sg74
(lp4542
g67
(g88
g69
NtRp4543
(dp4544
g72
(dp4545
g92
g93
ssg81
g4539
sg74
(lp4546
S'author'
p4547
asbag67
(g88
g69
NtRp4548
(dp4549
g72
(dp4550
g99
g100
ssg81
g4539
sg74
(lp4551
S':'
asbag67
(g88
g69
NtRp4552
(dp4553
g72
(dp4554
sg81
g4539
sg74
(lp4555
g67
(g68
g69
NtRp4556
(dp4557
g72
(dp4558
g80
I4
ssg81
g4552
sg74
(lp4559
S'you'
p4560
asbasbasbag67
(g83
g69
NtRp4561
(dp4562
g72
(dp4563
sg81
g4535
sg74
(lp4564
g67
(g88
g69
NtRp4565
(dp4566
g72
(dp4567
g92
g93
ssg81
g4561
sg74
(lp4568
S'copyright'
p4569
asbag67
(g88
g69
NtRp4570
(dp4571
g72
(dp4572
g99
g100
ssg81
g4561
sg74
(lp4573
S':'
asbag67
(g88
g69
NtRp4574
(dp4575
g72
(dp4576
sg81
g4561
sg74
(lp4577
g67
(g68
g69
NtRp4578
(dp4579
g72
(dp4580
g80
I4
ssg81
g4574
sg74
(lp4581
S'Copyright 2007-2010'
p4582
asbasbasbag67
(g83
g69
NtRp4583
(dp4584
g72
(dp4585
sg81
g4535
sg74
(lp4586
g67
(g88
g69
NtRp4587
(dp4588
g72
(dp4589
g92
g93
ssg81
g4583
sg74
(lp4590
S'description'
p4591
asbag67
(g88
g69
NtRp4592
(dp4593
g72
(dp4594
g99
g100
ssg81
g4583
sg74
(lp4595
S':'
asbag67
(g88
g69
NtRp4596
(dp4597
g72
(dp4598
sg81
g4583
sg74
(lp4599
g67
(g68
g69
NtRp4600
(dp4601
g72
(dp4602
g80
I4
ssg81
g4596
sg74
(lp4603
S'Free and open source full-stack enterprise framework for agile development of fast, scalable, secure and portable database-driven web-based applications. Written and programmable in Python'
p4604
asbasbasbag67
(g83
g69
NtRp4605
(dp4606
g72
(dp4607
sg81
g4535
sg74
(lp4608
g67
(g88
g69
NtRp4609
(dp4610
g72
(dp4611
g92
g93
ssg81
g4605
sg74
(lp4612
S'generator'
p4613
asbag67
(g88
g69
NtRp4614
(dp4615
g72
(dp4616
g99
g100
ssg81
g4605
sg74
(lp4617
S':'
asbag67
(g88
g69
NtRp4618
(dp4619
g72
(dp4620
sg81
g4605
sg74
(lp4621
g67
(g68
g69
NtRp4622
(dp4623
g72
(dp4624
g80
I4
ssg81
g4618
sg74
(lp4625
S'Web2py Enterprise Framework'
p4626
asbasbasbag67
(g83
g69
NtRp4627
(dp4628
g72
(dp4629
sg81
g4535
sg74
(lp4630
g67
(g88
g69
NtRp4631
(dp4632
g72
(dp4633
g92
g93
ssg81
g4627
sg74
(lp4634
S'keywords'
p4635
asbag67
(g88
g69
NtRp4636
(dp4637
g72
(dp4638
g99
g100
ssg81
g4627
sg74
(lp4639
S':'
asbag67
(g88
g69
NtRp4640
(dp4641
g72
(dp4642
sg81
g4627
sg74
(lp4643
g67
(g68
g69
NtRp4644
(dp4645
g72
(dp4646
g80
I4
ssg81
g4640
sg74
(lp4647
S'web2py, python, framework'
p4648
asbasbasbasbasbasbasbag67
(g83
g69
NtRp4649
(dp4650
g72
(dp4651
sg81
g3094
sg74
(lp4652
g67
(g88
g69
NtRp4653
(dp4654
g72
(dp4655
g92
g93
ssg81
g4649
sg74
(lp4656
S'postprocessing'
p4657
asbag67
(g88
g69
NtRp4658
(dp4659
g72
(dp4660
g99
g100
ssg81
g4649
sg74
(lp4661
S':'
asbag67
(g88
g69
NtRp4662
(dp4663
g72
(dp4664
sg81
g4649
sg74
(lp4665
g67
(g68
g69
NtRp4666
(dp4667
g72
(dp4668
g80
I5
ssg81
g4662
sg74
(lp4669
g67
(g76
g69
NtRp4670
(dp4671
g72
(dp4672
g80
I4
ssg81
Nsg74
(lp4673
sbasbasbasbag67
(g83
g69
NtRp4674
(dp4675
g72
(dp4676
sg81
g3094
sg74
(lp4677
g67
(g88
g69
NtRp4678
(dp4679
g72
(dp4680
g92
g93
ssg81
g4674
sg74
(lp4681
S'session_file'
p4682
asbag67
(g88
g69
NtRp4683
(dp4684
g72
(dp4685
g99
g100
ssg81
g4674
sg74
(lp4686
S':'
asbag67
(g88
g69
NtRp4687
(dp4688
g72
(dp4689
sg81
g4674
sg74
(lp4690
g67
(g68
g69
NtRp4691
(dp4692
g72
(dp4693
g80
I5
ssg81
g4687
sg74
(lp4694
S"<open file '/home/alumno/web2py/applications/proyecto/sessions/127.0.0.1-537689b4-5d8c-43f6-8499-f345a752f325', mode 'rb+' at 0xa2af6a8>"
p4695
asbasbasbag67
(g83
g69
NtRp4696
(dp4697
g72
(dp4698
sg81
g3094
sg74
(lp4699
g67
(g88
g69
NtRp4700
(dp4701
g72
(dp4702
g92
g93
ssg81
g4696
sg74
(lp4703
S'session_filename'
p4704
asbag67
(g88
g69
NtRp4705
(dp4706
g72
(dp4707
g99
g100
ssg81
g4696
sg74
(lp4708
S':'
asbag67
(g88
g69
NtRp4709
(dp4710
g72
(dp4711
sg81
g4696
sg74
(lp4712
g67
(g68
g69
NtRp4713
(dp4714
g72
(dp4715
g80
I5
ssg81
g4709
sg74
(lp4716
S'/home/alumno/web2py/applications/proyecto/sessions/127.0.0.1-537689b4-5d8c-43f6-8499-f345a752f325'
p4717
asbasbasbag67
(g83
g69
NtRp4718
(dp4719
g72
(dp4720
sg81
g3094
sg74
(lp4721
g67
(g88
g69
NtRp4722
(dp4723
g72
(dp4724
g92
g93
ssg81
g4718
sg74
(lp4725
S'session_id'
p4726
asbag67
(g88
g69
NtRp4727
(dp4728
g72
(dp4729
g99
g100
ssg81
g4718
sg74
(lp4730
S':'
asbag67
(g88
g69
NtRp4731
(dp4732
g72
(dp4733
sg81
g4718
sg74
(lp4734
g67
(g68
g69
NtRp4735
(dp4736
g72
(dp4737
g80
I5
ssg81
g4731
sg74
(lp4738
S'127.0.0.1-537689b4-5d8c-43f6-8499-f345a752f325'
p4739
asbasbasbag67
(g83
g69
NtRp4740
(dp4741
g72
(dp4742
sg81
g3094
sg74
(lp4743
g67
(g88
g69
NtRp4744
(dp4745
g72
(dp4746
g92
g93
ssg81
g4740
sg74
(lp4747
S'session_id_name'
p4748
asbag67
(g88
g69
NtRp4749
(dp4750
g72
(dp4751
g99
g100
ssg81
g4740
sg74
(lp4752
S':'
asbag67
(g88
g69
NtRp4753
(dp4754
g72
(dp4755
sg81
g4740
sg74
(lp4756
g67
(g68
g69
NtRp4757
(dp4758
g72
(dp4759
g80
I5
ssg81
g4753
sg74
(lp4760
g3151
asbasbasbag67
(g83
g69
NtRp4761
(dp4762
g72
(dp4763
sg81
g3094
sg74
(lp4764
g67
(g88
g69
NtRp4765
(dp4766
g72
(dp4767
g92
g93
ssg81
g4761
sg74
(lp4768
S'session_locked'
p4769
asbag67
(g88
g69
NtRp4770
(dp4771
g72
(dp4772
g99
g100
ssg81
g4761
sg74
(lp4773
S':'
asbag67
(g88
g69
NtRp4774
(dp4775
g72
(dp4776
sg81
g4761
sg74
(lp4777
g67
(g68
g69
NtRp4778
(dp4779
g72
(dp4780
g80
I5
ssg81
g4774
sg74
(lp4781
g1993
asbasbasbag67
(g83
g69
NtRp4782
(dp4783
g72
(dp4784
sg81
g3094
sg74
(lp4785
g67
(g88
g69
NtRp4786
(dp4787
g72
(dp4788
g92
g93
ssg81
g4782
sg74
(lp4789
S'session_new'
p4790
asbag67
(g88
g69
NtRp4791
(dp4792
g72
(dp4793
g99
g100
ssg81
g4782
sg74
(lp4794
S':'
asbag67
(g88
g69
NtRp4795
(dp4796
g72
(dp4797
sg81
g4782
sg74
(lp4798
g67
(g68
g69
NtRp4799
(dp4800
g72
(dp4801
g80
I5
ssg81
g4795
sg74
(lp4802
g110
asbasbasbag67
(g83
g69
NtRp4803
(dp4804
g72
(dp4805
sg81
g3094
sg74
(lp4806
g67
(g88
g69
NtRp4807
(dp4808
g72
(dp4809
g92
g93
ssg81
g4803
sg74
(lp4810
S'status'
p4811
asbag67
(g88
g69
NtRp4812
(dp4813
g72
(dp4814
g99
g100
ssg81
g4803
sg74
(lp4815
S':'
asbag67
(g88
g69
NtRp4816
(dp4817
g72
(dp4818
sg81
g4803
sg74
(lp4819
g67
(g68
g69
NtRp4820
(dp4821
g72
(dp4822
g80
I5
ssg81
g4816
sg74
(lp4823
S'200'
p4824
asbasbasbag67
(g83
g69
NtRp4825
(dp4826
g72
(dp4827
sg81
g3094
sg74
(lp4828
g67
(g88
g69
NtRp4829
(dp4830
g72
(dp4831
g92
g93
ssg81
g4825
sg74
(lp4832
S'subtitle'
p4833
asbag67
(g88
g69
NtRp4834
(dp4835
g72
(dp4836
g99
g100
ssg81
g4825
sg74
(lp4837
S':'
asbag67
(g88
g69
NtRp4838
(dp4839
g72
(dp4840
sg81
g4825
sg74
(lp4841
g67
(g68
g69
NtRp4842
(dp4843
g72
(dp4844
g80
I5
ssg81
g4838
sg74
(lp4845
g3587
(S's\r\x00\x00\x00customize me!'
tRp4846
asbasbasbag67
(g83
g69
NtRp4847
(dp4848
g72
(dp4849
sg81
g3094
sg74
(lp4850
g67
(g88
g69
NtRp4851
(dp4852
g72
(dp4853
g92
g93
ssg81
g4847
sg74
(lp4854
S'title'
p4855
asbag67
(g88
g69
NtRp4856
(dp4857
g72
(dp4858
g99
g100
ssg81
g4847
sg74
(lp4859
S':'
asbag67
(g88
g69
NtRp4860
(dp4861
g72
(dp4862
sg81
g4847
sg74
(lp4863
g67
(g68
g69
NtRp4864
(dp4865
g72
(dp4866
g80
I5
ssg81
g4860
sg74
(lp4867
g132
asbasbasbag67
(g83
g69
NtRp4868
(dp4869
g72
(dp4870
sg81
g3094
sg74
(lp4871
g67
(g88
g69
NtRp4872
(dp4873
g72
(dp4874
g92
g93
ssg81
g4868
sg74
(lp4875
g2317
asbag67
(g88
g69
NtRp4876
(dp4877
g72
(dp4878
g99
g100
ssg81
g4868
sg74
(lp4879
S':'
asbag67
(g88
g69
NtRp4880
(dp4881
g72
(dp4882
sg81
g4868
sg74
(lp4883
g67
(g68
g69
NtRp4884
(dp4885
g72
(dp4886
g80
I5
ssg81
g4880
sg74
(lp4887
g2330
asbasbasbag67
(g83
g69
NtRp4888
(dp4889
g72
(dp4890
sg81
g3094
sg74
(lp4891
g67
(g88
g69
NtRp4892
(dp4893
g72
(dp4894
g92
g93
ssg81
g4888
sg74
(lp4895
S'view'
p4896
asbag67
(g88
g69
NtRp4897
(dp4898
g72
(dp4899
g99
g100
ssg81
g4888
sg74
(lp4900
S':'
asbag67
(g88
g69
NtRp4901
(dp4902
g72
(dp4903
sg81
g4888
sg74
(lp4904
g67
(g68
g69
NtRp4905
(dp4906
g72
(dp4907
g80
I5
ssg81
g4901
sg74
(lp4908
S'default/index.html'
p4909
asbasbasbasbasbsS'locals'
p4910
(dp4911
g3
S"'/home/alumno/web2py/applications/proyecto/controllers/default.py'"
p4912
sg5
S"'# -*- coding: utf-8 -*-\\n# this file is released ...roducto)\\n\\nresponse._vars=response._caller(index)\\n'"
p4913
sssS'traceback'
p4914
S'Traceback (most recent call last):\n  File "/home/alumno/web2py/gluon/restricted.py", line 191, in restricted\n    ccode = compile2(code,layer)\n  File "/home/alumno/web2py/gluon/restricted.py", line 178, in compile2\n    return compile(code.rstrip().replace(\'\\r\\n\',\'\\n\')+\'\\n\', layer, \'exec\')\n  File "/home/alumno/web2py/applications/proyecto/controllers/default.py", line 14\n    productos = db().select(db.producto.ALL)\n   ^\nIndentationError: unexpected indent\n'
p4915
s.