(dp1
S'output'
p2
S''
sS'layer'
p3
S'/home/alumno/web2py/applications/datos/models/db.py'
p4
sS'code'
p5
S"# -*- coding: utf-8 -*-\n\n = DAL('sqlite://datos.db');\n# definimos la base de datos \n.define_table('alumno',Field('codigo'),\n\t\t\t\t\t\tField('nombres'),\n\t\t\t\t\t\tField('apellidos'),\n\t\t\t\t\t\tField('fnacimiento','date'),\n\t\t\t\t\t\tField('email'),\n\t\t\t\t\t\tField('hobby','text'))\n\t\t\t\t\t\t\n.alumno.codigo.requires = IS_NOT_EMPTY(error_message='no puede estar vacio')\n.alumno.nombres.requires = IS_LENGTH(20,error_message='no mas de 20')\n.alumno.apellidos.requires = IS_ALPHANUMERIC()\n.alumno.fnacimiento.requires = IS_DATE('%Y-%m-%d')\n.alumno.email.requires = IS_EMAIL()\n.alumno.hobby.default = 'Estudiar :P'\n"
p6
sS'snapshot'
p7
(dp8
S'exception'
p9
(dp10
S'__getslice__'
p11
S"<method-wrapper '__getslice__' of exceptions.IndentationError object>"
p12
sS'text'
p13
S'" = DAL(\'sqlite://datos.db\');\\n"'
p14
sS'__str__'
p15
S"<method-wrapper '__str__' of exceptions.IndentationError object>"
p16
sS'__reduce__'
p17
S'<built-in method __reduce__ of exceptions.IndentationError object>'
p18
sS'__dict__'
p19
S'{}'
p20
sS'__sizeof__'
p21
S'<built-in method __sizeof__ of exceptions.IndentationError object>'
p22
sS'__init__'
p23
S"<method-wrapper '__init__' of exceptions.IndentationError object>"
p24
sS'__setattr__'
p25
S"<method-wrapper '__setattr__' of exceptions.IndentationError object>"
p26
sS'__reduce_ex__'
p27
S'<built-in method __reduce_ex__ of exceptions.IndentationError object>'
p28
sS'__new__'
p29
S'<built-in method __new__ of type object>'
p30
sS'__format__'
p31
S'<built-in method __format__ of exceptions.IndentationError object>'
p32
sS'__class__'
p33
S"<type 'exceptions.IndentationError'>"
p34
sS'filename'
p35
S"'/home/alumno/web2py/applications/datos/models/db.py'"
p36
sS'lineno'
p37
S'3'
sS'msg'
p38
S"'unexpected indent'"
p39
sS'__doc__'
p40
S"'Improper indentation.'"
p41
sS'__getitem__'
p42
S"<method-wrapper '__getitem__' of exceptions.IndentationError object>"
p43
sS'__setstate__'
p44
S'<built-in method __setstate__ of exceptions.IndentationError object>'
p45
sS'__getattribute__'
p46
S"<method-wrapper '__getattribute__' of exceptions.IndentationError object>"
p47
sS'print_file_and_line'
p48
S'None'
p49
sS'args'
p50
S'(\'unexpected indent\', (\'/home/alumno/web2py/applications/datos/models/db.py\', 3, 1, " = DAL(\'sqlite://datos.db\');\\n"))'
p51
sS'__subclasshook__'
p52
S'<built-in method __subclasshook__ of type object>'
p53
sS'offset'
p54
S'1'
sS'__unicode__'
p55
S'<built-in method __unicode__ of exceptions.IndentationError object>'
p56
sS'__delattr__'
p57
S"<method-wrapper '__delattr__' of exceptions.IndentationError object>"
p58
sS'__repr__'
p59
S"<method-wrapper '__repr__' of exceptions.IndentationError object>"
p60
sS'__hash__'
p61
S"<method-wrapper '__hash__' of exceptions.IndentationError object>"
p62
ssS'evalue'
p63
S'unexpected indent (db.py, line 3)'
p64
sS'request'
p65
ccopy_reg
_reconstructor
p66
(cgluon.html
BEAUTIFY
p67
c__builtin__
object
p68
NtRp69
(dp70
S'attributes'
p71
(dp72
sS'components'
p73
(lp74
g66
(cgluon.html
TABLE
p75
g68
NtRp76
(dp77
g71
(dp78
S'level'
p79
I5
ssS'parent'
p80
Nsg73
(lp81
g66
(cgluon.html
TR
p82
g68
NtRp83
(dp84
g71
(dp85
sg80
g76
sg73
(lp86
g66
(cgluon.html
TD
p87
g68
NtRp88
(dp89
g71
(dp90
S'_style'
p91
S'font-weight:bold;'
p92
ssg80
g83
sg73
(lp93
S'ajax'
p94
asbag66
(g87
g68
NtRp95
(dp96
g71
(dp97
S'_valign'
p98
S'top'
p99
ssg80
g83
sg73
(lp100
S':'
asbag66
(g87
g68
NtRp101
(dp102
g71
(dp103
sg80
g83
sg73
(lp104
g66
(g67
g68
NtRp105
(dp106
g71
(dp107
g79
I5
ssg80
g101
sg73
(lp108
S'False'
p109
asbasbasbag66
(g82
g68
NtRp110
(dp111
g71
(dp112
sg80
g76
sg73
(lp113
g66
(g87
g68
NtRp114
(dp115
g71
(dp116
g91
g92
ssg80
g110
sg73
(lp117
S'application'
p118
asbag66
(g87
g68
NtRp119
(dp120
g71
(dp121
g98
g99
ssg80
g110
sg73
(lp122
S':'
asbag66
(g87
g68
NtRp123
(dp124
g71
(dp125
sg80
g110
sg73
(lp126
g66
(g67
g68
NtRp127
(dp128
g71
(dp129
g79
I5
ssg80
g123
sg73
(lp130
S'datos'
p131
asbasbasbag66
(g82
g68
NtRp132
(dp133
g71
(dp134
sg80
g76
sg73
(lp135
g66
(g87
g68
NtRp136
(dp137
g71
(dp138
g91
g92
ssg80
g132
sg73
(lp139
g50
asbag66
(g87
g68
NtRp140
(dp141
g71
(dp142
g98
g99
ssg80
g132
sg73
(lp143
S':'
asbag66
(g87
g68
NtRp144
(dp145
g71
(dp146
sg80
g132
sg73
(lp147
g66
(g67
g68
NtRp148
(dp149
g71
(dp150
g79
I5
ssg80
g144
sg73
(lp151
g66
(g75
g68
NtRp152
(dp153
g71
(dp154
g79
I4
ssg80
Nsg73
(lp155
g66
(g82
g68
NtRp156
(dp157
g71
(dp158
sg80
g152
sg73
(lp159
g66
(g87
g68
NtRp160
(dp161
g71
(dp162
sg80
g156
sg73
(lp163
g66
(g67
g68
NtRp164
(dp165
g71
(dp166
g79
I4
ssg80
g160
sg73
(lp167
S'db'
p168
asbasbasbag66
(g82
g68
NtRp169
(dp170
g71
(dp171
sg80
g152
sg73
(lp172
g66
(g87
g68
NtRp173
(dp174
g71
(dp175
sg80
g169
sg73
(lp176
g66
(g67
g68
NtRp177
(dp178
g71
(dp179
g79
I4
ssg80
g173
sg73
(lp180
S'alumno'
p181
asbasbasbasbasbasbasbag66
(g82
g68
NtRp182
(dp183
g71
(dp184
sg80
g76
sg73
(lp185
g66
(g87
g68
NtRp186
(dp187
g71
(dp188
g91
g92
ssg80
g182
sg73
(lp189
S'body'
p190
asbag66
(g87
g68
NtRp191
(dp192
g71
(dp193
g98
g99
ssg80
g182
sg73
(lp194
S':'
asbag66
(g87
g68
NtRp195
(dp196
g71
(dp197
sg80
g182
sg73
(lp198
g66
(g67
g68
NtRp199
(dp200
g71
(dp201
g79
I5
ssg80
g195
sg73
(lp202
S"<open file '<fdopen>', mode 'w+b' at 0x9798f98>"
p203
asbasbasbag66
(g82
g68
NtRp204
(dp205
g71
(dp206
sg80
g76
sg73
(lp207
g66
(g87
g68
NtRp208
(dp209
g71
(dp210
g91
g92
ssg80
g204
sg73
(lp211
S'client'
p212
asbag66
(g87
g68
NtRp213
(dp214
g71
(dp215
g98
g99
ssg80
g204
sg73
(lp216
S':'
asbag66
(g87
g68
NtRp217
(dp218
g71
(dp219
sg80
g204
sg73
(lp220
g66
(g67
g68
NtRp221
(dp222
g71
(dp223
g79
I5
ssg80
g217
sg73
(lp224
S'127.0.0.1'
p225
asbasbasbag66
(g82
g68
NtRp226
(dp227
g71
(dp228
sg80
g76
sg73
(lp229
g66
(g87
g68
NtRp230
(dp231
g71
(dp232
g91
g92
ssg80
g226
sg73
(lp233
S'controller'
p234
asbag66
(g87
g68
NtRp235
(dp236
g71
(dp237
g98
g99
ssg80
g226
sg73
(lp238
S':'
asbag66
(g87
g68
NtRp239
(dp240
g71
(dp241
sg80
g226
sg73
(lp242
g66
(g67
g68
NtRp243
(dp244
g71
(dp245
g79
I5
ssg80
g239
sg73
(lp246
S'appadmin'
p247
asbasbasbag66
(g82
g68
NtRp248
(dp249
g71
(dp250
sg80
g76
sg73
(lp251
g66
(g87
g68
NtRp252
(dp253
g71
(dp254
g91
g92
ssg80
g248
sg73
(lp255
S'cookies'
p256
asbag66
(g87
g68
NtRp257
(dp258
g71
(dp259
g98
g99
ssg80
g248
sg73
(lp260
S':'
asbag66
(g87
g68
NtRp261
(dp262
g71
(dp263
sg80
g248
sg73
(lp264
g66
(g67
g68
NtRp265
(dp266
g71
(dp267
g79
I5
ssg80
g261
sg73
(lp268
g66
(g75
g68
NtRp269
(dp270
g71
(dp271
g79
I4
ssg80
Nsg73
(lp272
g66
(g82
g68
NtRp273
(dp274
g71
(dp275
sg80
g269
sg73
(lp276
g66
(g87
g68
NtRp277
(dp278
g71
(dp279
g91
g92
ssg80
g273
sg73
(lp280
S'adminLanguage'
p281
asbag66
(g87
g68
NtRp282
(dp283
g71
(dp284
g98
g99
ssg80
g273
sg73
(lp285
S':'
asbag66
(g87
g68
NtRp286
(dp287
g71
(dp288
sg80
g273
sg73
(lp289
g66
(g67
g68
NtRp290
(dp291
g71
(dp292
g79
I4
ssg80
g286
sg73
(lp293
g66
(g75
g68
NtRp294
(dp295
g71
(dp296
g79
I3
ssg80
Nsg73
(lp297
g66
(g82
g68
NtRp298
(dp299
g71
(dp300
sg80
g294
sg73
(lp301
g66
(g87
g68
NtRp302
(dp303
g71
(dp304
g91
g92
ssg80
g298
sg73
(lp305
S'comment'
p306
asbag66
(g87
g68
NtRp307
(dp308
g71
(dp309
g98
g99
ssg80
g298
sg73
(lp310
S':'
asbag66
(g87
g68
NtRp311
(dp312
g71
(dp313
sg80
g298
sg73
(lp314
g66
(g67
g68
NtRp315
(dp316
g71
(dp317
g79
I3
ssg80
g311
sg73
(lp318
S''
asbasbasbag66
(g82
g68
NtRp319
(dp320
g71
(dp321
sg80
g294
sg73
(lp322
g66
(g87
g68
NtRp323
(dp324
g71
(dp325
g91
g92
ssg80
g319
sg73
(lp326
S'domain'
p327
asbag66
(g87
g68
NtRp328
(dp329
g71
(dp330
g98
g99
ssg80
g319
sg73
(lp331
S':'
asbag66
(g87
g68
NtRp332
(dp333
g71
(dp334
sg80
g319
sg73
(lp335
g66
(g67
g68
NtRp336
(dp337
g71
(dp338
g79
I3
ssg80
g332
sg73
(lp339
S''
asbasbasbag66
(g82
g68
NtRp340
(dp341
g71
(dp342
sg80
g294
sg73
(lp343
g66
(g87
g68
NtRp344
(dp345
g71
(dp346
g91
g92
ssg80
g340
sg73
(lp347
S'expires'
p348
asbag66
(g87
g68
NtRp349
(dp350
g71
(dp351
g98
g99
ssg80
g340
sg73
(lp352
S':'
asbag66
(g87
g68
NtRp353
(dp354
g71
(dp355
sg80
g340
sg73
(lp356
g66
(g67
g68
NtRp357
(dp358
g71
(dp359
g79
I3
ssg80
g353
sg73
(lp360
S''
asbasbasbag66
(g82
g68
NtRp361
(dp362
g71
(dp363
sg80
g294
sg73
(lp364
g66
(g87
g68
NtRp365
(dp366
g71
(dp367
g91
g92
ssg80
g361
sg73
(lp368
S'httponly'
p369
asbag66
(g87
g68
NtRp370
(dp371
g71
(dp372
g98
g99
ssg80
g361
sg73
(lp373
S':'
asbag66
(g87
g68
NtRp374
(dp375
g71
(dp376
sg80
g361
sg73
(lp377
g66
(g67
g68
NtRp378
(dp379
g71
(dp380
g79
I3
ssg80
g374
sg73
(lp381
S''
asbasbasbag66
(g82
g68
NtRp382
(dp383
g71
(dp384
sg80
g294
sg73
(lp385
g66
(g87
g68
NtRp386
(dp387
g71
(dp388
g91
g92
ssg80
g382
sg73
(lp389
S'max-age'
p390
asbag66
(g87
g68
NtRp391
(dp392
g71
(dp393
g98
g99
ssg80
g382
sg73
(lp394
S':'
asbag66
(g87
g68
NtRp395
(dp396
g71
(dp397
sg80
g382
sg73
(lp398
g66
(g67
g68
NtRp399
(dp400
g71
(dp401
g79
I3
ssg80
g395
sg73
(lp402
S''
asbasbasbag66
(g82
g68
NtRp403
(dp404
g71
(dp405
sg80
g294
sg73
(lp406
g66
(g87
g68
NtRp407
(dp408
g71
(dp409
g91
g92
ssg80
g403
sg73
(lp410
S'path'
p411
asbag66
(g87
g68
NtRp412
(dp413
g71
(dp414
g98
g99
ssg80
g403
sg73
(lp415
S':'
asbag66
(g87
g68
NtRp416
(dp417
g71
(dp418
sg80
g403
sg73
(lp419
g66
(g67
g68
NtRp420
(dp421
g71
(dp422
g79
I3
ssg80
g416
sg73
(lp423
S''
asbasbasbag66
(g82
g68
NtRp424
(dp425
g71
(dp426
sg80
g294
sg73
(lp427
g66
(g87
g68
NtRp428
(dp429
g71
(dp430
g91
g92
ssg80
g424
sg73
(lp431
S'secure'
p432
asbag66
(g87
g68
NtRp433
(dp434
g71
(dp435
g98
g99
ssg80
g424
sg73
(lp436
S':'
asbag66
(g87
g68
NtRp437
(dp438
g71
(dp439
sg80
g424
sg73
(lp440
g66
(g67
g68
NtRp441
(dp442
g71
(dp443
g79
I3
ssg80
g437
sg73
(lp444
S''
asbasbasbag66
(g82
g68
NtRp445
(dp446
g71
(dp447
sg80
g294
sg73
(lp448
g66
(g87
g68
NtRp449
(dp450
g71
(dp451
g91
g92
ssg80
g445
sg73
(lp452
S'version'
p453
asbag66
(g87
g68
NtRp454
(dp455
g71
(dp456
g98
g99
ssg80
g445
sg73
(lp457
S':'
asbag66
(g87
g68
NtRp458
(dp459
g71
(dp460
sg80
g445
sg73
(lp461
g66
(g67
g68
NtRp462
(dp463
g71
(dp464
g79
I3
ssg80
g458
sg73
(lp465
S''
asbasbasbasbasbasbasbag66
(g82
g68
NtRp466
(dp467
g71
(dp468
sg80
g269
sg73
(lp469
g66
(g87
g68
NtRp470
(dp471
g71
(dp472
g91
g92
ssg80
g466
sg73
(lp473
S'session_id_admin'
p474
asbag66
(g87
g68
NtRp475
(dp476
g71
(dp477
g98
g99
ssg80
g466
sg73
(lp478
S':'
asbag66
(g87
g68
NtRp479
(dp480
g71
(dp481
sg80
g466
sg73
(lp482
g66
(g67
g68
NtRp483
(dp484
g71
(dp485
g79
I4
ssg80
g479
sg73
(lp486
g66
(g75
g68
NtRp487
(dp488
g71
(dp489
g79
I3
ssg80
Nsg73
(lp490
g66
(g82
g68
NtRp491
(dp492
g71
(dp493
sg80
g487
sg73
(lp494
g66
(g87
g68
NtRp495
(dp496
g71
(dp497
g91
g92
ssg80
g491
sg73
(lp498
g306
asbag66
(g87
g68
NtRp499
(dp500
g71
(dp501
g98
g99
ssg80
g491
sg73
(lp502
S':'
asbag66
(g87
g68
NtRp503
(dp504
g71
(dp505
sg80
g491
sg73
(lp506
g66
(g67
g68
NtRp507
(dp508
g71
(dp509
g79
I3
ssg80
g503
sg73
(lp510
S''
asbasbasbag66
(g82
g68
NtRp511
(dp512
g71
(dp513
sg80
g487
sg73
(lp514
g66
(g87
g68
NtRp515
(dp516
g71
(dp517
g91
g92
ssg80
g511
sg73
(lp518
g327
asbag66
(g87
g68
NtRp519
(dp520
g71
(dp521
g98
g99
ssg80
g511
sg73
(lp522
S':'
asbag66
(g87
g68
NtRp523
(dp524
g71
(dp525
sg80
g511
sg73
(lp526
g66
(g67
g68
NtRp527
(dp528
g71
(dp529
g79
I3
ssg80
g523
sg73
(lp530
S''
asbasbasbag66
(g82
g68
NtRp531
(dp532
g71
(dp533
sg80
g487
sg73
(lp534
g66
(g87
g68
NtRp535
(dp536
g71
(dp537
g91
g92
ssg80
g531
sg73
(lp538
g348
asbag66
(g87
g68
NtRp539
(dp540
g71
(dp541
g98
g99
ssg80
g531
sg73
(lp542
S':'
asbag66
(g87
g68
NtRp543
(dp544
g71
(dp545
sg80
g531
sg73
(lp546
g66
(g67
g68
NtRp547
(dp548
g71
(dp549
g79
I3
ssg80
g543
sg73
(lp550
S''
asbasbasbag66
(g82
g68
NtRp551
(dp552
g71
(dp553
sg80
g487
sg73
(lp554
g66
(g87
g68
NtRp555
(dp556
g71
(dp557
g91
g92
ssg80
g551
sg73
(lp558
g369
asbag66
(g87
g68
NtRp559
(dp560
g71
(dp561
g98
g99
ssg80
g551
sg73
(lp562
S':'
asbag66
(g87
g68
NtRp563
(dp564
g71
(dp565
sg80
g551
sg73
(lp566
g66
(g67
g68
NtRp567
(dp568
g71
(dp569
g79
I3
ssg80
g563
sg73
(lp570
S''
asbasbasbag66
(g82
g68
NtRp571
(dp572
g71
(dp573
sg80
g487
sg73
(lp574
g66
(g87
g68
NtRp575
(dp576
g71
(dp577
g91
g92
ssg80
g571
sg73
(lp578
g390
asbag66
(g87
g68
NtRp579
(dp580
g71
(dp581
g98
g99
ssg80
g571
sg73
(lp582
S':'
asbag66
(g87
g68
NtRp583
(dp584
g71
(dp585
sg80
g571
sg73
(lp586
g66
(g67
g68
NtRp587
(dp588
g71
(dp589
g79
I3
ssg80
g583
sg73
(lp590
S''
asbasbasbag66
(g82
g68
NtRp591
(dp592
g71
(dp593
sg80
g487
sg73
(lp594
g66
(g87
g68
NtRp595
(dp596
g71
(dp597
g91
g92
ssg80
g591
sg73
(lp598
g411
asbag66
(g87
g68
NtRp599
(dp600
g71
(dp601
g98
g99
ssg80
g591
sg73
(lp602
S':'
asbag66
(g87
g68
NtRp603
(dp604
g71
(dp605
sg80
g591
sg73
(lp606
g66
(g67
g68
NtRp607
(dp608
g71
(dp609
g79
I3
ssg80
g603
sg73
(lp610
S''
asbasbasbag66
(g82
g68
NtRp611
(dp612
g71
(dp613
sg80
g487
sg73
(lp614
g66
(g87
g68
NtRp615
(dp616
g71
(dp617
g91
g92
ssg80
g611
sg73
(lp618
g432
asbag66
(g87
g68
NtRp619
(dp620
g71
(dp621
g98
g99
ssg80
g611
sg73
(lp622
S':'
asbag66
(g87
g68
NtRp623
(dp624
g71
(dp625
sg80
g611
sg73
(lp626
g66
(g67
g68
NtRp627
(dp628
g71
(dp629
g79
I3
ssg80
g623
sg73
(lp630
S''
asbasbasbag66
(g82
g68
NtRp631
(dp632
g71
(dp633
sg80
g487
sg73
(lp634
g66
(g87
g68
NtRp635
(dp636
g71
(dp637
g91
g92
ssg80
g631
sg73
(lp638
g453
asbag66
(g87
g68
NtRp639
(dp640
g71
(dp641
g98
g99
ssg80
g631
sg73
(lp642
S':'
asbag66
(g87
g68
NtRp643
(dp644
g71
(dp645
sg80
g631
sg73
(lp646
g66
(g67
g68
NtRp647
(dp648
g71
(dp649
g79
I3
ssg80
g643
sg73
(lp650
S''
asbasbasbasbasbasbasbag66
(g82
g68
NtRp651
(dp652
g71
(dp653
sg80
g269
sg73
(lp654
g66
(g87
g68
NtRp655
(dp656
g71
(dp657
g91
g92
ssg80
g651
sg73
(lp658
S'session_id_datos'
p659
asbag66
(g87
g68
NtRp660
(dp661
g71
(dp662
g98
g99
ssg80
g651
sg73
(lp663
S':'
asbag66
(g87
g68
NtRp664
(dp665
g71
(dp666
sg80
g651
sg73
(lp667
g66
(g67
g68
NtRp668
(dp669
g71
(dp670
g79
I4
ssg80
g664
sg73
(lp671
g66
(g75
g68
NtRp672
(dp673
g71
(dp674
g79
I3
ssg80
Nsg73
(lp675
g66
(g82
g68
NtRp676
(dp677
g71
(dp678
sg80
g672
sg73
(lp679
g66
(g87
g68
NtRp680
(dp681
g71
(dp682
g91
g92
ssg80
g676
sg73
(lp683
g306
asbag66
(g87
g68
NtRp684
(dp685
g71
(dp686
g98
g99
ssg80
g676
sg73
(lp687
S':'
asbag66
(g87
g68
NtRp688
(dp689
g71
(dp690
sg80
g676
sg73
(lp691
g66
(g67
g68
NtRp692
(dp693
g71
(dp694
g79
I3
ssg80
g688
sg73
(lp695
S''
asbasbasbag66
(g82
g68
NtRp696
(dp697
g71
(dp698
sg80
g672
sg73
(lp699
g66
(g87
g68
NtRp700
(dp701
g71
(dp702
g91
g92
ssg80
g696
sg73
(lp703
g327
asbag66
(g87
g68
NtRp704
(dp705
g71
(dp706
g98
g99
ssg80
g696
sg73
(lp707
S':'
asbag66
(g87
g68
NtRp708
(dp709
g71
(dp710
sg80
g696
sg73
(lp711
g66
(g67
g68
NtRp712
(dp713
g71
(dp714
g79
I3
ssg80
g708
sg73
(lp715
S''
asbasbasbag66
(g82
g68
NtRp716
(dp717
g71
(dp718
sg80
g672
sg73
(lp719
g66
(g87
g68
NtRp720
(dp721
g71
(dp722
g91
g92
ssg80
g716
sg73
(lp723
g348
asbag66
(g87
g68
NtRp724
(dp725
g71
(dp726
g98
g99
ssg80
g716
sg73
(lp727
S':'
asbag66
(g87
g68
NtRp728
(dp729
g71
(dp730
sg80
g716
sg73
(lp731
g66
(g67
g68
NtRp732
(dp733
g71
(dp734
g79
I3
ssg80
g728
sg73
(lp735
S''
asbasbasbag66
(g82
g68
NtRp736
(dp737
g71
(dp738
sg80
g672
sg73
(lp739
g66
(g87
g68
NtRp740
(dp741
g71
(dp742
g91
g92
ssg80
g736
sg73
(lp743
g369
asbag66
(g87
g68
NtRp744
(dp745
g71
(dp746
g98
g99
ssg80
g736
sg73
(lp747
S':'
asbag66
(g87
g68
NtRp748
(dp749
g71
(dp750
sg80
g736
sg73
(lp751
g66
(g67
g68
NtRp752
(dp753
g71
(dp754
g79
I3
ssg80
g748
sg73
(lp755
S''
asbasbasbag66
(g82
g68
NtRp756
(dp757
g71
(dp758
sg80
g672
sg73
(lp759
g66
(g87
g68
NtRp760
(dp761
g71
(dp762
g91
g92
ssg80
g756
sg73
(lp763
g390
asbag66
(g87
g68
NtRp764
(dp765
g71
(dp766
g98
g99
ssg80
g756
sg73
(lp767
S':'
asbag66
(g87
g68
NtRp768
(dp769
g71
(dp770
sg80
g756
sg73
(lp771
g66
(g67
g68
NtRp772
(dp773
g71
(dp774
g79
I3
ssg80
g768
sg73
(lp775
S''
asbasbasbag66
(g82
g68
NtRp776
(dp777
g71
(dp778
sg80
g672
sg73
(lp779
g66
(g87
g68
NtRp780
(dp781
g71
(dp782
g91
g92
ssg80
g776
sg73
(lp783
g411
asbag66
(g87
g68
NtRp784
(dp785
g71
(dp786
g98
g99
ssg80
g776
sg73
(lp787
S':'
asbag66
(g87
g68
NtRp788
(dp789
g71
(dp790
sg80
g776
sg73
(lp791
g66
(g67
g68
NtRp792
(dp793
g71
(dp794
g79
I3
ssg80
g788
sg73
(lp795
S''
asbasbasbag66
(g82
g68
NtRp796
(dp797
g71
(dp798
sg80
g672
sg73
(lp799
g66
(g87
g68
NtRp800
(dp801
g71
(dp802
g91
g92
ssg80
g796
sg73
(lp803
g432
asbag66
(g87
g68
NtRp804
(dp805
g71
(dp806
g98
g99
ssg80
g796
sg73
(lp807
S':'
asbag66
(g87
g68
NtRp808
(dp809
g71
(dp810
sg80
g796
sg73
(lp811
g66
(g67
g68
NtRp812
(dp813
g71
(dp814
g79
I3
ssg80
g808
sg73
(lp815
S''
asbasbasbag66
(g82
g68
NtRp816
(dp817
g71
(dp818
sg80
g672
sg73
(lp819
g66
(g87
g68
NtRp820
(dp821
g71
(dp822
g91
g92
ssg80
g816
sg73
(lp823
g453
asbag66
(g87
g68
NtRp824
(dp825
g71
(dp826
g98
g99
ssg80
g816
sg73
(lp827
S':'
asbag66
(g87
g68
NtRp828
(dp829
g71
(dp830
sg80
g816
sg73
(lp831
g66
(g67
g68
NtRp832
(dp833
g71
(dp834
g79
I3
ssg80
g828
sg73
(lp835
S''
asbasbasbasbasbasbasbag66
(g82
g68
NtRp836
(dp837
g71
(dp838
sg80
g269
sg73
(lp839
g66
(g87
g68
NtRp840
(dp841
g71
(dp842
g91
g92
ssg80
g836
sg73
(lp843
S'session_id_my_web'
p844
asbag66
(g87
g68
NtRp845
(dp846
g71
(dp847
g98
g99
ssg80
g836
sg73
(lp848
S':'
asbag66
(g87
g68
NtRp849
(dp850
g71
(dp851
sg80
g836
sg73
(lp852
g66
(g67
g68
NtRp853
(dp854
g71
(dp855
g79
I4
ssg80
g849
sg73
(lp856
g66
(g75
g68
NtRp857
(dp858
g71
(dp859
g79
I3
ssg80
Nsg73
(lp860
g66
(g82
g68
NtRp861
(dp862
g71
(dp863
sg80
g857
sg73
(lp864
g66
(g87
g68
NtRp865
(dp866
g71
(dp867
g91
g92
ssg80
g861
sg73
(lp868
g306
asbag66
(g87
g68
NtRp869
(dp870
g71
(dp871
g98
g99
ssg80
g861
sg73
(lp872
S':'
asbag66
(g87
g68
NtRp873
(dp874
g71
(dp875
sg80
g861
sg73
(lp876
g66
(g67
g68
NtRp877
(dp878
g71
(dp879
g79
I3
ssg80
g873
sg73
(lp880
S''
asbasbasbag66
(g82
g68
NtRp881
(dp882
g71
(dp883
sg80
g857
sg73
(lp884
g66
(g87
g68
NtRp885
(dp886
g71
(dp887
g91
g92
ssg80
g881
sg73
(lp888
g327
asbag66
(g87
g68
NtRp889
(dp890
g71
(dp891
g98
g99
ssg80
g881
sg73
(lp892
S':'
asbag66
(g87
g68
NtRp893
(dp894
g71
(dp895
sg80
g881
sg73
(lp896
g66
(g67
g68
NtRp897
(dp898
g71
(dp899
g79
I3
ssg80
g893
sg73
(lp900
S''
asbasbasbag66
(g82
g68
NtRp901
(dp902
g71
(dp903
sg80
g857
sg73
(lp904
g66
(g87
g68
NtRp905
(dp906
g71
(dp907
g91
g92
ssg80
g901
sg73
(lp908
g348
asbag66
(g87
g68
NtRp909
(dp910
g71
(dp911
g98
g99
ssg80
g901
sg73
(lp912
S':'
asbag66
(g87
g68
NtRp913
(dp914
g71
(dp915
sg80
g901
sg73
(lp916
g66
(g67
g68
NtRp917
(dp918
g71
(dp919
g79
I3
ssg80
g913
sg73
(lp920
S''
asbasbasbag66
(g82
g68
NtRp921
(dp922
g71
(dp923
sg80
g857
sg73
(lp924
g66
(g87
g68
NtRp925
(dp926
g71
(dp927
g91
g92
ssg80
g921
sg73
(lp928
g369
asbag66
(g87
g68
NtRp929
(dp930
g71
(dp931
g98
g99
ssg80
g921
sg73
(lp932
S':'
asbag66
(g87
g68
NtRp933
(dp934
g71
(dp935
sg80
g921
sg73
(lp936
g66
(g67
g68
NtRp937
(dp938
g71
(dp939
g79
I3
ssg80
g933
sg73
(lp940
S''
asbasbasbag66
(g82
g68
NtRp941
(dp942
g71
(dp943
sg80
g857
sg73
(lp944
g66
(g87
g68
NtRp945
(dp946
g71
(dp947
g91
g92
ssg80
g941
sg73
(lp948
g390
asbag66
(g87
g68
NtRp949
(dp950
g71
(dp951
g98
g99
ssg80
g941
sg73
(lp952
S':'
asbag66
(g87
g68
NtRp953
(dp954
g71
(dp955
sg80
g941
sg73
(lp956
g66
(g67
g68
NtRp957
(dp958
g71
(dp959
g79
I3
ssg80
g953
sg73
(lp960
S''
asbasbasbag66
(g82
g68
NtRp961
(dp962
g71
(dp963
sg80
g857
sg73
(lp964
g66
(g87
g68
NtRp965
(dp966
g71
(dp967
g91
g92
ssg80
g961
sg73
(lp968
g411
asbag66
(g87
g68
NtRp969
(dp970
g71
(dp971
g98
g99
ssg80
g961
sg73
(lp972
S':'
asbag66
(g87
g68
NtRp973
(dp974
g71
(dp975
sg80
g961
sg73
(lp976
g66
(g67
g68
NtRp977
(dp978
g71
(dp979
g79
I3
ssg80
g973
sg73
(lp980
S''
asbasbasbag66
(g82
g68
NtRp981
(dp982
g71
(dp983
sg80
g857
sg73
(lp984
g66
(g87
g68
NtRp985
(dp986
g71
(dp987
g91
g92
ssg80
g981
sg73
(lp988
g432
asbag66
(g87
g68
NtRp989
(dp990
g71
(dp991
g98
g99
ssg80
g981
sg73
(lp992
S':'
asbag66
(g87
g68
NtRp993
(dp994
g71
(dp995
sg80
g981
sg73
(lp996
g66
(g67
g68
NtRp997
(dp998
g71
(dp999
g79
I3
ssg80
g993
sg73
(lp1000
S''
asbasbasbag66
(g82
g68
NtRp1001
(dp1002
g71
(dp1003
sg80
g857
sg73
(lp1004
g66
(g87
g68
NtRp1005
(dp1006
g71
(dp1007
g91
g92
ssg80
g1001
sg73
(lp1008
g453
asbag66
(g87
g68
NtRp1009
(dp1010
g71
(dp1011
g98
g99
ssg80
g1001
sg73
(lp1012
S':'
asbag66
(g87
g68
NtRp1013
(dp1014
g71
(dp1015
sg80
g1001
sg73
(lp1016
g66
(g67
g68
NtRp1017
(dp1018
g71
(dp1019
g79
I3
ssg80
g1013
sg73
(lp1020
S''
asbasbasbasbasbasbasbag66
(g82
g68
NtRp1021
(dp1022
g71
(dp1023
sg80
g269
sg73
(lp1024
g66
(g87
g68
NtRp1025
(dp1026
g71
(dp1027
g91
g92
ssg80
g1021
sg73
(lp1028
S'session_id_welcome'
p1029
asbag66
(g87
g68
NtRp1030
(dp1031
g71
(dp1032
g98
g99
ssg80
g1021
sg73
(lp1033
S':'
asbag66
(g87
g68
NtRp1034
(dp1035
g71
(dp1036
sg80
g1021
sg73
(lp1037
g66
(g67
g68
NtRp1038
(dp1039
g71
(dp1040
g79
I4
ssg80
g1034
sg73
(lp1041
g66
(g75
g68
NtRp1042
(dp1043
g71
(dp1044
g79
I3
ssg80
Nsg73
(lp1045
g66
(g82
g68
NtRp1046
(dp1047
g71
(dp1048
sg80
g1042
sg73
(lp1049
g66
(g87
g68
NtRp1050
(dp1051
g71
(dp1052
g91
g92
ssg80
g1046
sg73
(lp1053
g306
asbag66
(g87
g68
NtRp1054
(dp1055
g71
(dp1056
g98
g99
ssg80
g1046
sg73
(lp1057
S':'
asbag66
(g87
g68
NtRp1058
(dp1059
g71
(dp1060
sg80
g1046
sg73
(lp1061
g66
(g67
g68
NtRp1062
(dp1063
g71
(dp1064
g79
I3
ssg80
g1058
sg73
(lp1065
S''
asbasbasbag66
(g82
g68
NtRp1066
(dp1067
g71
(dp1068
sg80
g1042
sg73
(lp1069
g66
(g87
g68
NtRp1070
(dp1071
g71
(dp1072
g91
g92
ssg80
g1066
sg73
(lp1073
g327
asbag66
(g87
g68
NtRp1074
(dp1075
g71
(dp1076
g98
g99
ssg80
g1066
sg73
(lp1077
S':'
asbag66
(g87
g68
NtRp1078
(dp1079
g71
(dp1080
sg80
g1066
sg73
(lp1081
g66
(g67
g68
NtRp1082
(dp1083
g71
(dp1084
g79
I3
ssg80
g1078
sg73
(lp1085
S''
asbasbasbag66
(g82
g68
NtRp1086
(dp1087
g71
(dp1088
sg80
g1042
sg73
(lp1089
g66
(g87
g68
NtRp1090
(dp1091
g71
(dp1092
g91
g92
ssg80
g1086
sg73
(lp1093
g348
asbag66
(g87
g68
NtRp1094
(dp1095
g71
(dp1096
g98
g99
ssg80
g1086
sg73
(lp1097
S':'
asbag66
(g87
g68
NtRp1098
(dp1099
g71
(dp1100
sg80
g1086
sg73
(lp1101
g66
(g67
g68
NtRp1102
(dp1103
g71
(dp1104
g79
I3
ssg80
g1098
sg73
(lp1105
S''
asbasbasbag66
(g82
g68
NtRp1106
(dp1107
g71
(dp1108
sg80
g1042
sg73
(lp1109
g66
(g87
g68
NtRp1110
(dp1111
g71
(dp1112
g91
g92
ssg80
g1106
sg73
(lp1113
g369
asbag66
(g87
g68
NtRp1114
(dp1115
g71
(dp1116
g98
g99
ssg80
g1106
sg73
(lp1117
S':'
asbag66
(g87
g68
NtRp1118
(dp1119
g71
(dp1120
sg80
g1106
sg73
(lp1121
g66
(g67
g68
NtRp1122
(dp1123
g71
(dp1124
g79
I3
ssg80
g1118
sg73
(lp1125
S''
asbasbasbag66
(g82
g68
NtRp1126
(dp1127
g71
(dp1128
sg80
g1042
sg73
(lp1129
g66
(g87
g68
NtRp1130
(dp1131
g71
(dp1132
g91
g92
ssg80
g1126
sg73
(lp1133
g390
asbag66
(g87
g68
NtRp1134
(dp1135
g71
(dp1136
g98
g99
ssg80
g1126
sg73
(lp1137
S':'
asbag66
(g87
g68
NtRp1138
(dp1139
g71
(dp1140
sg80
g1126
sg73
(lp1141
g66
(g67
g68
NtRp1142
(dp1143
g71
(dp1144
g79
I3
ssg80
g1138
sg73
(lp1145
S''
asbasbasbag66
(g82
g68
NtRp1146
(dp1147
g71
(dp1148
sg80
g1042
sg73
(lp1149
g66
(g87
g68
NtRp1150
(dp1151
g71
(dp1152
g91
g92
ssg80
g1146
sg73
(lp1153
g411
asbag66
(g87
g68
NtRp1154
(dp1155
g71
(dp1156
g98
g99
ssg80
g1146
sg73
(lp1157
S':'
asbag66
(g87
g68
NtRp1158
(dp1159
g71
(dp1160
sg80
g1146
sg73
(lp1161
g66
(g67
g68
NtRp1162
(dp1163
g71
(dp1164
g79
I3
ssg80
g1158
sg73
(lp1165
S''
asbasbasbag66
(g82
g68
NtRp1166
(dp1167
g71
(dp1168
sg80
g1042
sg73
(lp1169
g66
(g87
g68
NtRp1170
(dp1171
g71
(dp1172
g91
g92
ssg80
g1166
sg73
(lp1173
g432
asbag66
(g87
g68
NtRp1174
(dp1175
g71
(dp1176
g98
g99
ssg80
g1166
sg73
(lp1177
S':'
asbag66
(g87
g68
NtRp1178
(dp1179
g71
(dp1180
sg80
g1166
sg73
(lp1181
g66
(g67
g68
NtRp1182
(dp1183
g71
(dp1184
g79
I3
ssg80
g1178
sg73
(lp1185
S''
asbasbasbag66
(g82
g68
NtRp1186
(dp1187
g71
(dp1188
sg80
g1042
sg73
(lp1189
g66
(g87
g68
NtRp1190
(dp1191
g71
(dp1192
g91
g92
ssg80
g1186
sg73
(lp1193
g453
asbag66
(g87
g68
NtRp1194
(dp1195
g71
(dp1196
g98
g99
ssg80
g1186
sg73
(lp1197
S':'
asbag66
(g87
g68
NtRp1198
(dp1199
g71
(dp1200
sg80
g1186
sg73
(lp1201
g66
(g67
g68
NtRp1202
(dp1203
g71
(dp1204
g79
I3
ssg80
g1198
sg73
(lp1205
S''
asbasbasbasbasbasbasbasbasbasbasbag66
(g82
g68
NtRp1206
(dp1207
g71
(dp1208
sg80
g76
sg73
(lp1209
g66
(g87
g68
NtRp1210
(dp1211
g71
(dp1212
g91
g92
ssg80
g1206
sg73
(lp1213
S'env'
p1214
asbag66
(g87
g68
NtRp1215
(dp1216
g71
(dp1217
g98
g99
ssg80
g1206
sg73
(lp1218
S':'
asbag66
(g87
g68
NtRp1219
(dp1220
g71
(dp1221
sg80
g1206
sg73
(lp1222
g66
(g67
g68
NtRp1223
(dp1224
g71
(dp1225
g79
I5
ssg80
g1219
sg73
(lp1226
g66
(g75
g68
NtRp1227
(dp1228
g71
(dp1229
g79
I4
ssg80
Nsg73
(lp1230
g66
(g82
g68
NtRp1231
(dp1232
g71
(dp1233
sg80
g1227
sg73
(lp1234
g66
(g87
g68
NtRp1235
(dp1236
g71
(dp1237
g91
g92
ssg80
g1231
sg73
(lp1238
S'app_folders'
p1239
asbag66
(g87
g68
NtRp1240
(dp1241
g71
(dp1242
g98
g99
ssg80
g1231
sg73
(lp1243
S':'
asbag66
(g87
g68
NtRp1244
(dp1245
g71
(dp1246
sg80
g1231
sg73
(lp1247
g66
(g67
g68
NtRp1248
(dp1249
g71
(dp1250
g79
I4
ssg80
g1244
sg73
(lp1251
S"set(['/home/alumno/web2py/applications/admin/', '/home/alumno/web2py/applications/my_web/', '/home/alumno/web2py/applications/examples/', '/home/alumno/web2py/applications/welcome/', '/home/alumno/web2py/applications/datos/'])"
p1252
asbasbasbag66
(g82
g68
NtRp1253
(dp1254
g71
(dp1255
sg80
g1227
sg73
(lp1256
g66
(g87
g68
NtRp1257
(dp1258
g71
(dp1259
g91
g92
ssg80
g1253
sg73
(lp1260
S'applications_parent'
p1261
asbag66
(g87
g68
NtRp1262
(dp1263
g71
(dp1264
g98
g99
ssg80
g1253
sg73
(lp1265
S':'
asbag66
(g87
g68
NtRp1266
(dp1267
g71
(dp1268
sg80
g1253
sg73
(lp1269
g66
(g67
g68
NtRp1270
(dp1271
g71
(dp1272
g79
I4
ssg80
g1266
sg73
(lp1273
S'/home/alumno/web2py'
p1274
asbasbasbag66
(g82
g68
NtRp1275
(dp1276
g71
(dp1277
sg80
g1227
sg73
(lp1278
g66
(g87
g68
NtRp1279
(dp1280
g71
(dp1281
g91
g92
ssg80
g1275
sg73
(lp1282
S'cmd_args'
p1283
asbag66
(g87
g68
NtRp1284
(dp1285
g71
(dp1286
g98
g99
ssg80
g1275
sg73
(lp1287
S':'
asbag66
(g87
g68
NtRp1288
(dp1289
g71
(dp1290
sg80
g1275
sg73
(lp1291
g66
(g67
g68
NtRp1292
(dp1293
g71
(dp1294
g79
I4
ssg80
g1288
sg73
(lp1295
g66
(g75
g68
NtRp1296
(dp1297
g71
(dp1298
g79
I3
ssg80
Nsg73
(lp1299
sbasbasbasbag66
(g82
g68
NtRp1300
(dp1301
g71
(dp1302
sg80
g1227
sg73
(lp1303
g66
(g87
g68
NtRp1304
(dp1305
g71
(dp1306
g91
g92
ssg80
g1300
sg73
(lp1307
S'cmd_options'
p1308
asbag66
(g87
g68
NtRp1309
(dp1310
g71
(dp1311
g98
g99
ssg80
g1300
sg73
(lp1312
S':'
asbag66
(g87
g68
NtRp1313
(dp1314
g71
(dp1315
sg80
g1300
sg73
(lp1316
g66
(g67
g68
NtRp1317
(dp1318
g71
(dp1319
g79
I4
ssg80
g1313
sg73
(lp1320
S"<Values at 0x98648ac: {'verbose': False, 'ip': '127.0.0.1', 'shutdown_timeout': 5, 'taskbar': False, 'port': 8000, 'maxthreads': None, 'softcron': False, 'server_name': 'ubuntu-dev', 'bpython': False, 'nogui': False, 'nocron': False, 'extcron': False, 'debuglevel': 30, 'test': None, 'folder': '/home/alumno/web2py', 'config': '', 'import_models': False, 'winservice': '', 'shell': None, 'run': '', 'log_filename': 'httpserver.log', 'args': [''], 'profiler_filename': None, 'ssl_private_key': '', 'password': 'conti', 'request_queue_size': 5, 'ssl_certificate': '', 'cronjob': False, 'plain': False, 'quiet': False, 'interfaces': None, 'minthreads': None, 'timeout': 10, 'numthreads': None, 'nobanner': False, 'pid_filename': 'httpserver.pid'}>"
p1321
asbasbasbag66
(g82
g68
NtRp1322
(dp1323
g71
(dp1324
sg80
g1227
sg73
(lp1325
g66
(g87
g68
NtRp1326
(dp1327
g71
(dp1328
g91
g92
ssg80
g1322
sg73
(lp1329
S'content_length'
p1330
asbag66
(g87
g68
NtRp1331
(dp1332
g71
(dp1333
g98
g99
ssg80
g1322
sg73
(lp1334
S':'
asbag66
(g87
g68
NtRp1335
(dp1336
g71
(dp1337
sg80
g1322
sg73
(lp1338
g66
(g67
g68
NtRp1339
(dp1340
g71
(dp1341
g79
I4
ssg80
g1335
sg73
(lp1342
S'1037'
p1343
asbasbasbag66
(g82
g68
NtRp1344
(dp1345
g71
(dp1346
sg80
g1227
sg73
(lp1347
g66
(g87
g68
NtRp1348
(dp1349
g71
(dp1350
g91
g92
ssg80
g1344
sg73
(lp1351
S'content_type'
p1352
asbag66
(g87
g68
NtRp1353
(dp1354
g71
(dp1355
g98
g99
ssg80
g1344
sg73
(lp1356
S':'
asbag66
(g87
g68
NtRp1357
(dp1358
g71
(dp1359
sg80
g1344
sg73
(lp1360
g66
(g67
g68
NtRp1361
(dp1362
g71
(dp1363
g79
I4
ssg80
g1357
sg73
(lp1364
S'multipart/form-data; boundary=---------------------------489363264117496490158121067'
p1365
asbasbasbag66
(g82
g68
NtRp1366
(dp1367
g71
(dp1368
sg80
g1227
sg73
(lp1369
g66
(g87
g68
NtRp1370
(dp1371
g71
(dp1372
g91
g92
ssg80
g1366
sg73
(lp1373
S'db_sessions'
p1374
asbag66
(g87
g68
NtRp1375
(dp1376
g71
(dp1377
g98
g99
ssg80
g1366
sg73
(lp1378
S':'
asbag66
(g87
g68
NtRp1379
(dp1380
g71
(dp1381
sg80
g1366
sg73
(lp1382
g66
(g67
g68
NtRp1383
(dp1384
g71
(dp1385
g79
I4
ssg80
g1379
sg73
(lp1386
S'set([])'
p1387
asbasbasbag66
(g82
g68
NtRp1388
(dp1389
g71
(dp1390
sg80
g1227
sg73
(lp1391
g66
(g87
g68
NtRp1392
(dp1393
g71
(dp1394
g91
g92
ssg80
g1388
sg73
(lp1395
S'debugging'
p1396
asbag66
(g87
g68
NtRp1397
(dp1398
g71
(dp1399
g98
g99
ssg80
g1388
sg73
(lp1400
S':'
asbag66
(g87
g68
NtRp1401
(dp1402
g71
(dp1403
sg80
g1388
sg73
(lp1404
g66
(g67
g68
NtRp1405
(dp1406
g71
(dp1407
g79
I4
ssg80
g1401
sg73
(lp1408
g109
asbasbasbag66
(g82
g68
NtRp1409
(dp1410
g71
(dp1411
sg80
g1227
sg73
(lp1412
g66
(g87
g68
NtRp1413
(dp1414
g71
(dp1415
g91
g92
ssg80
g1409
sg73
(lp1416
S'gluon_parent'
p1417
asbag66
(g87
g68
NtRp1418
(dp1419
g71
(dp1420
g98
g99
ssg80
g1409
sg73
(lp1421
S':'
asbag66
(g87
g68
NtRp1422
(dp1423
g71
(dp1424
sg80
g1409
sg73
(lp1425
g66
(g67
g68
NtRp1426
(dp1427
g71
(dp1428
g79
I4
ssg80
g1422
sg73
(lp1429
S'/home/alumno/web2py'
p1430
asbasbasbag66
(g82
g68
NtRp1431
(dp1432
g71
(dp1433
sg80
g1227
sg73
(lp1434
g66
(g87
g68
NtRp1435
(dp1436
g71
(dp1437
g91
g92
ssg80
g1431
sg73
(lp1438
S'http_accept'
p1439
asbag66
(g87
g68
NtRp1440
(dp1441
g71
(dp1442
g98
g99
ssg80
g1431
sg73
(lp1443
S':'
asbag66
(g87
g68
NtRp1444
(dp1445
g71
(dp1446
sg80
g1431
sg73
(lp1447
g66
(g67
g68
NtRp1448
(dp1449
g71
(dp1450
g79
I4
ssg80
g1444
sg73
(lp1451
S'text/html,application/xhtml+xml,application/xml;q=0.9,*/*;q=0.8'
p1452
asbasbasbag66
(g82
g68
NtRp1453
(dp1454
g71
(dp1455
sg80
g1227
sg73
(lp1456
g66
(g87
g68
NtRp1457
(dp1458
g71
(dp1459
g91
g92
ssg80
g1453
sg73
(lp1460
S'http_accept_charset'
p1461
asbag66
(g87
g68
NtRp1462
(dp1463
g71
(dp1464
g98
g99
ssg80
g1453
sg73
(lp1465
S':'
asbag66
(g87
g68
NtRp1466
(dp1467
g71
(dp1468
sg80
g1453
sg73
(lp1469
g66
(g67
g68
NtRp1470
(dp1471
g71
(dp1472
g79
I4
ssg80
g1466
sg73
(lp1473
S'ISO-8859-1,utf-8;q=0.7,*;q=0.7'
p1474
asbasbasbag66
(g82
g68
NtRp1475
(dp1476
g71
(dp1477
sg80
g1227
sg73
(lp1478
g66
(g87
g68
NtRp1479
(dp1480
g71
(dp1481
g91
g92
ssg80
g1475
sg73
(lp1482
S'http_accept_encoding'
p1483
asbag66
(g87
g68
NtRp1484
(dp1485
g71
(dp1486
g98
g99
ssg80
g1475
sg73
(lp1487
S':'
asbag66
(g87
g68
NtRp1488
(dp1489
g71
(dp1490
sg80
g1475
sg73
(lp1491
g66
(g67
g68
NtRp1492
(dp1493
g71
(dp1494
g79
I4
ssg80
g1488
sg73
(lp1495
S'gzip, deflate'
p1496
asbasbasbag66
(g82
g68
NtRp1497
(dp1498
g71
(dp1499
sg80
g1227
sg73
(lp1500
g66
(g87
g68
NtRp1501
(dp1502
g71
(dp1503
g91
g92
ssg80
g1497
sg73
(lp1504
S'http_accept_language'
p1505
asbag66
(g87
g68
NtRp1506
(dp1507
g71
(dp1508
g98
g99
ssg80
g1497
sg73
(lp1509
S':'
asbag66
(g87
g68
NtRp1510
(dp1511
g71
(dp1512
sg80
g1497
sg73
(lp1513
g66
(g67
g68
NtRp1514
(dp1515
g71
(dp1516
g79
I4
ssg80
g1510
sg73
(lp1517
S'es-ar,es;q=0.8,en-us;q=0.5,en;q=0.3'
p1518
asbasbasbag66
(g82
g68
NtRp1519
(dp1520
g71
(dp1521
sg80
g1227
sg73
(lp1522
g66
(g87
g68
NtRp1523
(dp1524
g71
(dp1525
g91
g92
ssg80
g1519
sg73
(lp1526
S'http_cache_control'
p1527
asbag66
(g87
g68
NtRp1528
(dp1529
g71
(dp1530
g98
g99
ssg80
g1519
sg73
(lp1531
S':'
asbag66
(g87
g68
NtRp1532
(dp1533
g71
(dp1534
sg80
g1519
sg73
(lp1535
g66
(g67
g68
NtRp1536
(dp1537
g71
(dp1538
g79
I4
ssg80
g1532
sg73
(lp1539
S'max-age=0'
p1540
asbasbasbag66
(g82
g68
NtRp1541
(dp1542
g71
(dp1543
sg80
g1227
sg73
(lp1544
g66
(g87
g68
NtRp1545
(dp1546
g71
(dp1547
g91
g92
ssg80
g1541
sg73
(lp1548
S'http_connection'
p1549
asbag66
(g87
g68
NtRp1550
(dp1551
g71
(dp1552
g98
g99
ssg80
g1541
sg73
(lp1553
S':'
asbag66
(g87
g68
NtRp1554
(dp1555
g71
(dp1556
sg80
g1541
sg73
(lp1557
g66
(g67
g68
NtRp1558
(dp1559
g71
(dp1560
g79
I4
ssg80
g1554
sg73
(lp1561
S'keep-alive'
p1562
asbasbasbag66
(g82
g68
NtRp1563
(dp1564
g71
(dp1565
sg80
g1227
sg73
(lp1566
g66
(g87
g68
NtRp1567
(dp1568
g71
(dp1569
g91
g92
ssg80
g1563
sg73
(lp1570
S'http_content_length'
p1571
asbag66
(g87
g68
NtRp1572
(dp1573
g71
(dp1574
g98
g99
ssg80
g1563
sg73
(lp1575
S':'
asbag66
(g87
g68
NtRp1576
(dp1577
g71
(dp1578
sg80
g1563
sg73
(lp1579
g66
(g67
g68
NtRp1580
(dp1581
g71
(dp1582
g79
I4
ssg80
g1576
sg73
(lp1583
g1343
asbasbasbag66
(g82
g68
NtRp1584
(dp1585
g71
(dp1586
sg80
g1227
sg73
(lp1587
g66
(g87
g68
NtRp1588
(dp1589
g71
(dp1590
g91
g92
ssg80
g1584
sg73
(lp1591
S'http_content_type'
p1592
asbag66
(g87
g68
NtRp1593
(dp1594
g71
(dp1595
g98
g99
ssg80
g1584
sg73
(lp1596
S':'
asbag66
(g87
g68
NtRp1597
(dp1598
g71
(dp1599
sg80
g1584
sg73
(lp1600
g66
(g67
g68
NtRp1601
(dp1602
g71
(dp1603
g79
I4
ssg80
g1597
sg73
(lp1604
g1365
asbasbasbag66
(g82
g68
NtRp1605
(dp1606
g71
(dp1607
sg80
g1227
sg73
(lp1608
g66
(g87
g68
NtRp1609
(dp1610
g71
(dp1611
g91
g92
ssg80
g1605
sg73
(lp1612
S'http_cookie'
p1613
asbag66
(g87
g68
NtRp1614
(dp1615
g71
(dp1616
g98
g99
ssg80
g1605
sg73
(lp1617
S':'
asbag66
(g87
g68
NtRp1618
(dp1619
g71
(dp1620
sg80
g1605
sg73
(lp1621
g66
(g67
g68
NtRp1622
(dp1623
g71
(dp1624
g79
I4
ssg80
g1618
sg73
(lp1625
S'session_id_welcome=127.0.0.1-9d762582-aeab-478d-b2b3-d1c071f4ad01; session_id_admin=127.0.0.1-f292cc01-f792-44fe-abe4-b2667851a938; adminLanguage=es-es; session_id_my_web=127.0.0.1-47c190eb-acb3-4e98-b30b-5e2f6df99186; session_id_datos=127.0.0.1-db62c583-5264-4eba-ba24-7cb87b43795a'
p1626
asbasbasbag66
(g82
g68
NtRp1627
(dp1628
g71
(dp1629
sg80
g1227
sg73
(lp1630
g66
(g87
g68
NtRp1631
(dp1632
g71
(dp1633
g91
g92
ssg80
g1627
sg73
(lp1634
S'http_host'
p1635
asbag66
(g87
g68
NtRp1636
(dp1637
g71
(dp1638
g98
g99
ssg80
g1627
sg73
(lp1639
S':'
asbag66
(g87
g68
NtRp1640
(dp1641
g71
(dp1642
sg80
g1627
sg73
(lp1643
g66
(g67
g68
NtRp1644
(dp1645
g71
(dp1646
g79
I4
ssg80
g1640
sg73
(lp1647
S'127.0.0.1:8000'
p1648
asbasbasbag66
(g82
g68
NtRp1649
(dp1650
g71
(dp1651
sg80
g1227
sg73
(lp1652
g66
(g87
g68
NtRp1653
(dp1654
g71
(dp1655
g91
g92
ssg80
g1649
sg73
(lp1656
S'http_referer'
p1657
asbag66
(g87
g68
NtRp1658
(dp1659
g71
(dp1660
g98
g99
ssg80
g1649
sg73
(lp1661
S':'
asbag66
(g87
g68
NtRp1662
(dp1663
g71
(dp1664
sg80
g1649
sg73
(lp1665
g66
(g67
g68
NtRp1666
(dp1667
g71
(dp1668
g79
I4
ssg80
g1662
sg73
(lp1669
S'http://127.0.0.1:8000/datos/appadmin/insert/db/alumno'
p1670
asbasbasbag66
(g82
g68
NtRp1671
(dp1672
g71
(dp1673
sg80
g1227
sg73
(lp1674
g66
(g87
g68
NtRp1675
(dp1676
g71
(dp1677
g91
g92
ssg80
g1671
sg73
(lp1678
S'http_user_agent'
p1679
asbag66
(g87
g68
NtRp1680
(dp1681
g71
(dp1682
g98
g99
ssg80
g1671
sg73
(lp1683
S':'
asbag66
(g87
g68
NtRp1684
(dp1685
g71
(dp1686
sg80
g1671
sg73
(lp1687
g66
(g67
g68
NtRp1688
(dp1689
g71
(dp1690
g79
I4
ssg80
g1684
sg73
(lp1691
S'Mozilla/5.0 (X11; Linux i686; rv:6.0) Gecko/20100101 Firefox/6.0'
p1692
asbasbasbag66
(g82
g68
NtRp1693
(dp1694
g71
(dp1695
sg80
g1227
sg73
(lp1696
g66
(g87
g68
NtRp1697
(dp1698
g71
(dp1699
g91
g92
ssg80
g1693
sg73
(lp1700
S'is_jython'
p1701
asbag66
(g87
g68
NtRp1702
(dp1703
g71
(dp1704
g98
g99
ssg80
g1693
sg73
(lp1705
S':'
asbag66
(g87
g68
NtRp1706
(dp1707
g71
(dp1708
sg80
g1693
sg73
(lp1709
g66
(g67
g68
NtRp1710
(dp1711
g71
(dp1712
g79
I4
ssg80
g1706
sg73
(lp1713
g109
asbasbasbag66
(g82
g68
NtRp1714
(dp1715
g71
(dp1716
sg80
g1227
sg73
(lp1717
g66
(g87
g68
NtRp1718
(dp1719
g71
(dp1720
g91
g92
ssg80
g1714
sg73
(lp1721
S'path_info'
p1722
asbag66
(g87
g68
NtRp1723
(dp1724
g71
(dp1725
g98
g99
ssg80
g1714
sg73
(lp1726
S':'
asbag66
(g87
g68
NtRp1727
(dp1728
g71
(dp1729
sg80
g1714
sg73
(lp1730
g66
(g67
g68
NtRp1731
(dp1732
g71
(dp1733
g79
I4
ssg80
g1727
sg73
(lp1734
S'/datos/appadmin/insert/db/alumno'
p1735
asbasbasbag66
(g82
g68
NtRp1736
(dp1737
g71
(dp1738
sg80
g1227
sg73
(lp1739
g66
(g87
g68
NtRp1740
(dp1741
g71
(dp1742
g91
g92
ssg80
g1736
sg73
(lp1743
S'query_string'
p1744
asbag66
(g87
g68
NtRp1745
(dp1746
g71
(dp1747
g98
g99
ssg80
g1736
sg73
(lp1748
S':'
asbag66
(g87
g68
NtRp1749
(dp1750
g71
(dp1751
sg80
g1736
sg73
(lp1752
g66
(g67
g68
NtRp1753
(dp1754
g71
(dp1755
g79
I4
ssg80
g1749
sg73
(lp1756
S''
asbasbasbag66
(g82
g68
NtRp1757
(dp1758
g71
(dp1759
sg80
g1227
sg73
(lp1760
g66
(g87
g68
NtRp1761
(dp1762
g71
(dp1763
g91
g92
ssg80
g1757
sg73
(lp1764
S'remote_addr'
p1765
asbag66
(g87
g68
NtRp1766
(dp1767
g71
(dp1768
g98
g99
ssg80
g1757
sg73
(lp1769
S':'
asbag66
(g87
g68
NtRp1770
(dp1771
g71
(dp1772
sg80
g1757
sg73
(lp1773
g66
(g67
g68
NtRp1774
(dp1775
g71
(dp1776
g79
I4
ssg80
g1770
sg73
(lp1777
g225
asbasbasbag66
(g82
g68
NtRp1778
(dp1779
g71
(dp1780
sg80
g1227
sg73
(lp1781
g66
(g87
g68
NtRp1782
(dp1783
g71
(dp1784
g91
g92
ssg80
g1778
sg73
(lp1785
S'remote_port'
p1786
asbag66
(g87
g68
NtRp1787
(dp1788
g71
(dp1789
g98
g99
ssg80
g1778
sg73
(lp1790
S':'
asbag66
(g87
g68
NtRp1791
(dp1792
g71
(dp1793
sg80
g1778
sg73
(lp1794
g66
(g67
g68
NtRp1795
(dp1796
g71
(dp1797
g79
I4
ssg80
g1791
sg73
(lp1798
S'46392'
p1799
asbasbasbag66
(g82
g68
NtRp1800
(dp1801
g71
(dp1802
sg80
g1227
sg73
(lp1803
g66
(g87
g68
NtRp1804
(dp1805
g71
(dp1806
g91
g92
ssg80
g1800
sg73
(lp1807
S'request_method'
p1808
asbag66
(g87
g68
NtRp1809
(dp1810
g71
(dp1811
g98
g99
ssg80
g1800
sg73
(lp1812
S':'
asbag66
(g87
g68
NtRp1813
(dp1814
g71
(dp1815
sg80
g1800
sg73
(lp1816
g66
(g67
g68
NtRp1817
(dp1818
g71
(dp1819
g79
I4
ssg80
g1813
sg73
(lp1820
S'POST'
p1821
asbasbasbag66
(g82
g68
NtRp1822
(dp1823
g71
(dp1824
sg80
g1227
sg73
(lp1825
g66
(g87
g68
NtRp1826
(dp1827
g71
(dp1828
g91
g92
ssg80
g1822
sg73
(lp1829
S'script_name'
p1830
asbag66
(g87
g68
NtRp1831
(dp1832
g71
(dp1833
g98
g99
ssg80
g1822
sg73
(lp1834
S':'
asbag66
(g87
g68
NtRp1835
(dp1836
g71
(dp1837
sg80
g1822
sg73
(lp1838
g66
(g67
g68
NtRp1839
(dp1840
g71
(dp1841
g79
I4
ssg80
g1835
sg73
(lp1842
S''
asbasbasbag66
(g82
g68
NtRp1843
(dp1844
g71
(dp1845
sg80
g1227
sg73
(lp1846
g66
(g87
g68
NtRp1847
(dp1848
g71
(dp1849
g91
g92
ssg80
g1843
sg73
(lp1850
S'server_name'
p1851
asbag66
(g87
g68
NtRp1852
(dp1853
g71
(dp1854
g98
g99
ssg80
g1843
sg73
(lp1855
S':'
asbag66
(g87
g68
NtRp1856
(dp1857
g71
(dp1858
sg80
g1843
sg73
(lp1859
g66
(g67
g68
NtRp1860
(dp1861
g71
(dp1862
g79
I4
ssg80
g1856
sg73
(lp1863
S'ubuntu-dev'
p1864
asbasbasbag66
(g82
g68
NtRp1865
(dp1866
g71
(dp1867
sg80
g1227
sg73
(lp1868
g66
(g87
g68
NtRp1869
(dp1870
g71
(dp1871
g91
g92
ssg80
g1865
sg73
(lp1872
S'server_port'
p1873
asbag66
(g87
g68
NtRp1874
(dp1875
g71
(dp1876
g98
g99
ssg80
g1865
sg73
(lp1877
S':'
asbag66
(g87
g68
NtRp1878
(dp1879
g71
(dp1880
sg80
g1865
sg73
(lp1881
g66
(g67
g68
NtRp1882
(dp1883
g71
(dp1884
g79
I4
ssg80
g1878
sg73
(lp1885
S'8000'
p1886
asbasbasbag66
(g82
g68
NtRp1887
(dp1888
g71
(dp1889
sg80
g1227
sg73
(lp1890
g66
(g87
g68
NtRp1891
(dp1892
g71
(dp1893
g91
g92
ssg80
g1887
sg73
(lp1894
S'server_protocol'
p1895
asbag66
(g87
g68
NtRp1896
(dp1897
g71
(dp1898
g98
g99
ssg80
g1887
sg73
(lp1899
S':'
asbag66
(g87
g68
NtRp1900
(dp1901
g71
(dp1902
sg80
g1887
sg73
(lp1903
g66
(g67
g68
NtRp1904
(dp1905
g71
(dp1906
g79
I4
ssg80
g1900
sg73
(lp1907
S'HTTP/1.1'
p1908
asbasbasbag66
(g82
g68
NtRp1909
(dp1910
g71
(dp1911
sg80
g1227
sg73
(lp1912
g66
(g87
g68
NtRp1913
(dp1914
g71
(dp1915
g91
g92
ssg80
g1909
sg73
(lp1916
S'server_software'
p1917
asbag66
(g87
g68
NtRp1918
(dp1919
g71
(dp1920
g98
g99
ssg80
g1909
sg73
(lp1921
S':'
asbag66
(g87
g68
NtRp1922
(dp1923
g71
(dp1924
sg80
g1909
sg73
(lp1925
g66
(g67
g68
NtRp1926
(dp1927
g71
(dp1928
g79
I4
ssg80
g1922
sg73
(lp1929
S'Rocket 1.2.2'
p1930
asbasbasbag66
(g82
g68
NtRp1931
(dp1932
g71
(dp1933
sg80
g1227
sg73
(lp1934
g66
(g87
g68
NtRp1935
(dp1936
g71
(dp1937
g91
g92
ssg80
g1931
sg73
(lp1938
S'web2py_crontype'
p1939
asbag66
(g87
g68
NtRp1940
(dp1941
g71
(dp1942
g98
g99
ssg80
g1931
sg73
(lp1943
S':'
asbag66
(g87
g68
NtRp1944
(dp1945
g71
(dp1946
sg80
g1931
sg73
(lp1947
g66
(g67
g68
NtRp1948
(dp1949
g71
(dp1950
g79
I4
ssg80
g1944
sg73
(lp1951
S'hard'
p1952
asbasbasbag66
(g82
g68
NtRp1953
(dp1954
g71
(dp1955
sg80
g1227
sg73
(lp1956
g66
(g87
g68
NtRp1957
(dp1958
g71
(dp1959
g91
g92
ssg80
g1953
sg73
(lp1960
S'web2py_path'
p1961
asbag66
(g87
g68
NtRp1962
(dp1963
g71
(dp1964
g98
g99
ssg80
g1953
sg73
(lp1965
S':'
asbag66
(g87
g68
NtRp1966
(dp1967
g71
(dp1968
sg80
g1953
sg73
(lp1969
g66
(g67
g68
NtRp1970
(dp1971
g71
(dp1972
g79
I4
ssg80
g1966
sg73
(lp1973
g1274
asbasbasbag66
(g82
g68
NtRp1974
(dp1975
g71
(dp1976
sg80
g1227
sg73
(lp1977
g66
(g87
g68
NtRp1978
(dp1979
g71
(dp1980
g91
g92
ssg80
g1974
sg73
(lp1981
S'web2py_version'
p1982
asbag66
(g87
g68
NtRp1983
(dp1984
g71
(dp1985
g98
g99
ssg80
g1974
sg73
(lp1986
S':'
asbag66
(g87
g68
NtRp1987
(dp1988
g71
(dp1989
sg80
g1974
sg73
(lp1990
g66
(g67
g68
NtRp1991
(dp1992
g71
(dp1993
g79
I4
ssg80
g1987
sg73
(lp1994
S'Version 1.98.2 (2011-08-04 00:47:09)\n'
p1995
asbasbasbag66
(g82
g68
NtRp1996
(dp1997
g71
(dp1998
sg80
g1227
sg73
(lp1999
g66
(g87
g68
NtRp2000
(dp2001
g71
(dp2002
g91
g92
ssg80
g1996
sg73
(lp2003
S'wsgi_errors'
p2004
asbag66
(g87
g68
NtRp2005
(dp2006
g71
(dp2007
g98
g99
ssg80
g1996
sg73
(lp2008
S':'
asbag66
(g87
g68
NtRp2009
(dp2010
g71
(dp2011
sg80
g1996
sg73
(lp2012
g66
(g67
g68
NtRp2013
(dp2014
g71
(dp2015
g79
I4
ssg80
g2009
sg73
(lp2016
S"<open file '<stderr>', mode 'w' at 0xb76e20d0>"
p2017
asbasbasbag66
(g82
g68
NtRp2018
(dp2019
g71
(dp2020
sg80
g1227
sg73
(lp2021
g66
(g87
g68
NtRp2022
(dp2023
g71
(dp2024
g91
g92
ssg80
g2018
sg73
(lp2025
S'wsgi_file_wrapper'
p2026
asbag66
(g87
g68
NtRp2027
(dp2028
g71
(dp2029
g98
g99
ssg80
g2018
sg73
(lp2030
S':'
asbag66
(g87
g68
NtRp2031
(dp2032
g71
(dp2033
sg80
g2018
sg73
(lp2034
g66
(g67
g68
NtRp2035
(dp2036
g71
(dp2037
g79
I4
ssg80
g2031
sg73
(lp2038
S'<class gluon.rocket.FileWrapper at 0x96a132c>'
p2039
asbasbasbag66
(g82
g68
NtRp2040
(dp2041
g71
(dp2042
sg80
g1227
sg73
(lp2043
g66
(g87
g68
NtRp2044
(dp2045
g71
(dp2046
g91
g92
ssg80
g2040
sg73
(lp2047
S'wsgi_input'
p2048
asbag66
(g87
g68
NtRp2049
(dp2050
g71
(dp2051
g98
g99
ssg80
g2040
sg73
(lp2052
S':'
asbag66
(g87
g68
NtRp2053
(dp2054
g71
(dp2055
sg80
g2040
sg73
(lp2056
g66
(g67
g68
NtRp2057
(dp2058
g71
(dp2059
g79
I4
ssg80
g2053
sg73
(lp2060
S'<socket._fileobject object at 0x998fdec>'
p2061
asbasbasbag66
(g82
g68
NtRp2062
(dp2063
g71
(dp2064
sg80
g1227
sg73
(lp2065
g66
(g87
g68
NtRp2066
(dp2067
g71
(dp2068
g91
g92
ssg80
g2062
sg73
(lp2069
S'wsgi_multiprocess'
p2070
asbag66
(g87
g68
NtRp2071
(dp2072
g71
(dp2073
g98
g99
ssg80
g2062
sg73
(lp2074
S':'
asbag66
(g87
g68
NtRp2075
(dp2076
g71
(dp2077
sg80
g2062
sg73
(lp2078
g66
(g67
g68
NtRp2079
(dp2080
g71
(dp2081
g79
I4
ssg80
g2075
sg73
(lp2082
g109
asbasbasbag66
(g82
g68
NtRp2083
(dp2084
g71
(dp2085
sg80
g1227
sg73
(lp2086
g66
(g87
g68
NtRp2087
(dp2088
g71
(dp2089
g91
g92
ssg80
g2083
sg73
(lp2090
S'wsgi_multithread'
p2091
asbag66
(g87
g68
NtRp2092
(dp2093
g71
(dp2094
g98
g99
ssg80
g2083
sg73
(lp2095
S':'
asbag66
(g87
g68
NtRp2096
(dp2097
g71
(dp2098
sg80
g2083
sg73
(lp2099
g66
(g67
g68
NtRp2100
(dp2101
g71
(dp2102
g79
I4
ssg80
g2096
sg73
(lp2103
S'True'
p2104
asbasbasbag66
(g82
g68
NtRp2105
(dp2106
g71
(dp2107
sg80
g1227
sg73
(lp2108
g66
(g87
g68
NtRp2109
(dp2110
g71
(dp2111
g91
g92
ssg80
g2105
sg73
(lp2112
S'wsgi_run_once'
p2113
asbag66
(g87
g68
NtRp2114
(dp2115
g71
(dp2116
g98
g99
ssg80
g2105
sg73
(lp2117
S':'
asbag66
(g87
g68
NtRp2118
(dp2119
g71
(dp2120
sg80
g2105
sg73
(lp2121
g66
(g67
g68
NtRp2122
(dp2123
g71
(dp2124
g79
I4
ssg80
g2118
sg73
(lp2125
g109
asbasbasbag66
(g82
g68
NtRp2126
(dp2127
g71
(dp2128
sg80
g1227
sg73
(lp2129
g66
(g87
g68
NtRp2130
(dp2131
g71
(dp2132
g91
g92
ssg80
g2126
sg73
(lp2133
S'wsgi_url_scheme'
p2134
asbag66
(g87
g68
NtRp2135
(dp2136
g71
(dp2137
g98
g99
ssg80
g2126
sg73
(lp2138
S':'
asbag66
(g87
g68
NtRp2139
(dp2140
g71
(dp2141
sg80
g2126
sg73
(lp2142
g66
(g67
g68
NtRp2143
(dp2144
g71
(dp2145
g79
I4
ssg80
g2139
sg73
(lp2146
S'http'
p2147
asbasbasbag66
(g82
g68
NtRp2148
(dp2149
g71
(dp2150
sg80
g1227
sg73
(lp2151
g66
(g87
g68
NtRp2152
(dp2153
g71
(dp2154
g91
g92
ssg80
g2148
sg73
(lp2155
S'wsgi_version'
p2156
asbag66
(g87
g68
NtRp2157
(dp2158
g71
(dp2159
g98
g99
ssg80
g2148
sg73
(lp2160
S':'
asbag66
(g87
g68
NtRp2161
(dp2162
g71
(dp2163
sg80
g2148
sg73
(lp2164
g66
(g67
g68
NtRp2165
(dp2166
g71
(dp2167
g79
I4
ssg80
g2161
sg73
(lp2168
g66
(g75
g68
NtRp2169
(dp2170
g71
(dp2171
g79
I3
ssg80
Nsg73
(lp2172
g66
(g82
g68
NtRp2173
(dp2174
g71
(dp2175
sg80
g2169
sg73
(lp2176
g66
(g87
g68
NtRp2177
(dp2178
g71
(dp2179
sg80
g2173
sg73
(lp2180
g66
(g67
g68
NtRp2181
(dp2182
g71
(dp2183
g79
I3
ssg80
g2177
sg73
(lp2184
S'1'
asbasbasbag66
(g82
g68
NtRp2185
(dp2186
g71
(dp2187
sg80
g2169
sg73
(lp2188
g66
(g87
g68
NtRp2189
(dp2190
g71
(dp2191
sg80
g2185
sg73
(lp2192
g66
(g67
g68
NtRp2193
(dp2194
g71
(dp2195
g79
I3
ssg80
g2189
sg73
(lp2196
S'0'
asbasbasbasbasbasbasbasbasbasbasbag66
(g82
g68
NtRp2197
(dp2198
g71
(dp2199
sg80
g76
sg73
(lp2200
g66
(g87
g68
NtRp2201
(dp2202
g71
(dp2203
g91
g92
ssg80
g2197
sg73
(lp2204
S'extension'
p2205
asbag66
(g87
g68
NtRp2206
(dp2207
g71
(dp2208
g98
g99
ssg80
g2197
sg73
(lp2209
S':'
asbag66
(g87
g68
NtRp2210
(dp2211
g71
(dp2212
sg80
g2197
sg73
(lp2213
g66
(g67
g68
NtRp2214
(dp2215
g71
(dp2216
g79
I5
ssg80
g2210
sg73
(lp2217
S'html'
p2218
asbasbasbag66
(g82
g68
NtRp2219
(dp2220
g71
(dp2221
sg80
g76
sg73
(lp2222
g66
(g87
g68
NtRp2223
(dp2224
g71
(dp2225
g91
g92
ssg80
g2219
sg73
(lp2226
S'folder'
p2227
asbag66
(g87
g68
NtRp2228
(dp2229
g71
(dp2230
g98
g99
ssg80
g2219
sg73
(lp2231
S':'
asbag66
(g87
g68
NtRp2232
(dp2233
g71
(dp2234
sg80
g2219
sg73
(lp2235
g66
(g67
g68
NtRp2236
(dp2237
g71
(dp2238
g79
I5
ssg80
g2232
sg73
(lp2239
S'/home/alumno/web2py/applications/datos/'
p2240
asbasbasbag66
(g82
g68
NtRp2241
(dp2242
g71
(dp2243
sg80
g76
sg73
(lp2244
g66
(g87
g68
NtRp2245
(dp2246
g71
(dp2247
g91
g92
ssg80
g2241
sg73
(lp2248
S'function'
p2249
asbag66
(g87
g68
NtRp2250
(dp2251
g71
(dp2252
g98
g99
ssg80
g2241
sg73
(lp2253
S':'
asbag66
(g87
g68
NtRp2254
(dp2255
g71
(dp2256
sg80
g2241
sg73
(lp2257
g66
(g67
g68
NtRp2258
(dp2259
g71
(dp2260
g79
I5
ssg80
g2254
sg73
(lp2261
S'insert'
p2262
asbasbasbag66
(g82
g68
NtRp2263
(dp2264
g71
(dp2265
sg80
g76
sg73
(lp2266
g66
(g87
g68
NtRp2267
(dp2268
g71
(dp2269
g91
g92
ssg80
g2263
sg73
(lp2270
S'get_vars'
p2271
asbag66
(g87
g68
NtRp2272
(dp2273
g71
(dp2274
g98
g99
ssg80
g2263
sg73
(lp2275
S':'
asbag66
(g87
g68
NtRp2276
(dp2277
g71
(dp2278
sg80
g2263
sg73
(lp2279
g66
(g67
g68
NtRp2280
(dp2281
g71
(dp2282
g79
I5
ssg80
g2276
sg73
(lp2283
g66
(g75
g68
NtRp2284
(dp2285
g71
(dp2286
g79
I4
ssg80
Nsg73
(lp2287
sbasbasbasbag66
(g82
g68
NtRp2288
(dp2289
g71
(dp2290
sg80
g76
sg73
(lp2291
g66
(g87
g68
NtRp2292
(dp2293
g71
(dp2294
g91
g92
ssg80
g2288
sg73
(lp2295
S'is_https'
p2296
asbag66
(g87
g68
NtRp2297
(dp2298
g71
(dp2299
g98
g99
ssg80
g2288
sg73
(lp2300
S':'
asbag66
(g87
g68
NtRp2301
(dp2302
g71
(dp2303
sg80
g2288
sg73
(lp2304
g66
(g67
g68
NtRp2305
(dp2306
g71
(dp2307
g79
I5
ssg80
g2301
sg73
(lp2308
g109
asbasbasbag66
(g82
g68
NtRp2309
(dp2310
g71
(dp2311
sg80
g76
sg73
(lp2312
g66
(g87
g68
NtRp2313
(dp2314
g71
(dp2315
g91
g92
ssg80
g2309
sg73
(lp2316
S'is_local'
p2317
asbag66
(g87
g68
NtRp2318
(dp2319
g71
(dp2320
g98
g99
ssg80
g2309
sg73
(lp2321
S':'
asbag66
(g87
g68
NtRp2322
(dp2323
g71
(dp2324
sg80
g2309
sg73
(lp2325
g66
(g67
g68
NtRp2326
(dp2327
g71
(dp2328
g79
I5
ssg80
g2322
sg73
(lp2329
g2104
asbasbasbag66
(g82
g68
NtRp2330
(dp2331
g71
(dp2332
sg80
g76
sg73
(lp2333
g66
(g87
g68
NtRp2334
(dp2335
g71
(dp2336
g91
g92
ssg80
g2330
sg73
(lp2337
S'is_restful'
p2338
asbag66
(g87
g68
NtRp2339
(dp2340
g71
(dp2341
g98
g99
ssg80
g2330
sg73
(lp2342
S':'
asbag66
(g87
g68
NtRp2343
(dp2344
g71
(dp2345
sg80
g2330
sg73
(lp2346
g66
(g67
g68
NtRp2347
(dp2348
g71
(dp2349
g79
I5
ssg80
g2343
sg73
(lp2350
g109
asbasbasbag66
(g82
g68
NtRp2351
(dp2352
g71
(dp2353
sg80
g76
sg73
(lp2354
g66
(g87
g68
NtRp2355
(dp2356
g71
(dp2357
g91
g92
ssg80
g2351
sg73
(lp2358
S'now'
p2359
asbag66
(g87
g68
NtRp2360
(dp2361
g71
(dp2362
g98
g99
ssg80
g2351
sg73
(lp2363
S':'
asbag66
(g87
g68
NtRp2364
(dp2365
g71
(dp2366
sg80
g2351
sg73
(lp2367
g66
(g67
g68
NtRp2368
(dp2369
g71
(dp2370
g79
I5
ssg80
g2364
sg73
(lp2371
S'datetime.datetime(2011, 9, 7, 19, 13, 46, 99328)'
p2372
asbasbasbag66
(g82
g68
NtRp2373
(dp2374
g71
(dp2375
sg80
g76
sg73
(lp2376
g66
(g87
g68
NtRp2377
(dp2378
g71
(dp2379
g91
g92
ssg80
g2373
sg73
(lp2380
S'post_vars'
p2381
asbag66
(g87
g68
NtRp2382
(dp2383
g71
(dp2384
g98
g99
ssg80
g2373
sg73
(lp2385
S':'
asbag66
(g87
g68
NtRp2386
(dp2387
g71
(dp2388
sg80
g2373
sg73
(lp2389
g66
(g67
g68
NtRp2390
(dp2391
g71
(dp2392
g79
I5
ssg80
g2386
sg73
(lp2393
g66
(g75
g68
NtRp2394
(dp2395
g71
(dp2396
g79
I4
ssg80
Nsg73
(lp2397
g66
(g82
g68
NtRp2398
(dp2399
g71
(dp2400
sg80
g2394
sg73
(lp2401
g66
(g87
g68
NtRp2402
(dp2403
g71
(dp2404
g91
g92
ssg80
g2398
sg73
(lp2405
S'apellidos'
p2406
asbag66
(g87
g68
NtRp2407
(dp2408
g71
(dp2409
g98
g99
ssg80
g2398
sg73
(lp2410
S':'
asbag66
(g87
g68
NtRp2411
(dp2412
g71
(dp2413
sg80
g2398
sg73
(lp2414
g66
(g67
g68
NtRp2415
(dp2416
g71
(dp2417
g79
I4
ssg80
g2411
sg73
(lp2418
S'gfg'
p2419
asbasbasbag66
(g82
g68
NtRp2420
(dp2421
g71
(dp2422
sg80
g2394
sg73
(lp2423
g66
(g87
g68
NtRp2424
(dp2425
g71
(dp2426
g91
g92
ssg80
g2420
sg73
(lp2427
S'codigo'
p2428
asbag66
(g87
g68
NtRp2429
(dp2430
g71
(dp2431
g98
g99
ssg80
g2420
sg73
(lp2432
S':'
asbag66
(g87
g68
NtRp2433
(dp2434
g71
(dp2435
sg80
g2420
sg73
(lp2436
g66
(g67
g68
NtRp2437
(dp2438
g71
(dp2439
g79
I4
ssg80
g2433
sg73
(lp2440
S'tgfg'
p2441
asbasbasbag66
(g82
g68
NtRp2442
(dp2443
g71
(dp2444
sg80
g2394
sg73
(lp2445
g66
(g87
g68
NtRp2446
(dp2447
g71
(dp2448
g91
g92
ssg80
g2442
sg73
(lp2449
S'email'
p2450
asbag66
(g87
g68
NtRp2451
(dp2452
g71
(dp2453
g98
g99
ssg80
g2442
sg73
(lp2454
S':'
asbag66
(g87
g68
NtRp2455
(dp2456
g71
(dp2457
sg80
g2442
sg73
(lp2458
g66
(g67
g68
NtRp2459
(dp2460
g71
(dp2461
g79
I4
ssg80
g2455
sg73
(lp2462
S'gytryhttttt56'
p2463
asbasbasbag66
(g82
g68
NtRp2464
(dp2465
g71
(dp2466
sg80
g2394
sg73
(lp2467
g66
(g87
g68
NtRp2468
(dp2469
g71
(dp2470
g91
g92
ssg80
g2464
sg73
(lp2471
S'fnacimiento'
p2472
asbag66
(g87
g68
NtRp2473
(dp2474
g71
(dp2475
g98
g99
ssg80
g2464
sg73
(lp2476
S':'
asbag66
(g87
g68
NtRp2477
(dp2478
g71
(dp2479
sg80
g2464
sg73
(lp2480
g66
(g67
g68
NtRp2481
(dp2482
g71
(dp2483
g79
I4
ssg80
g2477
sg73
(lp2484
S'2011-09-26'
p2485
asbasbasbag66
(g82
g68
NtRp2486
(dp2487
g71
(dp2488
sg80
g2394
sg73
(lp2489
g66
(g87
g68
NtRp2490
(dp2491
g71
(dp2492
g91
g92
ssg80
g2486
sg73
(lp2493
S'hobby'
p2494
asbag66
(g87
g68
NtRp2495
(dp2496
g71
(dp2497
g98
g99
ssg80
g2486
sg73
(lp2498
S':'
asbag66
(g87
g68
NtRp2499
(dp2500
g71
(dp2501
sg80
g2486
sg73
(lp2502
g66
(g67
g68
NtRp2503
(dp2504
g71
(dp2505
g79
I4
ssg80
g2499
sg73
(lp2506
S'Estudiar :P'
p2507
asbasbasbag66
(g82
g68
NtRp2508
(dp2509
g71
(dp2510
sg80
g2394
sg73
(lp2511
g66
(g87
g68
NtRp2512
(dp2513
g71
(dp2514
g91
g92
ssg80
g2508
sg73
(lp2515
S'nombres'
p2516
asbag66
(g87
g68
NtRp2517
(dp2518
g71
(dp2519
g98
g99
ssg80
g2508
sg73
(lp2520
S':'
asbag66
(g87
g68
NtRp2521
(dp2522
g71
(dp2523
sg80
g2508
sg73
(lp2524
g66
(g67
g68
NtRp2525
(dp2526
g71
(dp2527
g79
I4
ssg80
g2521
sg73
(lp2528
S'fgg'
p2529
asbasbasbasbasbasbasbag66
(g82
g68
NtRp2530
(dp2531
g71
(dp2532
sg80
g76
sg73
(lp2533
g66
(g87
g68
NtRp2534
(dp2535
g71
(dp2536
g91
g92
ssg80
g2530
sg73
(lp2537
S'raw_args'
p2538
asbag66
(g87
g68
NtRp2539
(dp2540
g71
(dp2541
g98
g99
ssg80
g2530
sg73
(lp2542
S':'
asbag66
(g87
g68
NtRp2543
(dp2544
g71
(dp2545
sg80
g2530
sg73
(lp2546
g66
(g67
g68
NtRp2547
(dp2548
g71
(dp2549
g79
I5
ssg80
g2543
sg73
(lp2550
S'db/alumno'
p2551
asbasbasbag66
(g82
g68
NtRp2552
(dp2553
g71
(dp2554
sg80
g76
sg73
(lp2555
g66
(g87
g68
NtRp2556
(dp2557
g71
(dp2558
g91
g92
ssg80
g2552
sg73
(lp2559
S'url'
p2560
asbag66
(g87
g68
NtRp2561
(dp2562
g71
(dp2563
g98
g99
ssg80
g2552
sg73
(lp2564
S':'
asbag66
(g87
g68
NtRp2565
(dp2566
g71
(dp2567
sg80
g2552
sg73
(lp2568
g66
(g67
g68
NtRp2569
(dp2570
g71
(dp2571
g79
I5
ssg80
g2565
sg73
(lp2572
S'/datos/appadmin/insert/db/alumno'
p2573
asbasbasbag66
(g82
g68
NtRp2574
(dp2575
g71
(dp2576
sg80
g76
sg73
(lp2577
g66
(g87
g68
NtRp2578
(dp2579
g71
(dp2580
g91
g92
ssg80
g2574
sg73
(lp2581
S'uuid'
p2582
asbag66
(g87
g68
NtRp2583
(dp2584
g71
(dp2585
g98
g99
ssg80
g2574
sg73
(lp2586
S':'
asbag66
(g87
g68
NtRp2587
(dp2588
g71
(dp2589
sg80
g2574
sg73
(lp2590
g66
(g67
g68
NtRp2591
(dp2592
g71
(dp2593
g79
I5
ssg80
g2587
sg73
(lp2594
S'datos/127.0.0.1.2011-09-07.19-13-46.7a348066-f437-4c11-9933-9bd99fe137f5'
p2595
asbasbasbag66
(g82
g68
NtRp2596
(dp2597
g71
(dp2598
sg80
g76
sg73
(lp2599
g66
(g87
g68
NtRp2600
(dp2601
g71
(dp2602
g91
g92
ssg80
g2596
sg73
(lp2603
S'vars'
p2604
asbag66
(g87
g68
NtRp2605
(dp2606
g71
(dp2607
g98
g99
ssg80
g2596
sg73
(lp2608
S':'
asbag66
(g87
g68
NtRp2609
(dp2610
g71
(dp2611
sg80
g2596
sg73
(lp2612
g66
(g67
g68
NtRp2613
(dp2614
g71
(dp2615
g79
I5
ssg80
g2609
sg73
(lp2616
g66
(g75
g68
NtRp2617
(dp2618
g71
(dp2619
g79
I4
ssg80
Nsg73
(lp2620
g66
(g82
g68
NtRp2621
(dp2622
g71
(dp2623
sg80
g2617
sg73
(lp2624
g66
(g87
g68
NtRp2625
(dp2626
g71
(dp2627
g91
g92
ssg80
g2621
sg73
(lp2628
g2406
asbag66
(g87
g68
NtRp2629
(dp2630
g71
(dp2631
g98
g99
ssg80
g2621
sg73
(lp2632
S':'
asbag66
(g87
g68
NtRp2633
(dp2634
g71
(dp2635
sg80
g2621
sg73
(lp2636
g66
(g67
g68
NtRp2637
(dp2638
g71
(dp2639
g79
I4
ssg80
g2633
sg73
(lp2640
g2419
asbasbasbag66
(g82
g68
NtRp2641
(dp2642
g71
(dp2643
sg80
g2617
sg73
(lp2644
g66
(g87
g68
NtRp2645
(dp2646
g71
(dp2647
g91
g92
ssg80
g2641
sg73
(lp2648
g2428
asbag66
(g87
g68
NtRp2649
(dp2650
g71
(dp2651
g98
g99
ssg80
g2641
sg73
(lp2652
S':'
asbag66
(g87
g68
NtRp2653
(dp2654
g71
(dp2655
sg80
g2641
sg73
(lp2656
g66
(g67
g68
NtRp2657
(dp2658
g71
(dp2659
g79
I4
ssg80
g2653
sg73
(lp2660
g2441
asbasbasbag66
(g82
g68
NtRp2661
(dp2662
g71
(dp2663
sg80
g2617
sg73
(lp2664
g66
(g87
g68
NtRp2665
(dp2666
g71
(dp2667
g91
g92
ssg80
g2661
sg73
(lp2668
g2450
asbag66
(g87
g68
NtRp2669
(dp2670
g71
(dp2671
g98
g99
ssg80
g2661
sg73
(lp2672
S':'
asbag66
(g87
g68
NtRp2673
(dp2674
g71
(dp2675
sg80
g2661
sg73
(lp2676
g66
(g67
g68
NtRp2677
(dp2678
g71
(dp2679
g79
I4
ssg80
g2673
sg73
(lp2680
g2463
asbasbasbag66
(g82
g68
NtRp2681
(dp2682
g71
(dp2683
sg80
g2617
sg73
(lp2684
g66
(g87
g68
NtRp2685
(dp2686
g71
(dp2687
g91
g92
ssg80
g2681
sg73
(lp2688
g2472
asbag66
(g87
g68
NtRp2689
(dp2690
g71
(dp2691
g98
g99
ssg80
g2681
sg73
(lp2692
S':'
asbag66
(g87
g68
NtRp2693
(dp2694
g71
(dp2695
sg80
g2681
sg73
(lp2696
g66
(g67
g68
NtRp2697
(dp2698
g71
(dp2699
g79
I4
ssg80
g2693
sg73
(lp2700
g2485
asbasbasbag66
(g82
g68
NtRp2701
(dp2702
g71
(dp2703
sg80
g2617
sg73
(lp2704
g66
(g87
g68
NtRp2705
(dp2706
g71
(dp2707
g91
g92
ssg80
g2701
sg73
(lp2708
g2494
asbag66
(g87
g68
NtRp2709
(dp2710
g71
(dp2711
g98
g99
ssg80
g2701
sg73
(lp2712
S':'
asbag66
(g87
g68
NtRp2713
(dp2714
g71
(dp2715
sg80
g2701
sg73
(lp2716
g66
(g67
g68
NtRp2717
(dp2718
g71
(dp2719
g79
I4
ssg80
g2713
sg73
(lp2720
g2507
asbasbasbag66
(g82
g68
NtRp2721
(dp2722
g71
(dp2723
sg80
g2617
sg73
(lp2724
g66
(g87
g68
NtRp2725
(dp2726
g71
(dp2727
g91
g92
ssg80
g2721
sg73
(lp2728
g2516
asbag66
(g87
g68
NtRp2729
(dp2730
g71
(dp2731
g98
g99
ssg80
g2721
sg73
(lp2732
S':'
asbag66
(g87
g68
NtRp2733
(dp2734
g71
(dp2735
sg80
g2721
sg73
(lp2736
g66
(g67
g68
NtRp2737
(dp2738
g71
(dp2739
g79
I4
ssg80
g2733
sg73
(lp2740
g2529
asbasbasbasbasbasbasbag66
(g82
g68
NtRp2741
(dp2742
g71
(dp2743
sg80
g76
sg73
(lp2744
g66
(g87
g68
NtRp2745
(dp2746
g71
(dp2747
g91
g92
ssg80
g2741
sg73
(lp2748
S'wsgi'
p2749
asbag66
(g87
g68
NtRp2750
(dp2751
g71
(dp2752
g98
g99
ssg80
g2741
sg73
(lp2753
S':'
asbag66
(g87
g68
NtRp2754
(dp2755
g71
(dp2756
sg80
g2741
sg73
(lp2757
g66
(g67
g68
NtRp2758
(dp2759
g71
(dp2760
g79
I5
ssg80
g2754
sg73
(lp2761
g66
(g75
g68
NtRp2762
(dp2763
g71
(dp2764
g79
I4
ssg80
Nsg73
(lp2765
g66
(g82
g68
NtRp2766
(dp2767
g71
(dp2768
sg80
g2762
sg73
(lp2769
g66
(g87
g68
NtRp2770
(dp2771
g71
(dp2772
g91
g92
ssg80
g2766
sg73
(lp2773
S'environ'
p2774
asbag66
(g87
g68
NtRp2775
(dp2776
g71
(dp2777
g98
g99
ssg80
g2766
sg73
(lp2778
S':'
asbag66
(g87
g68
NtRp2779
(dp2780
g71
(dp2781
sg80
g2766
sg73
(lp2782
g66
(g67
g68
NtRp2783
(dp2784
g71
(dp2785
g79
I4
ssg80
g2779
sg73
(lp2786
g66
(g75
g68
NtRp2787
(dp2788
g71
(dp2789
g79
I3
ssg80
Nsg73
(lp2790
g66
(g82
g68
NtRp2791
(dp2792
g71
(dp2793
sg80
g2787
sg73
(lp2794
g66
(g87
g68
NtRp2795
(dp2796
g71
(dp2797
g91
g92
ssg80
g2791
sg73
(lp2798
S'CONTENT_LENGTH'
p2799
asbag66
(g87
g68
NtRp2800
(dp2801
g71
(dp2802
g98
g99
ssg80
g2791
sg73
(lp2803
S':'
asbag66
(g87
g68
NtRp2804
(dp2805
g71
(dp2806
sg80
g2791
sg73
(lp2807
g66
(g67
g68
NtRp2808
(dp2809
g71
(dp2810
g79
I3
ssg80
g2804
sg73
(lp2811
g1343
asbasbasbag66
(g82
g68
NtRp2812
(dp2813
g71
(dp2814
sg80
g2787
sg73
(lp2815
g66
(g87
g68
NtRp2816
(dp2817
g71
(dp2818
g91
g92
ssg80
g2812
sg73
(lp2819
S'CONTENT_TYPE'
p2820
asbag66
(g87
g68
NtRp2821
(dp2822
g71
(dp2823
g98
g99
ssg80
g2812
sg73
(lp2824
S':'
asbag66
(g87
g68
NtRp2825
(dp2826
g71
(dp2827
sg80
g2812
sg73
(lp2828
g66
(g67
g68
NtRp2829
(dp2830
g71
(dp2831
g79
I3
ssg80
g2825
sg73
(lp2832
g1365
asbasbasbag66
(g82
g68
NtRp2833
(dp2834
g71
(dp2835
sg80
g2787
sg73
(lp2836
g66
(g87
g68
NtRp2837
(dp2838
g71
(dp2839
g91
g92
ssg80
g2833
sg73
(lp2840
S'HTTP_ACCEPT'
p2841
asbag66
(g87
g68
NtRp2842
(dp2843
g71
(dp2844
g98
g99
ssg80
g2833
sg73
(lp2845
S':'
asbag66
(g87
g68
NtRp2846
(dp2847
g71
(dp2848
sg80
g2833
sg73
(lp2849
g66
(g67
g68
NtRp2850
(dp2851
g71
(dp2852
g79
I3
ssg80
g2846
sg73
(lp2853
g1452
asbasbasbag66
(g82
g68
NtRp2854
(dp2855
g71
(dp2856
sg80
g2787
sg73
(lp2857
g66
(g87
g68
NtRp2858
(dp2859
g71
(dp2860
g91
g92
ssg80
g2854
sg73
(lp2861
S'HTTP_ACCEPT_CHARSET'
p2862
asbag66
(g87
g68
NtRp2863
(dp2864
g71
(dp2865
g98
g99
ssg80
g2854
sg73
(lp2866
S':'
asbag66
(g87
g68
NtRp2867
(dp2868
g71
(dp2869
sg80
g2854
sg73
(lp2870
g66
(g67
g68
NtRp2871
(dp2872
g71
(dp2873
g79
I3
ssg80
g2867
sg73
(lp2874
g1474
asbasbasbag66
(g82
g68
NtRp2875
(dp2876
g71
(dp2877
sg80
g2787
sg73
(lp2878
g66
(g87
g68
NtRp2879
(dp2880
g71
(dp2881
g91
g92
ssg80
g2875
sg73
(lp2882
S'HTTP_ACCEPT_ENCODING'
p2883
asbag66
(g87
g68
NtRp2884
(dp2885
g71
(dp2886
g98
g99
ssg80
g2875
sg73
(lp2887
S':'
asbag66
(g87
g68
NtRp2888
(dp2889
g71
(dp2890
sg80
g2875
sg73
(lp2891
g66
(g67
g68
NtRp2892
(dp2893
g71
(dp2894
g79
I3
ssg80
g2888
sg73
(lp2895
g1496
asbasbasbag66
(g82
g68
NtRp2896
(dp2897
g71
(dp2898
sg80
g2787
sg73
(lp2899
g66
(g87
g68
NtRp2900
(dp2901
g71
(dp2902
g91
g92
ssg80
g2896
sg73
(lp2903
S'HTTP_ACCEPT_LANGUAGE'
p2904
asbag66
(g87
g68
NtRp2905
(dp2906
g71
(dp2907
g98
g99
ssg80
g2896
sg73
(lp2908
S':'
asbag66
(g87
g68
NtRp2909
(dp2910
g71
(dp2911
sg80
g2896
sg73
(lp2912
g66
(g67
g68
NtRp2913
(dp2914
g71
(dp2915
g79
I3
ssg80
g2909
sg73
(lp2916
g1518
asbasbasbag66
(g82
g68
NtRp2917
(dp2918
g71
(dp2919
sg80
g2787
sg73
(lp2920
g66
(g87
g68
NtRp2921
(dp2922
g71
(dp2923
g91
g92
ssg80
g2917
sg73
(lp2924
S'HTTP_CACHE_CONTROL'
p2925
asbag66
(g87
g68
NtRp2926
(dp2927
g71
(dp2928
g98
g99
ssg80
g2917
sg73
(lp2929
S':'
asbag66
(g87
g68
NtRp2930
(dp2931
g71
(dp2932
sg80
g2917
sg73
(lp2933
g66
(g67
g68
NtRp2934
(dp2935
g71
(dp2936
g79
I3
ssg80
g2930
sg73
(lp2937
g1540
asbasbasbag66
(g82
g68
NtRp2938
(dp2939
g71
(dp2940
sg80
g2787
sg73
(lp2941
g66
(g87
g68
NtRp2942
(dp2943
g71
(dp2944
g91
g92
ssg80
g2938
sg73
(lp2945
S'HTTP_CONNECTION'
p2946
asbag66
(g87
g68
NtRp2947
(dp2948
g71
(dp2949
g98
g99
ssg80
g2938
sg73
(lp2950
S':'
asbag66
(g87
g68
NtRp2951
(dp2952
g71
(dp2953
sg80
g2938
sg73
(lp2954
g66
(g67
g68
NtRp2955
(dp2956
g71
(dp2957
g79
I3
ssg80
g2951
sg73
(lp2958
g1562
asbasbasbag66
(g82
g68
NtRp2959
(dp2960
g71
(dp2961
sg80
g2787
sg73
(lp2962
g66
(g87
g68
NtRp2963
(dp2964
g71
(dp2965
g91
g92
ssg80
g2959
sg73
(lp2966
S'HTTP_CONTENT_LENGTH'
p2967
asbag66
(g87
g68
NtRp2968
(dp2969
g71
(dp2970
g98
g99
ssg80
g2959
sg73
(lp2971
S':'
asbag66
(g87
g68
NtRp2972
(dp2973
g71
(dp2974
sg80
g2959
sg73
(lp2975
g66
(g67
g68
NtRp2976
(dp2977
g71
(dp2978
g79
I3
ssg80
g2972
sg73
(lp2979
g1343
asbasbasbag66
(g82
g68
NtRp2980
(dp2981
g71
(dp2982
sg80
g2787
sg73
(lp2983
g66
(g87
g68
NtRp2984
(dp2985
g71
(dp2986
g91
g92
ssg80
g2980
sg73
(lp2987
S'HTTP_CONTENT_TYPE'
p2988
asbag66
(g87
g68
NtRp2989
(dp2990
g71
(dp2991
g98
g99
ssg80
g2980
sg73
(lp2992
S':'
asbag66
(g87
g68
NtRp2993
(dp2994
g71
(dp2995
sg80
g2980
sg73
(lp2996
g66
(g67
g68
NtRp2997
(dp2998
g71
(dp2999
g79
I3
ssg80
g2993
sg73
(lp3000
g1365
asbasbasbag66
(g82
g68
NtRp3001
(dp3002
g71
(dp3003
sg80
g2787
sg73
(lp3004
g66
(g87
g68
NtRp3005
(dp3006
g71
(dp3007
g91
g92
ssg80
g3001
sg73
(lp3008
S'HTTP_COOKIE'
p3009
asbag66
(g87
g68
NtRp3010
(dp3011
g71
(dp3012
g98
g99
ssg80
g3001
sg73
(lp3013
S':'
asbag66
(g87
g68
NtRp3014
(dp3015
g71
(dp3016
sg80
g3001
sg73
(lp3017
g66
(g67
g68
NtRp3018
(dp3019
g71
(dp3020
g79
I3
ssg80
g3014
sg73
(lp3021
g1626
asbasbasbag66
(g82
g68
NtRp3022
(dp3023
g71
(dp3024
sg80
g2787
sg73
(lp3025
g66
(g87
g68
NtRp3026
(dp3027
g71
(dp3028
g91
g92
ssg80
g3022
sg73
(lp3029
S'HTTP_HOST'
p3030
asbag66
(g87
g68
NtRp3031
(dp3032
g71
(dp3033
g98
g99
ssg80
g3022
sg73
(lp3034
S':'
asbag66
(g87
g68
NtRp3035
(dp3036
g71
(dp3037
sg80
g3022
sg73
(lp3038
g66
(g67
g68
NtRp3039
(dp3040
g71
(dp3041
g79
I3
ssg80
g3035
sg73
(lp3042
g1648
asbasbasbag66
(g82
g68
NtRp3043
(dp3044
g71
(dp3045
sg80
g2787
sg73
(lp3046
g66
(g87
g68
NtRp3047
(dp3048
g71
(dp3049
g91
g92
ssg80
g3043
sg73
(lp3050
S'HTTP_REFERER'
p3051
asbag66
(g87
g68
NtRp3052
(dp3053
g71
(dp3054
g98
g99
ssg80
g3043
sg73
(lp3055
S':'
asbag66
(g87
g68
NtRp3056
(dp3057
g71
(dp3058
sg80
g3043
sg73
(lp3059
g66
(g67
g68
NtRp3060
(dp3061
g71
(dp3062
g79
I3
ssg80
g3056
sg73
(lp3063
g1670
asbasbasbag66
(g82
g68
NtRp3064
(dp3065
g71
(dp3066
sg80
g2787
sg73
(lp3067
g66
(g87
g68
NtRp3068
(dp3069
g71
(dp3070
g91
g92
ssg80
g3064
sg73
(lp3071
S'HTTP_USER_AGENT'
p3072
asbag66
(g87
g68
NtRp3073
(dp3074
g71
(dp3075
g98
g99
ssg80
g3064
sg73
(lp3076
S':'
asbag66
(g87
g68
NtRp3077
(dp3078
g71
(dp3079
sg80
g3064
sg73
(lp3080
g66
(g67
g68
NtRp3081
(dp3082
g71
(dp3083
g79
I3
ssg80
g3077
sg73
(lp3084
g1692
asbasbasbag66
(g82
g68
NtRp3085
(dp3086
g71
(dp3087
sg80
g2787
sg73
(lp3088
g66
(g87
g68
NtRp3089
(dp3090
g71
(dp3091
g91
g92
ssg80
g3085
sg73
(lp3092
S'PATH_INFO'
p3093
asbag66
(g87
g68
NtRp3094
(dp3095
g71
(dp3096
g98
g99
ssg80
g3085
sg73
(lp3097
S':'
asbag66
(g87
g68
NtRp3098
(dp3099
g71
(dp3100
sg80
g3085
sg73
(lp3101
g66
(g67
g68
NtRp3102
(dp3103
g71
(dp3104
g79
I3
ssg80
g3098
sg73
(lp3105
g1735
asbasbasbag66
(g82
g68
NtRp3106
(dp3107
g71
(dp3108
sg80
g2787
sg73
(lp3109
g66
(g87
g68
NtRp3110
(dp3111
g71
(dp3112
g91
g92
ssg80
g3106
sg73
(lp3113
S'QUERY_STRING'
p3114
asbag66
(g87
g68
NtRp3115
(dp3116
g71
(dp3117
g98
g99
ssg80
g3106
sg73
(lp3118
S':'
asbag66
(g87
g68
NtRp3119
(dp3120
g71
(dp3121
sg80
g3106
sg73
(lp3122
g66
(g67
g68
NtRp3123
(dp3124
g71
(dp3125
g79
I3
ssg80
g3119
sg73
(lp3126
S''
asbasbasbag66
(g82
g68
NtRp3127
(dp3128
g71
(dp3129
sg80
g2787
sg73
(lp3130
g66
(g87
g68
NtRp3131
(dp3132
g71
(dp3133
g91
g92
ssg80
g3127
sg73
(lp3134
S'REMOTE_ADDR'
p3135
asbag66
(g87
g68
NtRp3136
(dp3137
g71
(dp3138
g98
g99
ssg80
g3127
sg73
(lp3139
S':'
asbag66
(g87
g68
NtRp3140
(dp3141
g71
(dp3142
sg80
g3127
sg73
(lp3143
g66
(g67
g68
NtRp3144
(dp3145
g71
(dp3146
g79
I3
ssg80
g3140
sg73
(lp3147
g225
asbasbasbag66
(g82
g68
NtRp3148
(dp3149
g71
(dp3150
sg80
g2787
sg73
(lp3151
g66
(g87
g68
NtRp3152
(dp3153
g71
(dp3154
g91
g92
ssg80
g3148
sg73
(lp3155
S'REMOTE_PORT'
p3156
asbag66
(g87
g68
NtRp3157
(dp3158
g71
(dp3159
g98
g99
ssg80
g3148
sg73
(lp3160
S':'
asbag66
(g87
g68
NtRp3161
(dp3162
g71
(dp3163
sg80
g3148
sg73
(lp3164
g66
(g67
g68
NtRp3165
(dp3166
g71
(dp3167
g79
I3
ssg80
g3161
sg73
(lp3168
g1799
asbasbasbag66
(g82
g68
NtRp3169
(dp3170
g71
(dp3171
sg80
g2787
sg73
(lp3172
g66
(g87
g68
NtRp3173
(dp3174
g71
(dp3175
g91
g92
ssg80
g3169
sg73
(lp3176
S'REQUEST_METHOD'
p3177
asbag66
(g87
g68
NtRp3178
(dp3179
g71
(dp3180
g98
g99
ssg80
g3169
sg73
(lp3181
S':'
asbag66
(g87
g68
NtRp3182
(dp3183
g71
(dp3184
sg80
g3169
sg73
(lp3185
g66
(g67
g68
NtRp3186
(dp3187
g71
(dp3188
g79
I3
ssg80
g3182
sg73
(lp3189
g1821
asbasbasbag66
(g82
g68
NtRp3190
(dp3191
g71
(dp3192
sg80
g2787
sg73
(lp3193
g66
(g87
g68
NtRp3194
(dp3195
g71
(dp3196
g91
g92
ssg80
g3190
sg73
(lp3197
S'SCRIPT_NAME'
p3198
asbag66
(g87
g68
NtRp3199
(dp3200
g71
(dp3201
g98
g99
ssg80
g3190
sg73
(lp3202
S':'
asbag66
(g87
g68
NtRp3203
(dp3204
g71
(dp3205
sg80
g3190
sg73
(lp3206
g66
(g67
g68
NtRp3207
(dp3208
g71
(dp3209
g79
I3
ssg80
g3203
sg73
(lp3210
S''
asbasbasbag66
(g82
g68
NtRp3211
(dp3212
g71
(dp3213
sg80
g2787
sg73
(lp3214
g66
(g87
g68
NtRp3215
(dp3216
g71
(dp3217
g91
g92
ssg80
g3211
sg73
(lp3218
S'SERVER_NAME'
p3219
asbag66
(g87
g68
NtRp3220
(dp3221
g71
(dp3222
g98
g99
ssg80
g3211
sg73
(lp3223
S':'
asbag66
(g87
g68
NtRp3224
(dp3225
g71
(dp3226
sg80
g3211
sg73
(lp3227
g66
(g67
g68
NtRp3228
(dp3229
g71
(dp3230
g79
I3
ssg80
g3224
sg73
(lp3231
g1864
asbasbasbag66
(g82
g68
NtRp3232
(dp3233
g71
(dp3234
sg80
g2787
sg73
(lp3235
g66
(g87
g68
NtRp3236
(dp3237
g71
(dp3238
g91
g92
ssg80
g3232
sg73
(lp3239
S'SERVER_PORT'
p3240
asbag66
(g87
g68
NtRp3241
(dp3242
g71
(dp3243
g98
g99
ssg80
g3232
sg73
(lp3244
S':'
asbag66
(g87
g68
NtRp3245
(dp3246
g71
(dp3247
sg80
g3232
sg73
(lp3248
g66
(g67
g68
NtRp3249
(dp3250
g71
(dp3251
g79
I3
ssg80
g3245
sg73
(lp3252
g1886
asbasbasbag66
(g82
g68
NtRp3253
(dp3254
g71
(dp3255
sg80
g2787
sg73
(lp3256
g66
(g87
g68
NtRp3257
(dp3258
g71
(dp3259
g91
g92
ssg80
g3253
sg73
(lp3260
S'SERVER_PROTOCOL'
p3261
asbag66
(g87
g68
NtRp3262
(dp3263
g71
(dp3264
g98
g99
ssg80
g3253
sg73
(lp3265
S':'
asbag66
(g87
g68
NtRp3266
(dp3267
g71
(dp3268
sg80
g3253
sg73
(lp3269
g66
(g67
g68
NtRp3270
(dp3271
g71
(dp3272
g79
I3
ssg80
g3266
sg73
(lp3273
g1908
asbasbasbag66
(g82
g68
NtRp3274
(dp3275
g71
(dp3276
sg80
g2787
sg73
(lp3277
g66
(g87
g68
NtRp3278
(dp3279
g71
(dp3280
g91
g92
ssg80
g3274
sg73
(lp3281
S'SERVER_SOFTWARE'
p3282
asbag66
(g87
g68
NtRp3283
(dp3284
g71
(dp3285
g98
g99
ssg80
g3274
sg73
(lp3286
S':'
asbag66
(g87
g68
NtRp3287
(dp3288
g71
(dp3289
sg80
g3274
sg73
(lp3290
g66
(g67
g68
NtRp3291
(dp3292
g71
(dp3293
g79
I3
ssg80
g3287
sg73
(lp3294
g1930
asbasbasbag66
(g82
g68
NtRp3295
(dp3296
g71
(dp3297
sg80
g2787
sg73
(lp3298
g66
(g87
g68
NtRp3299
(dp3300
g71
(dp3301
g91
g92
ssg80
g3295
sg73
(lp3302
S'wsgi.errors'
p3303
asbag66
(g87
g68
NtRp3304
(dp3305
g71
(dp3306
g98
g99
ssg80
g3295
sg73
(lp3307
S':'
asbag66
(g87
g68
NtRp3308
(dp3309
g71
(dp3310
sg80
g3295
sg73
(lp3311
g66
(g67
g68
NtRp3312
(dp3313
g71
(dp3314
g79
I3
ssg80
g3308
sg73
(lp3315
S"<open file '<stderr>', mode 'w' at 0xb76e20d0>"
p3316
asbasbasbag66
(g82
g68
NtRp3317
(dp3318
g71
(dp3319
sg80
g2787
sg73
(lp3320
g66
(g87
g68
NtRp3321
(dp3322
g71
(dp3323
g91
g92
ssg80
g3317
sg73
(lp3324
S'wsgi.file_wrapper'
p3325
asbag66
(g87
g68
NtRp3326
(dp3327
g71
(dp3328
g98
g99
ssg80
g3317
sg73
(lp3329
S':'
asbag66
(g87
g68
NtRp3330
(dp3331
g71
(dp3332
sg80
g3317
sg73
(lp3333
g66
(g67
g68
NtRp3334
(dp3335
g71
(dp3336
g79
I3
ssg80
g3330
sg73
(lp3337
S'<class gluon.rocket.FileWrapper at 0x96a132c>'
p3338
asbasbasbag66
(g82
g68
NtRp3339
(dp3340
g71
(dp3341
sg80
g2787
sg73
(lp3342
g66
(g87
g68
NtRp3343
(dp3344
g71
(dp3345
g91
g92
ssg80
g3339
sg73
(lp3346
S'wsgi.input'
p3347
asbag66
(g87
g68
NtRp3348
(dp3349
g71
(dp3350
g98
g99
ssg80
g3339
sg73
(lp3351
S':'
asbag66
(g87
g68
NtRp3352
(dp3353
g71
(dp3354
sg80
g3339
sg73
(lp3355
g66
(g67
g68
NtRp3356
(dp3357
g71
(dp3358
g79
I3
ssg80
g3352
sg73
(lp3359
S"<open file '<fdopen>', mode 'w+b' at 0x9798f98>"
p3360
asbasbasbag66
(g82
g68
NtRp3361
(dp3362
g71
(dp3363
sg80
g2787
sg73
(lp3364
g66
(g87
g68
NtRp3365
(dp3366
g71
(dp3367
g91
g92
ssg80
g3361
sg73
(lp3368
S'wsgi.multiprocess'
p3369
asbag66
(g87
g68
NtRp3370
(dp3371
g71
(dp3372
g98
g99
ssg80
g3361
sg73
(lp3373
S':'
asbag66
(g87
g68
NtRp3374
(dp3375
g71
(dp3376
sg80
g3361
sg73
(lp3377
g66
(g67
g68
NtRp3378
(dp3379
g71
(dp3380
g79
I3
ssg80
g3374
sg73
(lp3381
g109
asbasbasbag66
(g82
g68
NtRp3382
(dp3383
g71
(dp3384
sg80
g2787
sg73
(lp3385
g66
(g87
g68
NtRp3386
(dp3387
g71
(dp3388
g91
g92
ssg80
g3382
sg73
(lp3389
S'wsgi.multithread'
p3390
asbag66
(g87
g68
NtRp3391
(dp3392
g71
(dp3393
g98
g99
ssg80
g3382
sg73
(lp3394
S':'
asbag66
(g87
g68
NtRp3395
(dp3396
g71
(dp3397
sg80
g3382
sg73
(lp3398
g66
(g67
g68
NtRp3399
(dp3400
g71
(dp3401
g79
I3
ssg80
g3395
sg73
(lp3402
g2104
asbasbasbag66
(g82
g68
NtRp3403
(dp3404
g71
(dp3405
sg80
g2787
sg73
(lp3406
g66
(g87
g68
NtRp3407
(dp3408
g71
(dp3409
g91
g92
ssg80
g3403
sg73
(lp3410
S'wsgi.run_once'
p3411
asbag66
(g87
g68
NtRp3412
(dp3413
g71
(dp3414
g98
g99
ssg80
g3403
sg73
(lp3415
S':'
asbag66
(g87
g68
NtRp3416
(dp3417
g71
(dp3418
sg80
g3403
sg73
(lp3419
g66
(g67
g68
NtRp3420
(dp3421
g71
(dp3422
g79
I3
ssg80
g3416
sg73
(lp3423
g109
asbasbasbag66
(g82
g68
NtRp3424
(dp3425
g71
(dp3426
sg80
g2787
sg73
(lp3427
g66
(g87
g68
NtRp3428
(dp3429
g71
(dp3430
g91
g92
ssg80
g3424
sg73
(lp3431
S'wsgi.url_scheme'
p3432
asbag66
(g87
g68
NtRp3433
(dp3434
g71
(dp3435
g98
g99
ssg80
g3424
sg73
(lp3436
S':'
asbag66
(g87
g68
NtRp3437
(dp3438
g71
(dp3439
sg80
g3424
sg73
(lp3440
g66
(g67
g68
NtRp3441
(dp3442
g71
(dp3443
g79
I3
ssg80
g3437
sg73
(lp3444
g2147
asbasbasbag66
(g82
g68
NtRp3445
(dp3446
g71
(dp3447
sg80
g2787
sg73
(lp3448
g66
(g87
g68
NtRp3449
(dp3450
g71
(dp3451
g91
g92
ssg80
g3445
sg73
(lp3452
S'wsgi.version'
p3453
asbag66
(g87
g68
NtRp3454
(dp3455
g71
(dp3456
g98
g99
ssg80
g3445
sg73
(lp3457
S':'
asbag66
(g87
g68
NtRp3458
(dp3459
g71
(dp3460
sg80
g3445
sg73
(lp3461
g66
(g67
g68
NtRp3462
(dp3463
g71
(dp3464
g79
I3
ssg80
g3458
sg73
(lp3465
S'1'
asbasbasbasbasbasbasbasbasbasbasbasbasbsS'frames'
p3466
(lp3467
(dp3468
S'file'
p3469
S'/home/alumno/web2py/gluon/restricted.py'
p3470
sS'dump'
p3471
(dp3472
S'code'
p3473
S'"# -*- coding: utf-8 -*-\\n\\n = DAL(\'sqlite://datos....IS_EMAIL()\\n.alumno.hobby.default = \'Estudiar :P\'\\n"'
p3474
sS'layer'
p3475
S"'/home/alumno/web2py/applications/datos/models/db.py'"
p3476
sS'global compile2'
p3477
S'<function compile2>'
p3478
sS'ccode'
p3479
S'undefined'
p3480
ssS'lnum'
p3481
I191
sS'lines'
p3482
(dp3483
I192
S'        exec ccode in environment'
p3484
sI193
S'    except HTTP:'
p3485
sI194
S'        raise'
p3486
sI195
S'    except Exception, error:'
p3487
sI186
S"    environment['__file__'] = layer"
p3488
sI187
S'    try:'
p3489
sI188
S'        if type(code) == types.CodeType:'
p3490
sI189
S'            ccode = code'
p3491
sI190
S'        else:'
p3492
sI191
S'            ccode = compile2(code,layer)'
p3493
ssS'call'
p3494
S'(code="# -*- coding: utf-8 -*-\\n\\n = DAL(\'sqlite://datos....IS_EMAIL()\\n.alumno.hobby.default = \'Estudiar :P\'\\n", environment={\'A\': <class \'gluon.html.A\'>, \'B\': <class \'gluon.html.B\'>, \'BEAUTIFY\': <class \'gluon.html.BEAUTIFY\'>, \'BODY\': <class \'gluon.html.BODY\'>, \'BR\': <class \'gluon.html.BR\'>, \'BUTTON\': <class \'gluon.html.BUTTON\'>, \'CAT\': <class \'gluon.html.CAT\'>, \'CENTER\': <class \'gluon.html.CENTER\'>, \'CLEANUP\': <class \'gluon.validators.CLEANUP\'>, \'CODE\': <class \'gluon.html.CODE\'>, ...}, layer=\'/home/alumno/web2py/applications/datos/models/db.py\')'
p3495
sS'func'
p3496
S'restricted'
p3497
sa(dp3498
g3469
S'/home/alumno/web2py/gluon/restricted.py'
p3499
sg3471
(dp3500
S'builtincompile'
p3501
S'<built-in function compile>'
p3502
sS'code'
p3503
S'"# -*- coding: utf-8 -*-\\n\\n = DAL(\'sqlite://datos....IS_EMAIL()\\n.alumno.hobby.default = \'Estudiar :P\'\\n"'
p3504
sS'code.rstrip'
p3505
S'<built-in method rstrip of str object>'
p3506
sS').replace'
p3507
g3480
sS'layer'
p3508
S"'/home/alumno/web2py/applications/datos/models/db.py'"
p3509
ssg3481
I178
sg3482
(dp3510
I173
S''
sI174
S'def compile2(code,layer):'
p3511
sI175
S'    """'
p3512
sI176
S"    The +'\\n' is necessary else compile fails when code ends in a comment."
p3513
sI177
S'    """'
p3514
sI178
S"    return compile(code.rstrip().replace('\\r\\n','\\n')+'\\n', layer, 'exec')"
p3515
sI179
S''
sI180
S"def restricted(code, environment={}, layer='Unknown'):"
p3516
sI181
S'    """'
p3517
sI182
S'    runs code in environment and returns the output. if an exception occurs'
p3518
ssg3494
S'(code="# -*- coding: utf-8 -*-\\n\\n = DAL(\'sqlite://datos....IS_EMAIL()\\n.alumno.hobby.default = \'Estudiar :P\'\\n", layer=\'/home/alumno/web2py/applications/datos/models/db.py\')'
p3519
sg3496
S'compile2'
p3520
sasS'pyver'
p3521
S'Python 2.6.6: /usr/bin/python'
p3522
sS'session'
p3523
g66
(g67
g68
NtRp3524
(dp3525
g71
(dp3526
sg73
(lp3527
g66
(g75
g68
NtRp3528
(dp3529
g71
(dp3530
g79
I5
ssg80
Nsg73
(lp3531
sbasbsS'etype'
p3532
S"<type 'exceptions.IndentationError'>"
p3533
sS'date'
p3534
S'Wed Sep  7 19:13:46 2011'
p3535
sS'response'
p3536
g66
(g67
g68
NtRp3537
(dp3538
g71
(dp3539
sg73
(lp3540
g66
(g75
g68
NtRp3541
(dp3542
g71
(dp3543
g79
I5
ssg80
Nsg73
(lp3544
g66
(g82
g68
NtRp3545
(dp3546
g71
(dp3547
sg80
g3541
sg73
(lp3548
g66
(g87
g68
NtRp3549
(dp3550
g71
(dp3551
g91
g92
ssg80
g3545
sg73
(lp3552
g190
asbag66
(g87
g68
NtRp3553
(dp3554
g71
(dp3555
g98
g99
ssg80
g3545
sg73
(lp3556
S':'
asbag66
(g87
g68
NtRp3557
(dp3558
g71
(dp3559
sg80
g3545
sg73
(lp3560
g66
(g67
g68
NtRp3561
(dp3562
g71
(dp3563
g79
I5
ssg80
g3557
sg73
(lp3564
S'<cStringIO.StringO object at 0x9c46ce0>'
p3565
asbasbasbag66
(g82
g68
NtRp3566
(dp3567
g71
(dp3568
sg80
g3541
sg73
(lp3569
g66
(g87
g68
NtRp3570
(dp3571
g71
(dp3572
g91
g92
ssg80
g3566
sg73
(lp3573
g256
asbag66
(g87
g68
NtRp3574
(dp3575
g71
(dp3576
g98
g99
ssg80
g3566
sg73
(lp3577
S':'
asbag66
(g87
g68
NtRp3578
(dp3579
g71
(dp3580
sg80
g3566
sg73
(lp3581
g66
(g67
g68
NtRp3582
(dp3583
g71
(dp3584
g79
I5
ssg80
g3578
sg73
(lp3585
g66
(g75
g68
NtRp3586
(dp3587
g71
(dp3588
g79
I4
ssg80
Nsg73
(lp3589
g66
(g82
g68
NtRp3590
(dp3591
g71
(dp3592
sg80
g3586
sg73
(lp3593
g66
(g87
g68
NtRp3594
(dp3595
g71
(dp3596
g91
g92
ssg80
g3590
sg73
(lp3597
S'session_id_datos'
p3598
asbag66
(g87
g68
NtRp3599
(dp3600
g71
(dp3601
g98
g99
ssg80
g3590
sg73
(lp3602
S':'
asbag66
(g87
g68
NtRp3603
(dp3604
g71
(dp3605
sg80
g3590
sg73
(lp3606
g66
(g67
g68
NtRp3607
(dp3608
g71
(dp3609
g79
I4
ssg80
g3603
sg73
(lp3610
g66
(g75
g68
NtRp3611
(dp3612
g71
(dp3613
g79
I3
ssg80
Nsg73
(lp3614
g66
(g82
g68
NtRp3615
(dp3616
g71
(dp3617
sg80
g3611
sg73
(lp3618
g66
(g87
g68
NtRp3619
(dp3620
g71
(dp3621
g91
g92
ssg80
g3615
sg73
(lp3622
g306
asbag66
(g87
g68
NtRp3623
(dp3624
g71
(dp3625
g98
g99
ssg80
g3615
sg73
(lp3626
S':'
asbag66
(g87
g68
NtRp3627
(dp3628
g71
(dp3629
sg80
g3615
sg73
(lp3630
g66
(g67
g68
NtRp3631
(dp3632
g71
(dp3633
g79
I3
ssg80
g3627
sg73
(lp3634
S''
asbasbasbag66
(g82
g68
NtRp3635
(dp3636
g71
(dp3637
sg80
g3611
sg73
(lp3638
g66
(g87
g68
NtRp3639
(dp3640
g71
(dp3641
g91
g92
ssg80
g3635
sg73
(lp3642
g327
asbag66
(g87
g68
NtRp3643
(dp3644
g71
(dp3645
g98
g99
ssg80
g3635
sg73
(lp3646
S':'
asbag66
(g87
g68
NtRp3647
(dp3648
g71
(dp3649
sg80
g3635
sg73
(lp3650
g66
(g67
g68
NtRp3651
(dp3652
g71
(dp3653
g79
I3
ssg80
g3647
sg73
(lp3654
S''
asbasbasbag66
(g82
g68
NtRp3655
(dp3656
g71
(dp3657
sg80
g3611
sg73
(lp3658
g66
(g87
g68
NtRp3659
(dp3660
g71
(dp3661
g91
g92
ssg80
g3655
sg73
(lp3662
g348
asbag66
(g87
g68
NtRp3663
(dp3664
g71
(dp3665
g98
g99
ssg80
g3655
sg73
(lp3666
S':'
asbag66
(g87
g68
NtRp3667
(dp3668
g71
(dp3669
sg80
g3655
sg73
(lp3670
g66
(g67
g68
NtRp3671
(dp3672
g71
(dp3673
g79
I3
ssg80
g3667
sg73
(lp3674
S''
asbasbasbag66
(g82
g68
NtRp3675
(dp3676
g71
(dp3677
sg80
g3611
sg73
(lp3678
g66
(g87
g68
NtRp3679
(dp3680
g71
(dp3681
g91
g92
ssg80
g3675
sg73
(lp3682
g369
asbag66
(g87
g68
NtRp3683
(dp3684
g71
(dp3685
g98
g99
ssg80
g3675
sg73
(lp3686
S':'
asbag66
(g87
g68
NtRp3687
(dp3688
g71
(dp3689
sg80
g3675
sg73
(lp3690
g66
(g67
g68
NtRp3691
(dp3692
g71
(dp3693
g79
I3
ssg80
g3687
sg73
(lp3694
S''
asbasbasbag66
(g82
g68
NtRp3695
(dp3696
g71
(dp3697
sg80
g3611
sg73
(lp3698
g66
(g87
g68
NtRp3699
(dp3700
g71
(dp3701
g91
g92
ssg80
g3695
sg73
(lp3702
g390
asbag66
(g87
g68
NtRp3703
(dp3704
g71
(dp3705
g98
g99
ssg80
g3695
sg73
(lp3706
S':'
asbag66
(g87
g68
NtRp3707
(dp3708
g71
(dp3709
sg80
g3695
sg73
(lp3710
g66
(g67
g68
NtRp3711
(dp3712
g71
(dp3713
g79
I3
ssg80
g3707
sg73
(lp3714
S''
asbasbasbag66
(g82
g68
NtRp3715
(dp3716
g71
(dp3717
sg80
g3611
sg73
(lp3718
g66
(g87
g68
NtRp3719
(dp3720
g71
(dp3721
g91
g92
ssg80
g3715
sg73
(lp3722
g411
asbag66
(g87
g68
NtRp3723
(dp3724
g71
(dp3725
g98
g99
ssg80
g3715
sg73
(lp3726
S':'
asbag66
(g87
g68
NtRp3727
(dp3728
g71
(dp3729
sg80
g3715
sg73
(lp3730
g66
(g67
g68
NtRp3731
(dp3732
g71
(dp3733
g79
I3
ssg80
g3727
sg73
(lp3734
S'/'
asbasbasbag66
(g82
g68
NtRp3735
(dp3736
g71
(dp3737
sg80
g3611
sg73
(lp3738
g66
(g87
g68
NtRp3739
(dp3740
g71
(dp3741
g91
g92
ssg80
g3735
sg73
(lp3742
g432
asbag66
(g87
g68
NtRp3743
(dp3744
g71
(dp3745
g98
g99
ssg80
g3735
sg73
(lp3746
S':'
asbag66
(g87
g68
NtRp3747
(dp3748
g71
(dp3749
sg80
g3735
sg73
(lp3750
g66
(g67
g68
NtRp3751
(dp3752
g71
(dp3753
g79
I3
ssg80
g3747
sg73
(lp3754
S''
asbasbasbag66
(g82
g68
NtRp3755
(dp3756
g71
(dp3757
sg80
g3611
sg73
(lp3758
g66
(g87
g68
NtRp3759
(dp3760
g71
(dp3761
g91
g92
ssg80
g3755
sg73
(lp3762
g453
asbag66
(g87
g68
NtRp3763
(dp3764
g71
(dp3765
g98
g99
ssg80
g3755
sg73
(lp3766
S':'
asbag66
(g87
g68
NtRp3767
(dp3768
g71
(dp3769
sg80
g3755
sg73
(lp3770
g66
(g67
g68
NtRp3771
(dp3772
g71
(dp3773
g79
I3
ssg80
g3767
sg73
(lp3774
S''
asbasbasbasbasbasbasbasbasbasbasbag66
(g82
g68
NtRp3775
(dp3776
g71
(dp3777
sg80
g3541
sg73
(lp3778
g66
(g87
g68
NtRp3779
(dp3780
g71
(dp3781
g91
g92
ssg80
g3775
sg73
(lp3782
S'files'
p3783
asbag66
(g87
g68
NtRp3784
(dp3785
g71
(dp3786
g98
g99
ssg80
g3775
sg73
(lp3787
S':'
asbag66
(g87
g68
NtRp3788
(dp3789
g71
(dp3790
sg80
g3775
sg73
(lp3791
g66
(g67
g68
NtRp3792
(dp3793
g71
(dp3794
g79
I5
ssg80
g3788
sg73
(lp3795
g66
(g75
g68
NtRp3796
(dp3797
g71
(dp3798
g79
I4
ssg80
Nsg73
(lp3799
sbasbasbasbag66
(g82
g68
NtRp3800
(dp3801
g71
(dp3802
sg80
g3541
sg73
(lp3803
g66
(g87
g68
NtRp3804
(dp3805
g71
(dp3806
g91
g92
ssg80
g3800
sg73
(lp3807
S'flash'
p3808
asbag66
(g87
g68
NtRp3809
(dp3810
g71
(dp3811
g98
g99
ssg80
g3800
sg73
(lp3812
S':'
asbag66
(g87
g68
NtRp3813
(dp3814
g71
(dp3815
sg80
g3800
sg73
(lp3816
g66
(g67
g68
NtRp3817
(dp3818
g71
(dp3819
g79
I5
ssg80
g3813
sg73
(lp3820
S''
asbasbasbag66
(g82
g68
NtRp3821
(dp3822
g71
(dp3823
sg80
g3541
sg73
(lp3824
g66
(g87
g68
NtRp3825
(dp3826
g71
(dp3827
g91
g92
ssg80
g3821
sg73
(lp3828
S'generic_patterns'
p3829
asbag66
(g87
g68
NtRp3830
(dp3831
g71
(dp3832
g98
g99
ssg80
g3821
sg73
(lp3833
S':'
asbag66
(g87
g68
NtRp3834
(dp3835
g71
(dp3836
sg80
g3821
sg73
(lp3837
g66
(g67
g68
NtRp3838
(dp3839
g71
(dp3840
g79
I5
ssg80
g3834
sg73
(lp3841
g66
(g75
g68
NtRp3842
(dp3843
g71
(dp3844
g79
I4
ssg80
Nsg73
(lp3845
sbasbasbasbag66
(g82
g68
NtRp3846
(dp3847
g71
(dp3848
sg80
g3541
sg73
(lp3849
g66
(g87
g68
NtRp3850
(dp3851
g71
(dp3852
g91
g92
ssg80
g3846
sg73
(lp3853
S'headers'
p3854
asbag66
(g87
g68
NtRp3855
(dp3856
g71
(dp3857
g98
g99
ssg80
g3846
sg73
(lp3858
S':'
asbag66
(g87
g68
NtRp3859
(dp3860
g71
(dp3861
sg80
g3846
sg73
(lp3862
g66
(g67
g68
NtRp3863
(dp3864
g71
(dp3865
g79
I5
ssg80
g3859
sg73
(lp3866
g66
(g75
g68
NtRp3867
(dp3868
g71
(dp3869
g79
I4
ssg80
Nsg73
(lp3870
g66
(g82
g68
NtRp3871
(dp3872
g71
(dp3873
sg80
g3867
sg73
(lp3874
g66
(g87
g68
NtRp3875
(dp3876
g71
(dp3877
g91
g92
ssg80
g3871
sg73
(lp3878
S'Cache-Control'
p3879
asbag66
(g87
g68
NtRp3880
(dp3881
g71
(dp3882
g98
g99
ssg80
g3871
sg73
(lp3883
S':'
asbag66
(g87
g68
NtRp3884
(dp3885
g71
(dp3886
sg80
g3871
sg73
(lp3887
g66
(g67
g68
NtRp3888
(dp3889
g71
(dp3890
g79
I4
ssg80
g3884
sg73
(lp3891
S'no-store, no-cache, must-revalidate, post-check=0, pre-check=0'
p3892
asbasbasbag66
(g82
g68
NtRp3893
(dp3894
g71
(dp3895
sg80
g3867
sg73
(lp3896
g66
(g87
g68
NtRp3897
(dp3898
g71
(dp3899
g91
g92
ssg80
g3893
sg73
(lp3900
S'Content-Type'
p3901
asbag66
(g87
g68
NtRp3902
(dp3903
g71
(dp3904
g98
g99
ssg80
g3893
sg73
(lp3905
S':'
asbag66
(g87
g68
NtRp3906
(dp3907
g71
(dp3908
sg80
g3893
sg73
(lp3909
g66
(g67
g68
NtRp3910
(dp3911
g71
(dp3912
g79
I4
ssg80
g3906
sg73
(lp3913
S'text/html; charset=utf-8'
p3914
asbasbasbag66
(g82
g68
NtRp3915
(dp3916
g71
(dp3917
sg80
g3867
sg73
(lp3918
g66
(g87
g68
NtRp3919
(dp3920
g71
(dp3921
g91
g92
ssg80
g3915
sg73
(lp3922
S'Expires'
p3923
asbag66
(g87
g68
NtRp3924
(dp3925
g71
(dp3926
g98
g99
ssg80
g3915
sg73
(lp3927
S':'
asbag66
(g87
g68
NtRp3928
(dp3929
g71
(dp3930
sg80
g3915
sg73
(lp3931
g66
(g67
g68
NtRp3932
(dp3933
g71
(dp3934
g79
I4
ssg80
g3928
sg73
(lp3935
S'Thu, 08 Sep 2011 00:13:46 GMT'
p3936
asbasbasbag66
(g82
g68
NtRp3937
(dp3938
g71
(dp3939
sg80
g3867
sg73
(lp3940
g66
(g87
g68
NtRp3941
(dp3942
g71
(dp3943
g91
g92
ssg80
g3937
sg73
(lp3944
S'Pragma'
p3945
asbag66
(g87
g68
NtRp3946
(dp3947
g71
(dp3948
g98
g99
ssg80
g3937
sg73
(lp3949
S':'
asbag66
(g87
g68
NtRp3950
(dp3951
g71
(dp3952
sg80
g3937
sg73
(lp3953
g66
(g67
g68
NtRp3954
(dp3955
g71
(dp3956
g79
I4
ssg80
g3950
sg73
(lp3957
S'no-cache'
p3958
asbasbasbag66
(g82
g68
NtRp3959
(dp3960
g71
(dp3961
sg80
g3867
sg73
(lp3962
g66
(g87
g68
NtRp3963
(dp3964
g71
(dp3965
g91
g92
ssg80
g3959
sg73
(lp3966
S'X-Powered-By'
p3967
asbag66
(g87
g68
NtRp3968
(dp3969
g71
(dp3970
g98
g99
ssg80
g3959
sg73
(lp3971
S':'
asbag66
(g87
g68
NtRp3972
(dp3973
g71
(dp3974
sg80
g3959
sg73
(lp3975
g66
(g67
g68
NtRp3976
(dp3977
g71
(dp3978
g79
I4
ssg80
g3972
sg73
(lp3979
S'web2py'
p3980
asbasbasbasbasbasbasbag66
(g82
g68
NtRp3981
(dp3982
g71
(dp3983
sg80
g3541
sg73
(lp3984
g66
(g87
g68
NtRp3985
(dp3986
g71
(dp3987
g91
g92
ssg80
g3981
sg73
(lp3988
S'menu'
p3989
asbag66
(g87
g68
NtRp3990
(dp3991
g71
(dp3992
g98
g99
ssg80
g3981
sg73
(lp3993
S':'
asbag66
(g87
g68
NtRp3994
(dp3995
g71
(dp3996
sg80
g3981
sg73
(lp3997
g66
(g67
g68
NtRp3998
(dp3999
g71
(dp4000
g79
I5
ssg80
g3994
sg73
(lp4001
g66
(g75
g68
NtRp4002
(dp4003
g71
(dp4004
g79
I4
ssg80
Nsg73
(lp4005
sbasbasbasbag66
(g82
g68
NtRp4006
(dp4007
g71
(dp4008
sg80
g3541
sg73
(lp4009
g66
(g87
g68
NtRp4010
(dp4011
g71
(dp4012
g91
g92
ssg80
g4006
sg73
(lp4013
S'meta'
p4014
asbag66
(g87
g68
NtRp4015
(dp4016
g71
(dp4017
g98
g99
ssg80
g4006
sg73
(lp4018
S':'
asbag66
(g87
g68
NtRp4019
(dp4020
g71
(dp4021
sg80
g4006
sg73
(lp4022
g66
(g67
g68
NtRp4023
(dp4024
g71
(dp4025
g79
I5
ssg80
g4019
sg73
(lp4026
g66
(g75
g68
NtRp4027
(dp4028
g71
(dp4029
g79
I4
ssg80
Nsg73
(lp4030
sbasbasbasbag66
(g82
g68
NtRp4031
(dp4032
g71
(dp4033
sg80
g3541
sg73
(lp4034
g66
(g87
g68
NtRp4035
(dp4036
g71
(dp4037
g91
g92
ssg80
g4031
sg73
(lp4038
S'postprocessing'
p4039
asbag66
(g87
g68
NtRp4040
(dp4041
g71
(dp4042
g98
g99
ssg80
g4031
sg73
(lp4043
S':'
asbag66
(g87
g68
NtRp4044
(dp4045
g71
(dp4046
sg80
g4031
sg73
(lp4047
g66
(g67
g68
NtRp4048
(dp4049
g71
(dp4050
g79
I5
ssg80
g4044
sg73
(lp4051
g66
(g75
g68
NtRp4052
(dp4053
g71
(dp4054
g79
I4
ssg80
Nsg73
(lp4055
sbasbasbasbag66
(g82
g68
NtRp4056
(dp4057
g71
(dp4058
sg80
g3541
sg73
(lp4059
g66
(g87
g68
NtRp4060
(dp4061
g71
(dp4062
g91
g92
ssg80
g4056
sg73
(lp4063
S'session_file'
p4064
asbag66
(g87
g68
NtRp4065
(dp4066
g71
(dp4067
g98
g99
ssg80
g4056
sg73
(lp4068
S':'
asbag66
(g87
g68
NtRp4069
(dp4070
g71
(dp4071
sg80
g4056
sg73
(lp4072
g66
(g67
g68
NtRp4073
(dp4074
g71
(dp4075
g79
I5
ssg80
g4069
sg73
(lp4076
S"<open file '/home/alumno/web2py/applications/datos/sessions/127.0.0.1-db62c583-5264-4eba-ba24-7cb87b43795a', mode 'rb+' at 0xa1ef338>"
p4077
asbasbasbag66
(g82
g68
NtRp4078
(dp4079
g71
(dp4080
sg80
g3541
sg73
(lp4081
g66
(g87
g68
NtRp4082
(dp4083
g71
(dp4084
g91
g92
ssg80
g4078
sg73
(lp4085
S'session_filename'
p4086
asbag66
(g87
g68
NtRp4087
(dp4088
g71
(dp4089
g98
g99
ssg80
g4078
sg73
(lp4090
S':'
asbag66
(g87
g68
NtRp4091
(dp4092
g71
(dp4093
sg80
g4078
sg73
(lp4094
g66
(g67
g68
NtRp4095
(dp4096
g71
(dp4097
g79
I5
ssg80
g4091
sg73
(lp4098
S'/home/alumno/web2py/applications/datos/sessions/127.0.0.1-db62c583-5264-4eba-ba24-7cb87b43795a'
p4099
asbasbasbag66
(g82
g68
NtRp4100
(dp4101
g71
(dp4102
sg80
g3541
sg73
(lp4103
g66
(g87
g68
NtRp4104
(dp4105
g71
(dp4106
g91
g92
ssg80
g4100
sg73
(lp4107
S'session_id'
p4108
asbag66
(g87
g68
NtRp4109
(dp4110
g71
(dp4111
g98
g99
ssg80
g4100
sg73
(lp4112
S':'
asbag66
(g87
g68
NtRp4113
(dp4114
g71
(dp4115
sg80
g4100
sg73
(lp4116
g66
(g67
g68
NtRp4117
(dp4118
g71
(dp4119
g79
I5
ssg80
g4113
sg73
(lp4120
S'127.0.0.1-db62c583-5264-4eba-ba24-7cb87b43795a'
p4121
asbasbasbag66
(g82
g68
NtRp4122
(dp4123
g71
(dp4124
sg80
g3541
sg73
(lp4125
g66
(g87
g68
NtRp4126
(dp4127
g71
(dp4128
g91
g92
ssg80
g4122
sg73
(lp4129
S'session_id_name'
p4130
asbag66
(g87
g68
NtRp4131
(dp4132
g71
(dp4133
g98
g99
ssg80
g4122
sg73
(lp4134
S':'
asbag66
(g87
g68
NtRp4135
(dp4136
g71
(dp4137
sg80
g4122
sg73
(lp4138
g66
(g67
g68
NtRp4139
(dp4140
g71
(dp4141
g79
I5
ssg80
g4135
sg73
(lp4142
g3598
asbasbasbag66
(g82
g68
NtRp4143
(dp4144
g71
(dp4145
sg80
g3541
sg73
(lp4146
g66
(g87
g68
NtRp4147
(dp4148
g71
(dp4149
g91
g92
ssg80
g4143
sg73
(lp4150
S'session_locked'
p4151
asbag66
(g87
g68
NtRp4152
(dp4153
g71
(dp4154
g98
g99
ssg80
g4143
sg73
(lp4155
S':'
asbag66
(g87
g68
NtRp4156
(dp4157
g71
(dp4158
sg80
g4143
sg73
(lp4159
g66
(g67
g68
NtRp4160
(dp4161
g71
(dp4162
g79
I5
ssg80
g4156
sg73
(lp4163
g2104
asbasbasbag66
(g82
g68
NtRp4164
(dp4165
g71
(dp4166
sg80
g3541
sg73
(lp4167
g66
(g87
g68
NtRp4168
(dp4169
g71
(dp4170
g91
g92
ssg80
g4164
sg73
(lp4171
S'session_new'
p4172
asbag66
(g87
g68
NtRp4173
(dp4174
g71
(dp4175
g98
g99
ssg80
g4164
sg73
(lp4176
S':'
asbag66
(g87
g68
NtRp4177
(dp4178
g71
(dp4179
sg80
g4164
sg73
(lp4180
g66
(g67
g68
NtRp4181
(dp4182
g71
(dp4183
g79
I5
ssg80
g4177
sg73
(lp4184
g109
asbasbasbag66
(g82
g68
NtRp4185
(dp4186
g71
(dp4187
sg80
g3541
sg73
(lp4188
g66
(g87
g68
NtRp4189
(dp4190
g71
(dp4191
g91
g92
ssg80
g4185
sg73
(lp4192
S'status'
p4193
asbag66
(g87
g68
NtRp4194
(dp4195
g71
(dp4196
g98
g99
ssg80
g4185
sg73
(lp4197
S':'
asbag66
(g87
g68
NtRp4198
(dp4199
g71
(dp4200
sg80
g4185
sg73
(lp4201
g66
(g67
g68
NtRp4202
(dp4203
g71
(dp4204
g79
I5
ssg80
g4198
sg73
(lp4205
S'200'
p4206
asbasbasbag66
(g82
g68
NtRp4207
(dp4208
g71
(dp4209
sg80
g3541
sg73
(lp4210
g66
(g87
g68
NtRp4211
(dp4212
g71
(dp4213
g91
g92
ssg80
g4207
sg73
(lp4214
g2582
asbag66
(g87
g68
NtRp4215
(dp4216
g71
(dp4217
g98
g99
ssg80
g4207
sg73
(lp4218
S':'
asbag66
(g87
g68
NtRp4219
(dp4220
g71
(dp4221
sg80
g4207
sg73
(lp4222
g66
(g67
g68
NtRp4223
(dp4224
g71
(dp4225
g79
I5
ssg80
g4219
sg73
(lp4226
g2595
asbasbasbag66
(g82
g68
NtRp4227
(dp4228
g71
(dp4229
sg80
g3541
sg73
(lp4230
g66
(g87
g68
NtRp4231
(dp4232
g71
(dp4233
g91
g92
ssg80
g4227
sg73
(lp4234
S'view'
p4235
asbag66
(g87
g68
NtRp4236
(dp4237
g71
(dp4238
g98
g99
ssg80
g4227
sg73
(lp4239
S':'
asbag66
(g87
g68
NtRp4240
(dp4241
g71
(dp4242
sg80
g4227
sg73
(lp4243
g66
(g67
g68
NtRp4244
(dp4245
g71
(dp4246
g79
I5
ssg80
g4240
sg73
(lp4247
S'appadmin/insert.html'
p4248
asbasbasbasbasbsS'locals'
p4249
(dp4250
g3
S"'/home/alumno/web2py/applications/datos/models/db.py'"
p4251
sg5
S'"# -*- coding: utf-8 -*-\\n\\n = DAL(\'sqlite://datos....IS_EMAIL()\\n.alumno.hobby.default = \'Estudiar :P\'\\n"'
p4252
sssS'traceback'
p4253
S'Traceback (most recent call last):\n  File "/home/alumno/web2py/gluon/restricted.py", line 191, in restricted\n    ccode = compile2(code,layer)\n  File "/home/alumno/web2py/gluon/restricted.py", line 178, in compile2\n    return compile(code.rstrip().replace(\'\\r\\n\',\'\\n\')+\'\\n\', layer, \'exec\')\n  File "/home/alumno/web2py/applications/datos/models/db.py", line 3\n    = DAL(\'sqlite://datos.db\');\n   ^\nIndentationError: unexpected indent\n'
p4254
s.